
Remora-NVEM.elf:     file format elf32-littlearm

Sections:
Idx Name          Size      VMA       LMA       File off  Algn
  0 .isr_vector   00000184  08000000  08000000  00010000  2**0
                  CONTENTS, ALLOC, LOAD, READONLY, DATA
  1 .text         0000b5e8  08000184  08000184  00010184  2**2
                  CONTENTS, ALLOC, LOAD, READONLY, CODE
  2 .rodata       00001ab8  0800b76c  0800b76c  0001b76c  2**2
                  CONTENTS, ALLOC, LOAD, READONLY, DATA
  3 .ARM.extab    00000000  0800d224  0800d224  00020080  2**0
                  CONTENTS
  4 .ARM          00000008  0800d224  0800d224  0001d224  2**2
                  CONTENTS, ALLOC, LOAD, READONLY, DATA
  5 .preinit_array 00000000  0800d22c  0800d22c  00020080  2**0
                  CONTENTS, ALLOC, LOAD, DATA
  6 .init_array   00000004  0800d22c  0800d22c  0001d22c  2**2
                  CONTENTS, ALLOC, LOAD, DATA
  7 .fini_array   00000004  0800d230  0800d230  0001d230  2**2
                  CONTENTS, ALLOC, LOAD, DATA
  8 .data         00000080  20000000  0800d234  00020000  2**2
                  CONTENTS, ALLOC, LOAD, DATA
  9 .bss          00006b38  20000080  0800d2b4  00020080  2**2
                  ALLOC
 10 ._user_heap_stack 00000600  20006bb8  0800d2b4  00026bb8  2**0
                  ALLOC
 11 .ARM.attributes 00000029  00000000  00000000  00020080  2**0
                  CONTENTS, READONLY
 12 .comment      00000053  00000000  00000000  000200a9  2**0
                  CONTENTS, READONLY
 13 .debug_frame  000021c4  00000000  00000000  000200fc  2**2
                  CONTENTS, READONLY, DEBUGGING, OCTETS

Disassembly of section .text:

08000184 <__do_global_dtors_aux>:
 8000184:	b510      	push	{r4, lr}
 8000186:	4c05      	ldr	r4, [pc, #20]	; (800019c <__do_global_dtors_aux+0x18>)
 8000188:	7823      	ldrb	r3, [r4, #0]
 800018a:	b933      	cbnz	r3, 800019a <__do_global_dtors_aux+0x16>
 800018c:	4b04      	ldr	r3, [pc, #16]	; (80001a0 <__do_global_dtors_aux+0x1c>)
 800018e:	b113      	cbz	r3, 8000196 <__do_global_dtors_aux+0x12>
 8000190:	4804      	ldr	r0, [pc, #16]	; (80001a4 <__do_global_dtors_aux+0x20>)
 8000192:	f3af 8000 	nop.w
 8000196:	2301      	movs	r3, #1
 8000198:	7023      	strb	r3, [r4, #0]
 800019a:	bd10      	pop	{r4, pc}
 800019c:	20000080 	.word	0x20000080
 80001a0:	00000000 	.word	0x00000000
 80001a4:	0800b754 	.word	0x0800b754

080001a8 <frame_dummy>:
 80001a8:	b508      	push	{r3, lr}
 80001aa:	4b03      	ldr	r3, [pc, #12]	; (80001b8 <frame_dummy+0x10>)
 80001ac:	b11b      	cbz	r3, 80001b6 <frame_dummy+0xe>
 80001ae:	4903      	ldr	r1, [pc, #12]	; (80001bc <frame_dummy+0x14>)
 80001b0:	4803      	ldr	r0, [pc, #12]	; (80001c0 <frame_dummy+0x18>)
 80001b2:	f3af 8000 	nop.w
 80001b6:	bd08      	pop	{r3, pc}
 80001b8:	00000000 	.word	0x00000000
 80001bc:	20000084 	.word	0x20000084
 80001c0:	0800b754 	.word	0x0800b754

080001c4 <strlen>:
 80001c4:	4603      	mov	r3, r0
 80001c6:	f813 2b01 	ldrb.w	r2, [r3], #1
 80001ca:	2a00      	cmp	r2, #0
 80001cc:	d1fb      	bne.n	80001c6 <strlen+0x2>
 80001ce:	1a18      	subs	r0, r3, r0
 80001d0:	3801      	subs	r0, #1
 80001d2:	4770      	bx	lr

080001d4 <__aeabi_drsub>:
 80001d4:	f081 4100 	eor.w	r1, r1, #2147483648	; 0x80000000
 80001d8:	e002      	b.n	80001e0 <__adddf3>
 80001da:	bf00      	nop

080001dc <__aeabi_dsub>:
 80001dc:	f083 4300 	eor.w	r3, r3, #2147483648	; 0x80000000

080001e0 <__adddf3>:
 80001e0:	b530      	push	{r4, r5, lr}
 80001e2:	ea4f 0441 	mov.w	r4, r1, lsl #1
 80001e6:	ea4f 0543 	mov.w	r5, r3, lsl #1
 80001ea:	ea94 0f05 	teq	r4, r5
 80001ee:	bf08      	it	eq
 80001f0:	ea90 0f02 	teqeq	r0, r2
 80001f4:	bf1f      	itttt	ne
 80001f6:	ea54 0c00 	orrsne.w	ip, r4, r0
 80001fa:	ea55 0c02 	orrsne.w	ip, r5, r2
 80001fe:	ea7f 5c64 	mvnsne.w	ip, r4, asr #21
 8000202:	ea7f 5c65 	mvnsne.w	ip, r5, asr #21
 8000206:	f000 80e2 	beq.w	80003ce <__adddf3+0x1ee>
 800020a:	ea4f 5454 	mov.w	r4, r4, lsr #21
 800020e:	ebd4 5555 	rsbs	r5, r4, r5, lsr #21
 8000212:	bfb8      	it	lt
 8000214:	426d      	neglt	r5, r5
 8000216:	dd0c      	ble.n	8000232 <__adddf3+0x52>
 8000218:	442c      	add	r4, r5
 800021a:	ea80 0202 	eor.w	r2, r0, r2
 800021e:	ea81 0303 	eor.w	r3, r1, r3
 8000222:	ea82 0000 	eor.w	r0, r2, r0
 8000226:	ea83 0101 	eor.w	r1, r3, r1
 800022a:	ea80 0202 	eor.w	r2, r0, r2
 800022e:	ea81 0303 	eor.w	r3, r1, r3
 8000232:	2d36      	cmp	r5, #54	; 0x36
 8000234:	bf88      	it	hi
 8000236:	bd30      	pophi	{r4, r5, pc}
 8000238:	f011 4f00 	tst.w	r1, #2147483648	; 0x80000000
 800023c:	ea4f 3101 	mov.w	r1, r1, lsl #12
 8000240:	f44f 1c80 	mov.w	ip, #1048576	; 0x100000
 8000244:	ea4c 3111 	orr.w	r1, ip, r1, lsr #12
 8000248:	d002      	beq.n	8000250 <__adddf3+0x70>
 800024a:	4240      	negs	r0, r0
 800024c:	eb61 0141 	sbc.w	r1, r1, r1, lsl #1
 8000250:	f013 4f00 	tst.w	r3, #2147483648	; 0x80000000
 8000254:	ea4f 3303 	mov.w	r3, r3, lsl #12
 8000258:	ea4c 3313 	orr.w	r3, ip, r3, lsr #12
 800025c:	d002      	beq.n	8000264 <__adddf3+0x84>
 800025e:	4252      	negs	r2, r2
 8000260:	eb63 0343 	sbc.w	r3, r3, r3, lsl #1
 8000264:	ea94 0f05 	teq	r4, r5
 8000268:	f000 80a7 	beq.w	80003ba <__adddf3+0x1da>
 800026c:	f1a4 0401 	sub.w	r4, r4, #1
 8000270:	f1d5 0e20 	rsbs	lr, r5, #32
 8000274:	db0d      	blt.n	8000292 <__adddf3+0xb2>
 8000276:	fa02 fc0e 	lsl.w	ip, r2, lr
 800027a:	fa22 f205 	lsr.w	r2, r2, r5
 800027e:	1880      	adds	r0, r0, r2
 8000280:	f141 0100 	adc.w	r1, r1, #0
 8000284:	fa03 f20e 	lsl.w	r2, r3, lr
 8000288:	1880      	adds	r0, r0, r2
 800028a:	fa43 f305 	asr.w	r3, r3, r5
 800028e:	4159      	adcs	r1, r3
 8000290:	e00e      	b.n	80002b0 <__adddf3+0xd0>
 8000292:	f1a5 0520 	sub.w	r5, r5, #32
 8000296:	f10e 0e20 	add.w	lr, lr, #32
 800029a:	2a01      	cmp	r2, #1
 800029c:	fa03 fc0e 	lsl.w	ip, r3, lr
 80002a0:	bf28      	it	cs
 80002a2:	f04c 0c02 	orrcs.w	ip, ip, #2
 80002a6:	fa43 f305 	asr.w	r3, r3, r5
 80002aa:	18c0      	adds	r0, r0, r3
 80002ac:	eb51 71e3 	adcs.w	r1, r1, r3, asr #31
 80002b0:	f001 4500 	and.w	r5, r1, #2147483648	; 0x80000000
 80002b4:	d507      	bpl.n	80002c6 <__adddf3+0xe6>
 80002b6:	f04f 0e00 	mov.w	lr, #0
 80002ba:	f1dc 0c00 	rsbs	ip, ip, #0
 80002be:	eb7e 0000 	sbcs.w	r0, lr, r0
 80002c2:	eb6e 0101 	sbc.w	r1, lr, r1
 80002c6:	f5b1 1f80 	cmp.w	r1, #1048576	; 0x100000
 80002ca:	d31b      	bcc.n	8000304 <__adddf3+0x124>
 80002cc:	f5b1 1f00 	cmp.w	r1, #2097152	; 0x200000
 80002d0:	d30c      	bcc.n	80002ec <__adddf3+0x10c>
 80002d2:	0849      	lsrs	r1, r1, #1
 80002d4:	ea5f 0030 	movs.w	r0, r0, rrx
 80002d8:	ea4f 0c3c 	mov.w	ip, ip, rrx
 80002dc:	f104 0401 	add.w	r4, r4, #1
 80002e0:	ea4f 5244 	mov.w	r2, r4, lsl #21
 80002e4:	f512 0f80 	cmn.w	r2, #4194304	; 0x400000
 80002e8:	f080 809a 	bcs.w	8000420 <__adddf3+0x240>
 80002ec:	f1bc 4f00 	cmp.w	ip, #2147483648	; 0x80000000
 80002f0:	bf08      	it	eq
 80002f2:	ea5f 0c50 	movseq.w	ip, r0, lsr #1
 80002f6:	f150 0000 	adcs.w	r0, r0, #0
 80002fa:	eb41 5104 	adc.w	r1, r1, r4, lsl #20
 80002fe:	ea41 0105 	orr.w	r1, r1, r5
 8000302:	bd30      	pop	{r4, r5, pc}
 8000304:	ea5f 0c4c 	movs.w	ip, ip, lsl #1
 8000308:	4140      	adcs	r0, r0
 800030a:	eb41 0101 	adc.w	r1, r1, r1
 800030e:	3c01      	subs	r4, #1
 8000310:	bf28      	it	cs
 8000312:	f5b1 1f80 	cmpcs.w	r1, #1048576	; 0x100000
 8000316:	d2e9      	bcs.n	80002ec <__adddf3+0x10c>
 8000318:	f091 0f00 	teq	r1, #0
 800031c:	bf04      	itt	eq
 800031e:	4601      	moveq	r1, r0
 8000320:	2000      	moveq	r0, #0
 8000322:	fab1 f381 	clz	r3, r1
 8000326:	bf08      	it	eq
 8000328:	3320      	addeq	r3, #32
 800032a:	f1a3 030b 	sub.w	r3, r3, #11
 800032e:	f1b3 0220 	subs.w	r2, r3, #32
 8000332:	da0c      	bge.n	800034e <__adddf3+0x16e>
 8000334:	320c      	adds	r2, #12
 8000336:	dd08      	ble.n	800034a <__adddf3+0x16a>
 8000338:	f102 0c14 	add.w	ip, r2, #20
 800033c:	f1c2 020c 	rsb	r2, r2, #12
 8000340:	fa01 f00c 	lsl.w	r0, r1, ip
 8000344:	fa21 f102 	lsr.w	r1, r1, r2
 8000348:	e00c      	b.n	8000364 <__adddf3+0x184>
 800034a:	f102 0214 	add.w	r2, r2, #20
 800034e:	bfd8      	it	le
 8000350:	f1c2 0c20 	rsble	ip, r2, #32
 8000354:	fa01 f102 	lsl.w	r1, r1, r2
 8000358:	fa20 fc0c 	lsr.w	ip, r0, ip
 800035c:	bfdc      	itt	le
 800035e:	ea41 010c 	orrle.w	r1, r1, ip
 8000362:	4090      	lslle	r0, r2
 8000364:	1ae4      	subs	r4, r4, r3
 8000366:	bfa2      	ittt	ge
 8000368:	eb01 5104 	addge.w	r1, r1, r4, lsl #20
 800036c:	4329      	orrge	r1, r5
 800036e:	bd30      	popge	{r4, r5, pc}
 8000370:	ea6f 0404 	mvn.w	r4, r4
 8000374:	3c1f      	subs	r4, #31
 8000376:	da1c      	bge.n	80003b2 <__adddf3+0x1d2>
 8000378:	340c      	adds	r4, #12
 800037a:	dc0e      	bgt.n	800039a <__adddf3+0x1ba>
 800037c:	f104 0414 	add.w	r4, r4, #20
 8000380:	f1c4 0220 	rsb	r2, r4, #32
 8000384:	fa20 f004 	lsr.w	r0, r0, r4
 8000388:	fa01 f302 	lsl.w	r3, r1, r2
 800038c:	ea40 0003 	orr.w	r0, r0, r3
 8000390:	fa21 f304 	lsr.w	r3, r1, r4
 8000394:	ea45 0103 	orr.w	r1, r5, r3
 8000398:	bd30      	pop	{r4, r5, pc}
 800039a:	f1c4 040c 	rsb	r4, r4, #12
 800039e:	f1c4 0220 	rsb	r2, r4, #32
 80003a2:	fa20 f002 	lsr.w	r0, r0, r2
 80003a6:	fa01 f304 	lsl.w	r3, r1, r4
 80003aa:	ea40 0003 	orr.w	r0, r0, r3
 80003ae:	4629      	mov	r1, r5
 80003b0:	bd30      	pop	{r4, r5, pc}
 80003b2:	fa21 f004 	lsr.w	r0, r1, r4
 80003b6:	4629      	mov	r1, r5
 80003b8:	bd30      	pop	{r4, r5, pc}
 80003ba:	f094 0f00 	teq	r4, #0
 80003be:	f483 1380 	eor.w	r3, r3, #1048576	; 0x100000
 80003c2:	bf06      	itte	eq
 80003c4:	f481 1180 	eoreq.w	r1, r1, #1048576	; 0x100000
 80003c8:	3401      	addeq	r4, #1
 80003ca:	3d01      	subne	r5, #1
 80003cc:	e74e      	b.n	800026c <__adddf3+0x8c>
 80003ce:	ea7f 5c64 	mvns.w	ip, r4, asr #21
 80003d2:	bf18      	it	ne
 80003d4:	ea7f 5c65 	mvnsne.w	ip, r5, asr #21
 80003d8:	d029      	beq.n	800042e <__adddf3+0x24e>
 80003da:	ea94 0f05 	teq	r4, r5
 80003de:	bf08      	it	eq
 80003e0:	ea90 0f02 	teqeq	r0, r2
 80003e4:	d005      	beq.n	80003f2 <__adddf3+0x212>
 80003e6:	ea54 0c00 	orrs.w	ip, r4, r0
 80003ea:	bf04      	itt	eq
 80003ec:	4619      	moveq	r1, r3
 80003ee:	4610      	moveq	r0, r2
 80003f0:	bd30      	pop	{r4, r5, pc}
 80003f2:	ea91 0f03 	teq	r1, r3
 80003f6:	bf1e      	ittt	ne
 80003f8:	2100      	movne	r1, #0
 80003fa:	2000      	movne	r0, #0
 80003fc:	bd30      	popne	{r4, r5, pc}
 80003fe:	ea5f 5c54 	movs.w	ip, r4, lsr #21
 8000402:	d105      	bne.n	8000410 <__adddf3+0x230>
 8000404:	0040      	lsls	r0, r0, #1
 8000406:	4149      	adcs	r1, r1
 8000408:	bf28      	it	cs
 800040a:	f041 4100 	orrcs.w	r1, r1, #2147483648	; 0x80000000
 800040e:	bd30      	pop	{r4, r5, pc}
 8000410:	f514 0480 	adds.w	r4, r4, #4194304	; 0x400000
 8000414:	bf3c      	itt	cc
 8000416:	f501 1180 	addcc.w	r1, r1, #1048576	; 0x100000
 800041a:	bd30      	popcc	{r4, r5, pc}
 800041c:	f001 4500 	and.w	r5, r1, #2147483648	; 0x80000000
 8000420:	f045 41fe 	orr.w	r1, r5, #2130706432	; 0x7f000000
 8000424:	f441 0170 	orr.w	r1, r1, #15728640	; 0xf00000
 8000428:	f04f 0000 	mov.w	r0, #0
 800042c:	bd30      	pop	{r4, r5, pc}
 800042e:	ea7f 5c64 	mvns.w	ip, r4, asr #21
 8000432:	bf1a      	itte	ne
 8000434:	4619      	movne	r1, r3
 8000436:	4610      	movne	r0, r2
 8000438:	ea7f 5c65 	mvnseq.w	ip, r5, asr #21
 800043c:	bf1c      	itt	ne
 800043e:	460b      	movne	r3, r1
 8000440:	4602      	movne	r2, r0
 8000442:	ea50 3401 	orrs.w	r4, r0, r1, lsl #12
 8000446:	bf06      	itte	eq
 8000448:	ea52 3503 	orrseq.w	r5, r2, r3, lsl #12
 800044c:	ea91 0f03 	teqeq	r1, r3
 8000450:	f441 2100 	orrne.w	r1, r1, #524288	; 0x80000
 8000454:	bd30      	pop	{r4, r5, pc}
 8000456:	bf00      	nop

08000458 <__aeabi_ui2d>:
 8000458:	f090 0f00 	teq	r0, #0
 800045c:	bf04      	itt	eq
 800045e:	2100      	moveq	r1, #0
 8000460:	4770      	bxeq	lr
 8000462:	b530      	push	{r4, r5, lr}
 8000464:	f44f 6480 	mov.w	r4, #1024	; 0x400
 8000468:	f104 0432 	add.w	r4, r4, #50	; 0x32
 800046c:	f04f 0500 	mov.w	r5, #0
 8000470:	f04f 0100 	mov.w	r1, #0
 8000474:	e750      	b.n	8000318 <__adddf3+0x138>
 8000476:	bf00      	nop

08000478 <__aeabi_i2d>:
 8000478:	f090 0f00 	teq	r0, #0
 800047c:	bf04      	itt	eq
 800047e:	2100      	moveq	r1, #0
 8000480:	4770      	bxeq	lr
 8000482:	b530      	push	{r4, r5, lr}
 8000484:	f44f 6480 	mov.w	r4, #1024	; 0x400
 8000488:	f104 0432 	add.w	r4, r4, #50	; 0x32
 800048c:	f010 4500 	ands.w	r5, r0, #2147483648	; 0x80000000
 8000490:	bf48      	it	mi
 8000492:	4240      	negmi	r0, r0
 8000494:	f04f 0100 	mov.w	r1, #0
 8000498:	e73e      	b.n	8000318 <__adddf3+0x138>
 800049a:	bf00      	nop

0800049c <__aeabi_f2d>:
 800049c:	0042      	lsls	r2, r0, #1
 800049e:	ea4f 01e2 	mov.w	r1, r2, asr #3
 80004a2:	ea4f 0131 	mov.w	r1, r1, rrx
 80004a6:	ea4f 7002 	mov.w	r0, r2, lsl #28
 80004aa:	bf1f      	itttt	ne
 80004ac:	f012 437f 	andsne.w	r3, r2, #4278190080	; 0xff000000
 80004b0:	f093 4f7f 	teqne	r3, #4278190080	; 0xff000000
 80004b4:	f081 5160 	eorne.w	r1, r1, #939524096	; 0x38000000
 80004b8:	4770      	bxne	lr
 80004ba:	f032 427f 	bics.w	r2, r2, #4278190080	; 0xff000000
 80004be:	bf08      	it	eq
 80004c0:	4770      	bxeq	lr
 80004c2:	f093 4f7f 	teq	r3, #4278190080	; 0xff000000
 80004c6:	bf04      	itt	eq
 80004c8:	f441 2100 	orreq.w	r1, r1, #524288	; 0x80000
 80004cc:	4770      	bxeq	lr
 80004ce:	b530      	push	{r4, r5, lr}
 80004d0:	f44f 7460 	mov.w	r4, #896	; 0x380
 80004d4:	f001 4500 	and.w	r5, r1, #2147483648	; 0x80000000
 80004d8:	f021 4100 	bic.w	r1, r1, #2147483648	; 0x80000000
 80004dc:	e71c      	b.n	8000318 <__adddf3+0x138>
 80004de:	bf00      	nop

080004e0 <__aeabi_ul2d>:
 80004e0:	ea50 0201 	orrs.w	r2, r0, r1
 80004e4:	bf08      	it	eq
 80004e6:	4770      	bxeq	lr
 80004e8:	b530      	push	{r4, r5, lr}
 80004ea:	f04f 0500 	mov.w	r5, #0
 80004ee:	e00a      	b.n	8000506 <__aeabi_l2d+0x16>

080004f0 <__aeabi_l2d>:
 80004f0:	ea50 0201 	orrs.w	r2, r0, r1
 80004f4:	bf08      	it	eq
 80004f6:	4770      	bxeq	lr
 80004f8:	b530      	push	{r4, r5, lr}
 80004fa:	f011 4500 	ands.w	r5, r1, #2147483648	; 0x80000000
 80004fe:	d502      	bpl.n	8000506 <__aeabi_l2d+0x16>
 8000500:	4240      	negs	r0, r0
 8000502:	eb61 0141 	sbc.w	r1, r1, r1, lsl #1
 8000506:	f44f 6480 	mov.w	r4, #1024	; 0x400
 800050a:	f104 0432 	add.w	r4, r4, #50	; 0x32
 800050e:	ea5f 5c91 	movs.w	ip, r1, lsr #22
 8000512:	f43f aed8 	beq.w	80002c6 <__adddf3+0xe6>
 8000516:	f04f 0203 	mov.w	r2, #3
 800051a:	ea5f 0cdc 	movs.w	ip, ip, lsr #3
 800051e:	bf18      	it	ne
 8000520:	3203      	addne	r2, #3
 8000522:	ea5f 0cdc 	movs.w	ip, ip, lsr #3
 8000526:	bf18      	it	ne
 8000528:	3203      	addne	r2, #3
 800052a:	eb02 02dc 	add.w	r2, r2, ip, lsr #3
 800052e:	f1c2 0320 	rsb	r3, r2, #32
 8000532:	fa00 fc03 	lsl.w	ip, r0, r3
 8000536:	fa20 f002 	lsr.w	r0, r0, r2
 800053a:	fa01 fe03 	lsl.w	lr, r1, r3
 800053e:	ea40 000e 	orr.w	r0, r0, lr
 8000542:	fa21 f102 	lsr.w	r1, r1, r2
 8000546:	4414      	add	r4, r2
 8000548:	e6bd      	b.n	80002c6 <__adddf3+0xe6>
 800054a:	bf00      	nop

0800054c <__aeabi_dmul>:
 800054c:	b570      	push	{r4, r5, r6, lr}
 800054e:	f04f 0cff 	mov.w	ip, #255	; 0xff
 8000552:	f44c 6ce0 	orr.w	ip, ip, #1792	; 0x700
 8000556:	ea1c 5411 	ands.w	r4, ip, r1, lsr #20
 800055a:	bf1d      	ittte	ne
 800055c:	ea1c 5513 	andsne.w	r5, ip, r3, lsr #20
 8000560:	ea94 0f0c 	teqne	r4, ip
 8000564:	ea95 0f0c 	teqne	r5, ip
 8000568:	f000 f8de 	bleq	8000728 <__aeabi_dmul+0x1dc>
 800056c:	442c      	add	r4, r5
 800056e:	ea81 0603 	eor.w	r6, r1, r3
 8000572:	ea21 514c 	bic.w	r1, r1, ip, lsl #21
 8000576:	ea23 534c 	bic.w	r3, r3, ip, lsl #21
 800057a:	ea50 3501 	orrs.w	r5, r0, r1, lsl #12
 800057e:	bf18      	it	ne
 8000580:	ea52 3503 	orrsne.w	r5, r2, r3, lsl #12
 8000584:	f441 1180 	orr.w	r1, r1, #1048576	; 0x100000
 8000588:	f443 1380 	orr.w	r3, r3, #1048576	; 0x100000
 800058c:	d038      	beq.n	8000600 <__aeabi_dmul+0xb4>
 800058e:	fba0 ce02 	umull	ip, lr, r0, r2
 8000592:	f04f 0500 	mov.w	r5, #0
 8000596:	fbe1 e502 	umlal	lr, r5, r1, r2
 800059a:	f006 4200 	and.w	r2, r6, #2147483648	; 0x80000000
 800059e:	fbe0 e503 	umlal	lr, r5, r0, r3
 80005a2:	f04f 0600 	mov.w	r6, #0
 80005a6:	fbe1 5603 	umlal	r5, r6, r1, r3
 80005aa:	f09c 0f00 	teq	ip, #0
 80005ae:	bf18      	it	ne
 80005b0:	f04e 0e01 	orrne.w	lr, lr, #1
 80005b4:	f1a4 04ff 	sub.w	r4, r4, #255	; 0xff
 80005b8:	f5b6 7f00 	cmp.w	r6, #512	; 0x200
 80005bc:	f564 7440 	sbc.w	r4, r4, #768	; 0x300
 80005c0:	d204      	bcs.n	80005cc <__aeabi_dmul+0x80>
 80005c2:	ea5f 0e4e 	movs.w	lr, lr, lsl #1
 80005c6:	416d      	adcs	r5, r5
 80005c8:	eb46 0606 	adc.w	r6, r6, r6
 80005cc:	ea42 21c6 	orr.w	r1, r2, r6, lsl #11
 80005d0:	ea41 5155 	orr.w	r1, r1, r5, lsr #21
 80005d4:	ea4f 20c5 	mov.w	r0, r5, lsl #11
 80005d8:	ea40 505e 	orr.w	r0, r0, lr, lsr #21
 80005dc:	ea4f 2ece 	mov.w	lr, lr, lsl #11
 80005e0:	f1b4 0cfd 	subs.w	ip, r4, #253	; 0xfd
 80005e4:	bf88      	it	hi
 80005e6:	f5bc 6fe0 	cmphi.w	ip, #1792	; 0x700
 80005ea:	d81e      	bhi.n	800062a <__aeabi_dmul+0xde>
 80005ec:	f1be 4f00 	cmp.w	lr, #2147483648	; 0x80000000
 80005f0:	bf08      	it	eq
 80005f2:	ea5f 0e50 	movseq.w	lr, r0, lsr #1
 80005f6:	f150 0000 	adcs.w	r0, r0, #0
 80005fa:	eb41 5104 	adc.w	r1, r1, r4, lsl #20
 80005fe:	bd70      	pop	{r4, r5, r6, pc}
 8000600:	f006 4600 	and.w	r6, r6, #2147483648	; 0x80000000
 8000604:	ea46 0101 	orr.w	r1, r6, r1
 8000608:	ea40 0002 	orr.w	r0, r0, r2
 800060c:	ea81 0103 	eor.w	r1, r1, r3
 8000610:	ebb4 045c 	subs.w	r4, r4, ip, lsr #1
 8000614:	bfc2      	ittt	gt
 8000616:	ebd4 050c 	rsbsgt	r5, r4, ip
 800061a:	ea41 5104 	orrgt.w	r1, r1, r4, lsl #20
 800061e:	bd70      	popgt	{r4, r5, r6, pc}
 8000620:	f441 1180 	orr.w	r1, r1, #1048576	; 0x100000
 8000624:	f04f 0e00 	mov.w	lr, #0
 8000628:	3c01      	subs	r4, #1
 800062a:	f300 80ab 	bgt.w	8000784 <__aeabi_dmul+0x238>
 800062e:	f114 0f36 	cmn.w	r4, #54	; 0x36
 8000632:	bfde      	ittt	le
 8000634:	2000      	movle	r0, #0
 8000636:	f001 4100 	andle.w	r1, r1, #2147483648	; 0x80000000
 800063a:	bd70      	pople	{r4, r5, r6, pc}
 800063c:	f1c4 0400 	rsb	r4, r4, #0
 8000640:	3c20      	subs	r4, #32
 8000642:	da35      	bge.n	80006b0 <__aeabi_dmul+0x164>
 8000644:	340c      	adds	r4, #12
 8000646:	dc1b      	bgt.n	8000680 <__aeabi_dmul+0x134>
 8000648:	f104 0414 	add.w	r4, r4, #20
 800064c:	f1c4 0520 	rsb	r5, r4, #32
 8000650:	fa00 f305 	lsl.w	r3, r0, r5
 8000654:	fa20 f004 	lsr.w	r0, r0, r4
 8000658:	fa01 f205 	lsl.w	r2, r1, r5
 800065c:	ea40 0002 	orr.w	r0, r0, r2
 8000660:	f001 4200 	and.w	r2, r1, #2147483648	; 0x80000000
 8000664:	f021 4100 	bic.w	r1, r1, #2147483648	; 0x80000000
 8000668:	eb10 70d3 	adds.w	r0, r0, r3, lsr #31
 800066c:	fa21 f604 	lsr.w	r6, r1, r4
 8000670:	eb42 0106 	adc.w	r1, r2, r6
 8000674:	ea5e 0e43 	orrs.w	lr, lr, r3, lsl #1
 8000678:	bf08      	it	eq
 800067a:	ea20 70d3 	biceq.w	r0, r0, r3, lsr #31
 800067e:	bd70      	pop	{r4, r5, r6, pc}
 8000680:	f1c4 040c 	rsb	r4, r4, #12
 8000684:	f1c4 0520 	rsb	r5, r4, #32
 8000688:	fa00 f304 	lsl.w	r3, r0, r4
 800068c:	fa20 f005 	lsr.w	r0, r0, r5
 8000690:	fa01 f204 	lsl.w	r2, r1, r4
 8000694:	ea40 0002 	orr.w	r0, r0, r2
 8000698:	f001 4100 	and.w	r1, r1, #2147483648	; 0x80000000
 800069c:	eb10 70d3 	adds.w	r0, r0, r3, lsr #31
 80006a0:	f141 0100 	adc.w	r1, r1, #0
 80006a4:	ea5e 0e43 	orrs.w	lr, lr, r3, lsl #1
 80006a8:	bf08      	it	eq
 80006aa:	ea20 70d3 	biceq.w	r0, r0, r3, lsr #31
 80006ae:	bd70      	pop	{r4, r5, r6, pc}
 80006b0:	f1c4 0520 	rsb	r5, r4, #32
 80006b4:	fa00 f205 	lsl.w	r2, r0, r5
 80006b8:	ea4e 0e02 	orr.w	lr, lr, r2
 80006bc:	fa20 f304 	lsr.w	r3, r0, r4
 80006c0:	fa01 f205 	lsl.w	r2, r1, r5
 80006c4:	ea43 0302 	orr.w	r3, r3, r2
 80006c8:	fa21 f004 	lsr.w	r0, r1, r4
 80006cc:	f001 4100 	and.w	r1, r1, #2147483648	; 0x80000000
 80006d0:	fa21 f204 	lsr.w	r2, r1, r4
 80006d4:	ea20 0002 	bic.w	r0, r0, r2
 80006d8:	eb00 70d3 	add.w	r0, r0, r3, lsr #31
 80006dc:	ea5e 0e43 	orrs.w	lr, lr, r3, lsl #1
 80006e0:	bf08      	it	eq
 80006e2:	ea20 70d3 	biceq.w	r0, r0, r3, lsr #31
 80006e6:	bd70      	pop	{r4, r5, r6, pc}
 80006e8:	f094 0f00 	teq	r4, #0
 80006ec:	d10f      	bne.n	800070e <__aeabi_dmul+0x1c2>
 80006ee:	f001 4600 	and.w	r6, r1, #2147483648	; 0x80000000
 80006f2:	0040      	lsls	r0, r0, #1
 80006f4:	eb41 0101 	adc.w	r1, r1, r1
 80006f8:	f411 1f80 	tst.w	r1, #1048576	; 0x100000
 80006fc:	bf08      	it	eq
 80006fe:	3c01      	subeq	r4, #1
 8000700:	d0f7      	beq.n	80006f2 <__aeabi_dmul+0x1a6>
 8000702:	ea41 0106 	orr.w	r1, r1, r6
 8000706:	f095 0f00 	teq	r5, #0
 800070a:	bf18      	it	ne
 800070c:	4770      	bxne	lr
 800070e:	f003 4600 	and.w	r6, r3, #2147483648	; 0x80000000
 8000712:	0052      	lsls	r2, r2, #1
 8000714:	eb43 0303 	adc.w	r3, r3, r3
 8000718:	f413 1f80 	tst.w	r3, #1048576	; 0x100000
 800071c:	bf08      	it	eq
 800071e:	3d01      	subeq	r5, #1
 8000720:	d0f7      	beq.n	8000712 <__aeabi_dmul+0x1c6>
 8000722:	ea43 0306 	orr.w	r3, r3, r6
 8000726:	4770      	bx	lr
 8000728:	ea94 0f0c 	teq	r4, ip
 800072c:	ea0c 5513 	and.w	r5, ip, r3, lsr #20
 8000730:	bf18      	it	ne
 8000732:	ea95 0f0c 	teqne	r5, ip
 8000736:	d00c      	beq.n	8000752 <__aeabi_dmul+0x206>
 8000738:	ea50 0641 	orrs.w	r6, r0, r1, lsl #1
 800073c:	bf18      	it	ne
 800073e:	ea52 0643 	orrsne.w	r6, r2, r3, lsl #1
 8000742:	d1d1      	bne.n	80006e8 <__aeabi_dmul+0x19c>
 8000744:	ea81 0103 	eor.w	r1, r1, r3
 8000748:	f001 4100 	and.w	r1, r1, #2147483648	; 0x80000000
 800074c:	f04f 0000 	mov.w	r0, #0
 8000750:	bd70      	pop	{r4, r5, r6, pc}
 8000752:	ea50 0641 	orrs.w	r6, r0, r1, lsl #1
 8000756:	bf06      	itte	eq
 8000758:	4610      	moveq	r0, r2
 800075a:	4619      	moveq	r1, r3
 800075c:	ea52 0643 	orrsne.w	r6, r2, r3, lsl #1
 8000760:	d019      	beq.n	8000796 <__aeabi_dmul+0x24a>
 8000762:	ea94 0f0c 	teq	r4, ip
 8000766:	d102      	bne.n	800076e <__aeabi_dmul+0x222>
 8000768:	ea50 3601 	orrs.w	r6, r0, r1, lsl #12
 800076c:	d113      	bne.n	8000796 <__aeabi_dmul+0x24a>
 800076e:	ea95 0f0c 	teq	r5, ip
 8000772:	d105      	bne.n	8000780 <__aeabi_dmul+0x234>
 8000774:	ea52 3603 	orrs.w	r6, r2, r3, lsl #12
 8000778:	bf1c      	itt	ne
 800077a:	4610      	movne	r0, r2
 800077c:	4619      	movne	r1, r3
 800077e:	d10a      	bne.n	8000796 <__aeabi_dmul+0x24a>
 8000780:	ea81 0103 	eor.w	r1, r1, r3
 8000784:	f001 4100 	and.w	r1, r1, #2147483648	; 0x80000000
 8000788:	f041 41fe 	orr.w	r1, r1, #2130706432	; 0x7f000000
 800078c:	f441 0170 	orr.w	r1, r1, #15728640	; 0xf00000
 8000790:	f04f 0000 	mov.w	r0, #0
 8000794:	bd70      	pop	{r4, r5, r6, pc}
 8000796:	f041 41fe 	orr.w	r1, r1, #2130706432	; 0x7f000000
 800079a:	f441 0178 	orr.w	r1, r1, #16252928	; 0xf80000
 800079e:	bd70      	pop	{r4, r5, r6, pc}

080007a0 <__aeabi_ddiv>:
 80007a0:	b570      	push	{r4, r5, r6, lr}
 80007a2:	f04f 0cff 	mov.w	ip, #255	; 0xff
 80007a6:	f44c 6ce0 	orr.w	ip, ip, #1792	; 0x700
 80007aa:	ea1c 5411 	ands.w	r4, ip, r1, lsr #20
 80007ae:	bf1d      	ittte	ne
 80007b0:	ea1c 5513 	andsne.w	r5, ip, r3, lsr #20
 80007b4:	ea94 0f0c 	teqne	r4, ip
 80007b8:	ea95 0f0c 	teqne	r5, ip
 80007bc:	f000 f8a7 	bleq	800090e <__aeabi_ddiv+0x16e>
 80007c0:	eba4 0405 	sub.w	r4, r4, r5
 80007c4:	ea81 0e03 	eor.w	lr, r1, r3
 80007c8:	ea52 3503 	orrs.w	r5, r2, r3, lsl #12
 80007cc:	ea4f 3101 	mov.w	r1, r1, lsl #12
 80007d0:	f000 8088 	beq.w	80008e4 <__aeabi_ddiv+0x144>
 80007d4:	ea4f 3303 	mov.w	r3, r3, lsl #12
 80007d8:	f04f 5580 	mov.w	r5, #268435456	; 0x10000000
 80007dc:	ea45 1313 	orr.w	r3, r5, r3, lsr #4
 80007e0:	ea43 6312 	orr.w	r3, r3, r2, lsr #24
 80007e4:	ea4f 2202 	mov.w	r2, r2, lsl #8
 80007e8:	ea45 1511 	orr.w	r5, r5, r1, lsr #4
 80007ec:	ea45 6510 	orr.w	r5, r5, r0, lsr #24
 80007f0:	ea4f 2600 	mov.w	r6, r0, lsl #8
 80007f4:	f00e 4100 	and.w	r1, lr, #2147483648	; 0x80000000
 80007f8:	429d      	cmp	r5, r3
 80007fa:	bf08      	it	eq
 80007fc:	4296      	cmpeq	r6, r2
 80007fe:	f144 04fd 	adc.w	r4, r4, #253	; 0xfd
 8000802:	f504 7440 	add.w	r4, r4, #768	; 0x300
 8000806:	d202      	bcs.n	800080e <__aeabi_ddiv+0x6e>
 8000808:	085b      	lsrs	r3, r3, #1
 800080a:	ea4f 0232 	mov.w	r2, r2, rrx
 800080e:	1ab6      	subs	r6, r6, r2
 8000810:	eb65 0503 	sbc.w	r5, r5, r3
 8000814:	085b      	lsrs	r3, r3, #1
 8000816:	ea4f 0232 	mov.w	r2, r2, rrx
 800081a:	f44f 1080 	mov.w	r0, #1048576	; 0x100000
 800081e:	f44f 2c00 	mov.w	ip, #524288	; 0x80000
 8000822:	ebb6 0e02 	subs.w	lr, r6, r2
 8000826:	eb75 0e03 	sbcs.w	lr, r5, r3
 800082a:	bf22      	ittt	cs
 800082c:	1ab6      	subcs	r6, r6, r2
 800082e:	4675      	movcs	r5, lr
 8000830:	ea40 000c 	orrcs.w	r0, r0, ip
 8000834:	085b      	lsrs	r3, r3, #1
 8000836:	ea4f 0232 	mov.w	r2, r2, rrx
 800083a:	ebb6 0e02 	subs.w	lr, r6, r2
 800083e:	eb75 0e03 	sbcs.w	lr, r5, r3
 8000842:	bf22      	ittt	cs
 8000844:	1ab6      	subcs	r6, r6, r2
 8000846:	4675      	movcs	r5, lr
 8000848:	ea40 005c 	orrcs.w	r0, r0, ip, lsr #1
 800084c:	085b      	lsrs	r3, r3, #1
 800084e:	ea4f 0232 	mov.w	r2, r2, rrx
 8000852:	ebb6 0e02 	subs.w	lr, r6, r2
 8000856:	eb75 0e03 	sbcs.w	lr, r5, r3
 800085a:	bf22      	ittt	cs
 800085c:	1ab6      	subcs	r6, r6, r2
 800085e:	4675      	movcs	r5, lr
 8000860:	ea40 009c 	orrcs.w	r0, r0, ip, lsr #2
 8000864:	085b      	lsrs	r3, r3, #1
 8000866:	ea4f 0232 	mov.w	r2, r2, rrx
 800086a:	ebb6 0e02 	subs.w	lr, r6, r2
 800086e:	eb75 0e03 	sbcs.w	lr, r5, r3
 8000872:	bf22      	ittt	cs
 8000874:	1ab6      	subcs	r6, r6, r2
 8000876:	4675      	movcs	r5, lr
 8000878:	ea40 00dc 	orrcs.w	r0, r0, ip, lsr #3
 800087c:	ea55 0e06 	orrs.w	lr, r5, r6
 8000880:	d018      	beq.n	80008b4 <__aeabi_ddiv+0x114>
 8000882:	ea4f 1505 	mov.w	r5, r5, lsl #4
 8000886:	ea45 7516 	orr.w	r5, r5, r6, lsr #28
 800088a:	ea4f 1606 	mov.w	r6, r6, lsl #4
 800088e:	ea4f 03c3 	mov.w	r3, r3, lsl #3
 8000892:	ea43 7352 	orr.w	r3, r3, r2, lsr #29
 8000896:	ea4f 02c2 	mov.w	r2, r2, lsl #3
 800089a:	ea5f 1c1c 	movs.w	ip, ip, lsr #4
 800089e:	d1c0      	bne.n	8000822 <__aeabi_ddiv+0x82>
 80008a0:	f411 1f80 	tst.w	r1, #1048576	; 0x100000
 80008a4:	d10b      	bne.n	80008be <__aeabi_ddiv+0x11e>
 80008a6:	ea41 0100 	orr.w	r1, r1, r0
 80008aa:	f04f 0000 	mov.w	r0, #0
 80008ae:	f04f 4c00 	mov.w	ip, #2147483648	; 0x80000000
 80008b2:	e7b6      	b.n	8000822 <__aeabi_ddiv+0x82>
 80008b4:	f411 1f80 	tst.w	r1, #1048576	; 0x100000
 80008b8:	bf04      	itt	eq
 80008ba:	4301      	orreq	r1, r0
 80008bc:	2000      	moveq	r0, #0
 80008be:	f1b4 0cfd 	subs.w	ip, r4, #253	; 0xfd
 80008c2:	bf88      	it	hi
 80008c4:	f5bc 6fe0 	cmphi.w	ip, #1792	; 0x700
 80008c8:	f63f aeaf 	bhi.w	800062a <__aeabi_dmul+0xde>
 80008cc:	ebb5 0c03 	subs.w	ip, r5, r3
 80008d0:	bf04      	itt	eq
 80008d2:	ebb6 0c02 	subseq.w	ip, r6, r2
 80008d6:	ea5f 0c50 	movseq.w	ip, r0, lsr #1
 80008da:	f150 0000 	adcs.w	r0, r0, #0
 80008de:	eb41 5104 	adc.w	r1, r1, r4, lsl #20
 80008e2:	bd70      	pop	{r4, r5, r6, pc}
 80008e4:	f00e 4e00 	and.w	lr, lr, #2147483648	; 0x80000000
 80008e8:	ea4e 3111 	orr.w	r1, lr, r1, lsr #12
 80008ec:	eb14 045c 	adds.w	r4, r4, ip, lsr #1
 80008f0:	bfc2      	ittt	gt
 80008f2:	ebd4 050c 	rsbsgt	r5, r4, ip
 80008f6:	ea41 5104 	orrgt.w	r1, r1, r4, lsl #20
 80008fa:	bd70      	popgt	{r4, r5, r6, pc}
 80008fc:	f441 1180 	orr.w	r1, r1, #1048576	; 0x100000
 8000900:	f04f 0e00 	mov.w	lr, #0
 8000904:	3c01      	subs	r4, #1
 8000906:	e690      	b.n	800062a <__aeabi_dmul+0xde>
 8000908:	ea45 0e06 	orr.w	lr, r5, r6
 800090c:	e68d      	b.n	800062a <__aeabi_dmul+0xde>
 800090e:	ea0c 5513 	and.w	r5, ip, r3, lsr #20
 8000912:	ea94 0f0c 	teq	r4, ip
 8000916:	bf08      	it	eq
 8000918:	ea95 0f0c 	teqeq	r5, ip
 800091c:	f43f af3b 	beq.w	8000796 <__aeabi_dmul+0x24a>
 8000920:	ea94 0f0c 	teq	r4, ip
 8000924:	d10a      	bne.n	800093c <__aeabi_ddiv+0x19c>
 8000926:	ea50 3401 	orrs.w	r4, r0, r1, lsl #12
 800092a:	f47f af34 	bne.w	8000796 <__aeabi_dmul+0x24a>
 800092e:	ea95 0f0c 	teq	r5, ip
 8000932:	f47f af25 	bne.w	8000780 <__aeabi_dmul+0x234>
 8000936:	4610      	mov	r0, r2
 8000938:	4619      	mov	r1, r3
 800093a:	e72c      	b.n	8000796 <__aeabi_dmul+0x24a>
 800093c:	ea95 0f0c 	teq	r5, ip
 8000940:	d106      	bne.n	8000950 <__aeabi_ddiv+0x1b0>
 8000942:	ea52 3503 	orrs.w	r5, r2, r3, lsl #12
 8000946:	f43f aefd 	beq.w	8000744 <__aeabi_dmul+0x1f8>
 800094a:	4610      	mov	r0, r2
 800094c:	4619      	mov	r1, r3
 800094e:	e722      	b.n	8000796 <__aeabi_dmul+0x24a>
 8000950:	ea50 0641 	orrs.w	r6, r0, r1, lsl #1
 8000954:	bf18      	it	ne
 8000956:	ea52 0643 	orrsne.w	r6, r2, r3, lsl #1
 800095a:	f47f aec5 	bne.w	80006e8 <__aeabi_dmul+0x19c>
 800095e:	ea50 0441 	orrs.w	r4, r0, r1, lsl #1
 8000962:	f47f af0d 	bne.w	8000780 <__aeabi_dmul+0x234>
 8000966:	ea52 0543 	orrs.w	r5, r2, r3, lsl #1
 800096a:	f47f aeeb 	bne.w	8000744 <__aeabi_dmul+0x1f8>
 800096e:	e712      	b.n	8000796 <__aeabi_dmul+0x24a>

08000970 <__aeabi_d2uiz>:
 8000970:	004a      	lsls	r2, r1, #1
 8000972:	d211      	bcs.n	8000998 <__aeabi_d2uiz+0x28>
 8000974:	f512 1200 	adds.w	r2, r2, #2097152	; 0x200000
 8000978:	d211      	bcs.n	800099e <__aeabi_d2uiz+0x2e>
 800097a:	d50d      	bpl.n	8000998 <__aeabi_d2uiz+0x28>
 800097c:	f46f 7378 	mvn.w	r3, #992	; 0x3e0
 8000980:	ebb3 5262 	subs.w	r2, r3, r2, asr #21
 8000984:	d40e      	bmi.n	80009a4 <__aeabi_d2uiz+0x34>
 8000986:	ea4f 23c1 	mov.w	r3, r1, lsl #11
 800098a:	f043 4300 	orr.w	r3, r3, #2147483648	; 0x80000000
 800098e:	ea43 5350 	orr.w	r3, r3, r0, lsr #21
 8000992:	fa23 f002 	lsr.w	r0, r3, r2
 8000996:	4770      	bx	lr
 8000998:	f04f 0000 	mov.w	r0, #0
 800099c:	4770      	bx	lr
 800099e:	ea50 3001 	orrs.w	r0, r0, r1, lsl #12
 80009a2:	d102      	bne.n	80009aa <__aeabi_d2uiz+0x3a>
 80009a4:	f04f 30ff 	mov.w	r0, #4294967295
 80009a8:	4770      	bx	lr
 80009aa:	f04f 0000 	mov.w	r0, #0
 80009ae:	4770      	bx	lr

080009b0 <__aeabi_frsub>:
 80009b0:	f080 4000 	eor.w	r0, r0, #2147483648	; 0x80000000
 80009b4:	e002      	b.n	80009bc <__addsf3>
 80009b6:	bf00      	nop

080009b8 <__aeabi_fsub>:
 80009b8:	f081 4100 	eor.w	r1, r1, #2147483648	; 0x80000000

080009bc <__addsf3>:
 80009bc:	0042      	lsls	r2, r0, #1
 80009be:	bf1f      	itttt	ne
 80009c0:	ea5f 0341 	movsne.w	r3, r1, lsl #1
 80009c4:	ea92 0f03 	teqne	r2, r3
 80009c8:	ea7f 6c22 	mvnsne.w	ip, r2, asr #24
 80009cc:	ea7f 6c23 	mvnsne.w	ip, r3, asr #24
 80009d0:	d06a      	beq.n	8000aa8 <__addsf3+0xec>
 80009d2:	ea4f 6212 	mov.w	r2, r2, lsr #24
 80009d6:	ebd2 6313 	rsbs	r3, r2, r3, lsr #24
 80009da:	bfc1      	itttt	gt
 80009dc:	18d2      	addgt	r2, r2, r3
 80009de:	4041      	eorgt	r1, r0
 80009e0:	4048      	eorgt	r0, r1
 80009e2:	4041      	eorgt	r1, r0
 80009e4:	bfb8      	it	lt
 80009e6:	425b      	neglt	r3, r3
 80009e8:	2b19      	cmp	r3, #25
 80009ea:	bf88      	it	hi
 80009ec:	4770      	bxhi	lr
 80009ee:	f010 4f00 	tst.w	r0, #2147483648	; 0x80000000
 80009f2:	f440 0000 	orr.w	r0, r0, #8388608	; 0x800000
 80009f6:	f020 407f 	bic.w	r0, r0, #4278190080	; 0xff000000
 80009fa:	bf18      	it	ne
 80009fc:	4240      	negne	r0, r0
 80009fe:	f011 4f00 	tst.w	r1, #2147483648	; 0x80000000
 8000a02:	f441 0100 	orr.w	r1, r1, #8388608	; 0x800000
 8000a06:	f021 417f 	bic.w	r1, r1, #4278190080	; 0xff000000
 8000a0a:	bf18      	it	ne
 8000a0c:	4249      	negne	r1, r1
 8000a0e:	ea92 0f03 	teq	r2, r3
 8000a12:	d03f      	beq.n	8000a94 <__addsf3+0xd8>
 8000a14:	f1a2 0201 	sub.w	r2, r2, #1
 8000a18:	fa41 fc03 	asr.w	ip, r1, r3
 8000a1c:	eb10 000c 	adds.w	r0, r0, ip
 8000a20:	f1c3 0320 	rsb	r3, r3, #32
 8000a24:	fa01 f103 	lsl.w	r1, r1, r3
 8000a28:	f000 4300 	and.w	r3, r0, #2147483648	; 0x80000000
 8000a2c:	d502      	bpl.n	8000a34 <__addsf3+0x78>
 8000a2e:	4249      	negs	r1, r1
 8000a30:	eb60 0040 	sbc.w	r0, r0, r0, lsl #1
 8000a34:	f5b0 0f00 	cmp.w	r0, #8388608	; 0x800000
 8000a38:	d313      	bcc.n	8000a62 <__addsf3+0xa6>
 8000a3a:	f1b0 7f80 	cmp.w	r0, #16777216	; 0x1000000
 8000a3e:	d306      	bcc.n	8000a4e <__addsf3+0x92>
 8000a40:	0840      	lsrs	r0, r0, #1
 8000a42:	ea4f 0131 	mov.w	r1, r1, rrx
 8000a46:	f102 0201 	add.w	r2, r2, #1
 8000a4a:	2afe      	cmp	r2, #254	; 0xfe
 8000a4c:	d251      	bcs.n	8000af2 <__addsf3+0x136>
 8000a4e:	f1b1 4f00 	cmp.w	r1, #2147483648	; 0x80000000
 8000a52:	eb40 50c2 	adc.w	r0, r0, r2, lsl #23
 8000a56:	bf08      	it	eq
 8000a58:	f020 0001 	biceq.w	r0, r0, #1
 8000a5c:	ea40 0003 	orr.w	r0, r0, r3
 8000a60:	4770      	bx	lr
 8000a62:	0049      	lsls	r1, r1, #1
 8000a64:	eb40 0000 	adc.w	r0, r0, r0
 8000a68:	3a01      	subs	r2, #1
 8000a6a:	bf28      	it	cs
 8000a6c:	f5b0 0f00 	cmpcs.w	r0, #8388608	; 0x800000
 8000a70:	d2ed      	bcs.n	8000a4e <__addsf3+0x92>
 8000a72:	fab0 fc80 	clz	ip, r0
 8000a76:	f1ac 0c08 	sub.w	ip, ip, #8
 8000a7a:	ebb2 020c 	subs.w	r2, r2, ip
 8000a7e:	fa00 f00c 	lsl.w	r0, r0, ip
 8000a82:	bfaa      	itet	ge
 8000a84:	eb00 50c2 	addge.w	r0, r0, r2, lsl #23
 8000a88:	4252      	neglt	r2, r2
 8000a8a:	4318      	orrge	r0, r3
 8000a8c:	bfbc      	itt	lt
 8000a8e:	40d0      	lsrlt	r0, r2
 8000a90:	4318      	orrlt	r0, r3
 8000a92:	4770      	bx	lr
 8000a94:	f092 0f00 	teq	r2, #0
 8000a98:	f481 0100 	eor.w	r1, r1, #8388608	; 0x800000
 8000a9c:	bf06      	itte	eq
 8000a9e:	f480 0000 	eoreq.w	r0, r0, #8388608	; 0x800000
 8000aa2:	3201      	addeq	r2, #1
 8000aa4:	3b01      	subne	r3, #1
 8000aa6:	e7b5      	b.n	8000a14 <__addsf3+0x58>
 8000aa8:	ea4f 0341 	mov.w	r3, r1, lsl #1
 8000aac:	ea7f 6c22 	mvns.w	ip, r2, asr #24
 8000ab0:	bf18      	it	ne
 8000ab2:	ea7f 6c23 	mvnsne.w	ip, r3, asr #24
 8000ab6:	d021      	beq.n	8000afc <__addsf3+0x140>
 8000ab8:	ea92 0f03 	teq	r2, r3
 8000abc:	d004      	beq.n	8000ac8 <__addsf3+0x10c>
 8000abe:	f092 0f00 	teq	r2, #0
 8000ac2:	bf08      	it	eq
 8000ac4:	4608      	moveq	r0, r1
 8000ac6:	4770      	bx	lr
 8000ac8:	ea90 0f01 	teq	r0, r1
 8000acc:	bf1c      	itt	ne
 8000ace:	2000      	movne	r0, #0
 8000ad0:	4770      	bxne	lr
 8000ad2:	f012 4f7f 	tst.w	r2, #4278190080	; 0xff000000
 8000ad6:	d104      	bne.n	8000ae2 <__addsf3+0x126>
 8000ad8:	0040      	lsls	r0, r0, #1
 8000ada:	bf28      	it	cs
 8000adc:	f040 4000 	orrcs.w	r0, r0, #2147483648	; 0x80000000
 8000ae0:	4770      	bx	lr
 8000ae2:	f112 7200 	adds.w	r2, r2, #33554432	; 0x2000000
 8000ae6:	bf3c      	itt	cc
 8000ae8:	f500 0000 	addcc.w	r0, r0, #8388608	; 0x800000
 8000aec:	4770      	bxcc	lr
 8000aee:	f000 4300 	and.w	r3, r0, #2147483648	; 0x80000000
 8000af2:	f043 40fe 	orr.w	r0, r3, #2130706432	; 0x7f000000
 8000af6:	f440 0000 	orr.w	r0, r0, #8388608	; 0x800000
 8000afa:	4770      	bx	lr
 8000afc:	ea7f 6222 	mvns.w	r2, r2, asr #24
 8000b00:	bf16      	itet	ne
 8000b02:	4608      	movne	r0, r1
 8000b04:	ea7f 6323 	mvnseq.w	r3, r3, asr #24
 8000b08:	4601      	movne	r1, r0
 8000b0a:	0242      	lsls	r2, r0, #9
 8000b0c:	bf06      	itte	eq
 8000b0e:	ea5f 2341 	movseq.w	r3, r1, lsl #9
 8000b12:	ea90 0f01 	teqeq	r0, r1
 8000b16:	f440 0080 	orrne.w	r0, r0, #4194304	; 0x400000
 8000b1a:	4770      	bx	lr

08000b1c <__aeabi_ui2f>:
 8000b1c:	f04f 0300 	mov.w	r3, #0
 8000b20:	e004      	b.n	8000b2c <__aeabi_i2f+0x8>
 8000b22:	bf00      	nop

08000b24 <__aeabi_i2f>:
 8000b24:	f010 4300 	ands.w	r3, r0, #2147483648	; 0x80000000
 8000b28:	bf48      	it	mi
 8000b2a:	4240      	negmi	r0, r0
 8000b2c:	ea5f 0c00 	movs.w	ip, r0
 8000b30:	bf08      	it	eq
 8000b32:	4770      	bxeq	lr
 8000b34:	f043 4396 	orr.w	r3, r3, #1258291200	; 0x4b000000
 8000b38:	4601      	mov	r1, r0
 8000b3a:	f04f 0000 	mov.w	r0, #0
 8000b3e:	e01c      	b.n	8000b7a <__aeabi_l2f+0x2a>

08000b40 <__aeabi_ul2f>:
 8000b40:	ea50 0201 	orrs.w	r2, r0, r1
 8000b44:	bf08      	it	eq
 8000b46:	4770      	bxeq	lr
 8000b48:	f04f 0300 	mov.w	r3, #0
 8000b4c:	e00a      	b.n	8000b64 <__aeabi_l2f+0x14>
 8000b4e:	bf00      	nop

08000b50 <__aeabi_l2f>:
 8000b50:	ea50 0201 	orrs.w	r2, r0, r1
 8000b54:	bf08      	it	eq
 8000b56:	4770      	bxeq	lr
 8000b58:	f011 4300 	ands.w	r3, r1, #2147483648	; 0x80000000
 8000b5c:	d502      	bpl.n	8000b64 <__aeabi_l2f+0x14>
 8000b5e:	4240      	negs	r0, r0
 8000b60:	eb61 0141 	sbc.w	r1, r1, r1, lsl #1
 8000b64:	ea5f 0c01 	movs.w	ip, r1
 8000b68:	bf02      	ittt	eq
 8000b6a:	4684      	moveq	ip, r0
 8000b6c:	4601      	moveq	r1, r0
 8000b6e:	2000      	moveq	r0, #0
 8000b70:	f043 43b6 	orr.w	r3, r3, #1526726656	; 0x5b000000
 8000b74:	bf08      	it	eq
 8000b76:	f1a3 5380 	subeq.w	r3, r3, #268435456	; 0x10000000
 8000b7a:	f5a3 0300 	sub.w	r3, r3, #8388608	; 0x800000
 8000b7e:	fabc f28c 	clz	r2, ip
 8000b82:	3a08      	subs	r2, #8
 8000b84:	eba3 53c2 	sub.w	r3, r3, r2, lsl #23
 8000b88:	db10      	blt.n	8000bac <__aeabi_l2f+0x5c>
 8000b8a:	fa01 fc02 	lsl.w	ip, r1, r2
 8000b8e:	4463      	add	r3, ip
 8000b90:	fa00 fc02 	lsl.w	ip, r0, r2
 8000b94:	f1c2 0220 	rsb	r2, r2, #32
 8000b98:	f1bc 4f00 	cmp.w	ip, #2147483648	; 0x80000000
 8000b9c:	fa20 f202 	lsr.w	r2, r0, r2
 8000ba0:	eb43 0002 	adc.w	r0, r3, r2
 8000ba4:	bf08      	it	eq
 8000ba6:	f020 0001 	biceq.w	r0, r0, #1
 8000baa:	4770      	bx	lr
 8000bac:	f102 0220 	add.w	r2, r2, #32
 8000bb0:	fa01 fc02 	lsl.w	ip, r1, r2
 8000bb4:	f1c2 0220 	rsb	r2, r2, #32
 8000bb8:	ea50 004c 	orrs.w	r0, r0, ip, lsl #1
 8000bbc:	fa21 f202 	lsr.w	r2, r1, r2
 8000bc0:	eb43 0002 	adc.w	r0, r3, r2
 8000bc4:	bf08      	it	eq
 8000bc6:	ea20 70dc 	biceq.w	r0, r0, ip, lsr #31
 8000bca:	4770      	bx	lr

08000bcc <__aeabi_fmul>:
 8000bcc:	f04f 0cff 	mov.w	ip, #255	; 0xff
 8000bd0:	ea1c 52d0 	ands.w	r2, ip, r0, lsr #23
 8000bd4:	bf1e      	ittt	ne
 8000bd6:	ea1c 53d1 	andsne.w	r3, ip, r1, lsr #23
 8000bda:	ea92 0f0c 	teqne	r2, ip
 8000bde:	ea93 0f0c 	teqne	r3, ip
 8000be2:	d06f      	beq.n	8000cc4 <__aeabi_fmul+0xf8>
 8000be4:	441a      	add	r2, r3
 8000be6:	ea80 0c01 	eor.w	ip, r0, r1
 8000bea:	0240      	lsls	r0, r0, #9
 8000bec:	bf18      	it	ne
 8000bee:	ea5f 2141 	movsne.w	r1, r1, lsl #9
 8000bf2:	d01e      	beq.n	8000c32 <__aeabi_fmul+0x66>
 8000bf4:	f04f 6300 	mov.w	r3, #134217728	; 0x8000000
 8000bf8:	ea43 1050 	orr.w	r0, r3, r0, lsr #5
 8000bfc:	ea43 1151 	orr.w	r1, r3, r1, lsr #5
 8000c00:	fba0 3101 	umull	r3, r1, r0, r1
 8000c04:	f00c 4000 	and.w	r0, ip, #2147483648	; 0x80000000
 8000c08:	f5b1 0f00 	cmp.w	r1, #8388608	; 0x800000
 8000c0c:	bf3e      	ittt	cc
 8000c0e:	0049      	lslcc	r1, r1, #1
 8000c10:	ea41 71d3 	orrcc.w	r1, r1, r3, lsr #31
 8000c14:	005b      	lslcc	r3, r3, #1
 8000c16:	ea40 0001 	orr.w	r0, r0, r1
 8000c1a:	f162 027f 	sbc.w	r2, r2, #127	; 0x7f
 8000c1e:	2afd      	cmp	r2, #253	; 0xfd
 8000c20:	d81d      	bhi.n	8000c5e <__aeabi_fmul+0x92>
 8000c22:	f1b3 4f00 	cmp.w	r3, #2147483648	; 0x80000000
 8000c26:	eb40 50c2 	adc.w	r0, r0, r2, lsl #23
 8000c2a:	bf08      	it	eq
 8000c2c:	f020 0001 	biceq.w	r0, r0, #1
 8000c30:	4770      	bx	lr
 8000c32:	f090 0f00 	teq	r0, #0
 8000c36:	f00c 4c00 	and.w	ip, ip, #2147483648	; 0x80000000
 8000c3a:	bf08      	it	eq
 8000c3c:	0249      	lsleq	r1, r1, #9
 8000c3e:	ea4c 2050 	orr.w	r0, ip, r0, lsr #9
 8000c42:	ea40 2051 	orr.w	r0, r0, r1, lsr #9
 8000c46:	3a7f      	subs	r2, #127	; 0x7f
 8000c48:	bfc2      	ittt	gt
 8000c4a:	f1d2 03ff 	rsbsgt	r3, r2, #255	; 0xff
 8000c4e:	ea40 50c2 	orrgt.w	r0, r0, r2, lsl #23
 8000c52:	4770      	bxgt	lr
 8000c54:	f440 0000 	orr.w	r0, r0, #8388608	; 0x800000
 8000c58:	f04f 0300 	mov.w	r3, #0
 8000c5c:	3a01      	subs	r2, #1
 8000c5e:	dc5d      	bgt.n	8000d1c <__aeabi_fmul+0x150>
 8000c60:	f112 0f19 	cmn.w	r2, #25
 8000c64:	bfdc      	itt	le
 8000c66:	f000 4000 	andle.w	r0, r0, #2147483648	; 0x80000000
 8000c6a:	4770      	bxle	lr
 8000c6c:	f1c2 0200 	rsb	r2, r2, #0
 8000c70:	0041      	lsls	r1, r0, #1
 8000c72:	fa21 f102 	lsr.w	r1, r1, r2
 8000c76:	f1c2 0220 	rsb	r2, r2, #32
 8000c7a:	fa00 fc02 	lsl.w	ip, r0, r2
 8000c7e:	ea5f 0031 	movs.w	r0, r1, rrx
 8000c82:	f140 0000 	adc.w	r0, r0, #0
 8000c86:	ea53 034c 	orrs.w	r3, r3, ip, lsl #1
 8000c8a:	bf08      	it	eq
 8000c8c:	ea20 70dc 	biceq.w	r0, r0, ip, lsr #31
 8000c90:	4770      	bx	lr
 8000c92:	f092 0f00 	teq	r2, #0
 8000c96:	f000 4c00 	and.w	ip, r0, #2147483648	; 0x80000000
 8000c9a:	bf02      	ittt	eq
 8000c9c:	0040      	lsleq	r0, r0, #1
 8000c9e:	f410 0f00 	tsteq.w	r0, #8388608	; 0x800000
 8000ca2:	3a01      	subeq	r2, #1
 8000ca4:	d0f9      	beq.n	8000c9a <__aeabi_fmul+0xce>
 8000ca6:	ea40 000c 	orr.w	r0, r0, ip
 8000caa:	f093 0f00 	teq	r3, #0
 8000cae:	f001 4c00 	and.w	ip, r1, #2147483648	; 0x80000000
 8000cb2:	bf02      	ittt	eq
 8000cb4:	0049      	lsleq	r1, r1, #1
 8000cb6:	f411 0f00 	tsteq.w	r1, #8388608	; 0x800000
 8000cba:	3b01      	subeq	r3, #1
 8000cbc:	d0f9      	beq.n	8000cb2 <__aeabi_fmul+0xe6>
 8000cbe:	ea41 010c 	orr.w	r1, r1, ip
 8000cc2:	e78f      	b.n	8000be4 <__aeabi_fmul+0x18>
 8000cc4:	ea0c 53d1 	and.w	r3, ip, r1, lsr #23
 8000cc8:	ea92 0f0c 	teq	r2, ip
 8000ccc:	bf18      	it	ne
 8000cce:	ea93 0f0c 	teqne	r3, ip
 8000cd2:	d00a      	beq.n	8000cea <__aeabi_fmul+0x11e>
 8000cd4:	f030 4c00 	bics.w	ip, r0, #2147483648	; 0x80000000
 8000cd8:	bf18      	it	ne
 8000cda:	f031 4c00 	bicsne.w	ip, r1, #2147483648	; 0x80000000
 8000cde:	d1d8      	bne.n	8000c92 <__aeabi_fmul+0xc6>
 8000ce0:	ea80 0001 	eor.w	r0, r0, r1
 8000ce4:	f000 4000 	and.w	r0, r0, #2147483648	; 0x80000000
 8000ce8:	4770      	bx	lr
 8000cea:	f090 0f00 	teq	r0, #0
 8000cee:	bf17      	itett	ne
 8000cf0:	f090 4f00 	teqne	r0, #2147483648	; 0x80000000
 8000cf4:	4608      	moveq	r0, r1
 8000cf6:	f091 0f00 	teqne	r1, #0
 8000cfa:	f091 4f00 	teqne	r1, #2147483648	; 0x80000000
 8000cfe:	d014      	beq.n	8000d2a <__aeabi_fmul+0x15e>
 8000d00:	ea92 0f0c 	teq	r2, ip
 8000d04:	d101      	bne.n	8000d0a <__aeabi_fmul+0x13e>
 8000d06:	0242      	lsls	r2, r0, #9
 8000d08:	d10f      	bne.n	8000d2a <__aeabi_fmul+0x15e>
 8000d0a:	ea93 0f0c 	teq	r3, ip
 8000d0e:	d103      	bne.n	8000d18 <__aeabi_fmul+0x14c>
 8000d10:	024b      	lsls	r3, r1, #9
 8000d12:	bf18      	it	ne
 8000d14:	4608      	movne	r0, r1
 8000d16:	d108      	bne.n	8000d2a <__aeabi_fmul+0x15e>
 8000d18:	ea80 0001 	eor.w	r0, r0, r1
 8000d1c:	f000 4000 	and.w	r0, r0, #2147483648	; 0x80000000
 8000d20:	f040 40fe 	orr.w	r0, r0, #2130706432	; 0x7f000000
 8000d24:	f440 0000 	orr.w	r0, r0, #8388608	; 0x800000
 8000d28:	4770      	bx	lr
 8000d2a:	f040 40fe 	orr.w	r0, r0, #2130706432	; 0x7f000000
 8000d2e:	f440 0040 	orr.w	r0, r0, #12582912	; 0xc00000
 8000d32:	4770      	bx	lr

08000d34 <__aeabi_fdiv>:
 8000d34:	f04f 0cff 	mov.w	ip, #255	; 0xff
 8000d38:	ea1c 52d0 	ands.w	r2, ip, r0, lsr #23
 8000d3c:	bf1e      	ittt	ne
 8000d3e:	ea1c 53d1 	andsne.w	r3, ip, r1, lsr #23
 8000d42:	ea92 0f0c 	teqne	r2, ip
 8000d46:	ea93 0f0c 	teqne	r3, ip
 8000d4a:	d069      	beq.n	8000e20 <__aeabi_fdiv+0xec>
 8000d4c:	eba2 0203 	sub.w	r2, r2, r3
 8000d50:	ea80 0c01 	eor.w	ip, r0, r1
 8000d54:	0249      	lsls	r1, r1, #9
 8000d56:	ea4f 2040 	mov.w	r0, r0, lsl #9
 8000d5a:	d037      	beq.n	8000dcc <__aeabi_fdiv+0x98>
 8000d5c:	f04f 5380 	mov.w	r3, #268435456	; 0x10000000
 8000d60:	ea43 1111 	orr.w	r1, r3, r1, lsr #4
 8000d64:	ea43 1310 	orr.w	r3, r3, r0, lsr #4
 8000d68:	f00c 4000 	and.w	r0, ip, #2147483648	; 0x80000000
 8000d6c:	428b      	cmp	r3, r1
 8000d6e:	bf38      	it	cc
 8000d70:	005b      	lslcc	r3, r3, #1
 8000d72:	f142 027d 	adc.w	r2, r2, #125	; 0x7d
 8000d76:	f44f 0c00 	mov.w	ip, #8388608	; 0x800000
 8000d7a:	428b      	cmp	r3, r1
 8000d7c:	bf24      	itt	cs
 8000d7e:	1a5b      	subcs	r3, r3, r1
 8000d80:	ea40 000c 	orrcs.w	r0, r0, ip
 8000d84:	ebb3 0f51 	cmp.w	r3, r1, lsr #1
 8000d88:	bf24      	itt	cs
 8000d8a:	eba3 0351 	subcs.w	r3, r3, r1, lsr #1
 8000d8e:	ea40 005c 	orrcs.w	r0, r0, ip, lsr #1
 8000d92:	ebb3 0f91 	cmp.w	r3, r1, lsr #2
 8000d96:	bf24      	itt	cs
 8000d98:	eba3 0391 	subcs.w	r3, r3, r1, lsr #2
 8000d9c:	ea40 009c 	orrcs.w	r0, r0, ip, lsr #2
 8000da0:	ebb3 0fd1 	cmp.w	r3, r1, lsr #3
 8000da4:	bf24      	itt	cs
 8000da6:	eba3 03d1 	subcs.w	r3, r3, r1, lsr #3
 8000daa:	ea40 00dc 	orrcs.w	r0, r0, ip, lsr #3
 8000dae:	011b      	lsls	r3, r3, #4
 8000db0:	bf18      	it	ne
 8000db2:	ea5f 1c1c 	movsne.w	ip, ip, lsr #4
 8000db6:	d1e0      	bne.n	8000d7a <__aeabi_fdiv+0x46>
 8000db8:	2afd      	cmp	r2, #253	; 0xfd
 8000dba:	f63f af50 	bhi.w	8000c5e <__aeabi_fmul+0x92>
 8000dbe:	428b      	cmp	r3, r1
 8000dc0:	eb40 50c2 	adc.w	r0, r0, r2, lsl #23
 8000dc4:	bf08      	it	eq
 8000dc6:	f020 0001 	biceq.w	r0, r0, #1
 8000dca:	4770      	bx	lr
 8000dcc:	f00c 4c00 	and.w	ip, ip, #2147483648	; 0x80000000
 8000dd0:	ea4c 2050 	orr.w	r0, ip, r0, lsr #9
 8000dd4:	327f      	adds	r2, #127	; 0x7f
 8000dd6:	bfc2      	ittt	gt
 8000dd8:	f1d2 03ff 	rsbsgt	r3, r2, #255	; 0xff
 8000ddc:	ea40 50c2 	orrgt.w	r0, r0, r2, lsl #23
 8000de0:	4770      	bxgt	lr
 8000de2:	f440 0000 	orr.w	r0, r0, #8388608	; 0x800000
 8000de6:	f04f 0300 	mov.w	r3, #0
 8000dea:	3a01      	subs	r2, #1
 8000dec:	e737      	b.n	8000c5e <__aeabi_fmul+0x92>
 8000dee:	f092 0f00 	teq	r2, #0
 8000df2:	f000 4c00 	and.w	ip, r0, #2147483648	; 0x80000000
 8000df6:	bf02      	ittt	eq
 8000df8:	0040      	lsleq	r0, r0, #1
 8000dfa:	f410 0f00 	tsteq.w	r0, #8388608	; 0x800000
 8000dfe:	3a01      	subeq	r2, #1
 8000e00:	d0f9      	beq.n	8000df6 <__aeabi_fdiv+0xc2>
 8000e02:	ea40 000c 	orr.w	r0, r0, ip
 8000e06:	f093 0f00 	teq	r3, #0
 8000e0a:	f001 4c00 	and.w	ip, r1, #2147483648	; 0x80000000
 8000e0e:	bf02      	ittt	eq
 8000e10:	0049      	lsleq	r1, r1, #1
 8000e12:	f411 0f00 	tsteq.w	r1, #8388608	; 0x800000
 8000e16:	3b01      	subeq	r3, #1
 8000e18:	d0f9      	beq.n	8000e0e <__aeabi_fdiv+0xda>
 8000e1a:	ea41 010c 	orr.w	r1, r1, ip
 8000e1e:	e795      	b.n	8000d4c <__aeabi_fdiv+0x18>
 8000e20:	ea0c 53d1 	and.w	r3, ip, r1, lsr #23
 8000e24:	ea92 0f0c 	teq	r2, ip
 8000e28:	d108      	bne.n	8000e3c <__aeabi_fdiv+0x108>
 8000e2a:	0242      	lsls	r2, r0, #9
 8000e2c:	f47f af7d 	bne.w	8000d2a <__aeabi_fmul+0x15e>
 8000e30:	ea93 0f0c 	teq	r3, ip
 8000e34:	f47f af70 	bne.w	8000d18 <__aeabi_fmul+0x14c>
 8000e38:	4608      	mov	r0, r1
 8000e3a:	e776      	b.n	8000d2a <__aeabi_fmul+0x15e>
 8000e3c:	ea93 0f0c 	teq	r3, ip
 8000e40:	d104      	bne.n	8000e4c <__aeabi_fdiv+0x118>
 8000e42:	024b      	lsls	r3, r1, #9
 8000e44:	f43f af4c 	beq.w	8000ce0 <__aeabi_fmul+0x114>
 8000e48:	4608      	mov	r0, r1
 8000e4a:	e76e      	b.n	8000d2a <__aeabi_fmul+0x15e>
 8000e4c:	f030 4c00 	bics.w	ip, r0, #2147483648	; 0x80000000
 8000e50:	bf18      	it	ne
 8000e52:	f031 4c00 	bicsne.w	ip, r1, #2147483648	; 0x80000000
 8000e56:	d1ca      	bne.n	8000dee <__aeabi_fdiv+0xba>
 8000e58:	f030 4200 	bics.w	r2, r0, #2147483648	; 0x80000000
 8000e5c:	f47f af5c 	bne.w	8000d18 <__aeabi_fmul+0x14c>
 8000e60:	f031 4300 	bics.w	r3, r1, #2147483648	; 0x80000000
 8000e64:	f47f af3c 	bne.w	8000ce0 <__aeabi_fmul+0x114>
 8000e68:	e75f      	b.n	8000d2a <__aeabi_fmul+0x15e>
 8000e6a:	bf00      	nop

08000e6c <__gesf2>:
 8000e6c:	f04f 3cff 	mov.w	ip, #4294967295
 8000e70:	e006      	b.n	8000e80 <__cmpsf2+0x4>
 8000e72:	bf00      	nop

08000e74 <__lesf2>:
 8000e74:	f04f 0c01 	mov.w	ip, #1
 8000e78:	e002      	b.n	8000e80 <__cmpsf2+0x4>
 8000e7a:	bf00      	nop

08000e7c <__cmpsf2>:
 8000e7c:	f04f 0c01 	mov.w	ip, #1
 8000e80:	f84d cd04 	str.w	ip, [sp, #-4]!
 8000e84:	ea4f 0240 	mov.w	r2, r0, lsl #1
 8000e88:	ea4f 0341 	mov.w	r3, r1, lsl #1
 8000e8c:	ea7f 6c22 	mvns.w	ip, r2, asr #24
 8000e90:	bf18      	it	ne
 8000e92:	ea7f 6c23 	mvnsne.w	ip, r3, asr #24
 8000e96:	d011      	beq.n	8000ebc <__cmpsf2+0x40>
 8000e98:	b001      	add	sp, #4
 8000e9a:	ea52 0c53 	orrs.w	ip, r2, r3, lsr #1
 8000e9e:	bf18      	it	ne
 8000ea0:	ea90 0f01 	teqne	r0, r1
 8000ea4:	bf58      	it	pl
 8000ea6:	ebb2 0003 	subspl.w	r0, r2, r3
 8000eaa:	bf88      	it	hi
 8000eac:	17c8      	asrhi	r0, r1, #31
 8000eae:	bf38      	it	cc
 8000eb0:	ea6f 70e1 	mvncc.w	r0, r1, asr #31
 8000eb4:	bf18      	it	ne
 8000eb6:	f040 0001 	orrne.w	r0, r0, #1
 8000eba:	4770      	bx	lr
 8000ebc:	ea7f 6c22 	mvns.w	ip, r2, asr #24
 8000ec0:	d102      	bne.n	8000ec8 <__cmpsf2+0x4c>
 8000ec2:	ea5f 2c40 	movs.w	ip, r0, lsl #9
 8000ec6:	d105      	bne.n	8000ed4 <__cmpsf2+0x58>
 8000ec8:	ea7f 6c23 	mvns.w	ip, r3, asr #24
 8000ecc:	d1e4      	bne.n	8000e98 <__cmpsf2+0x1c>
 8000ece:	ea5f 2c41 	movs.w	ip, r1, lsl #9
 8000ed2:	d0e1      	beq.n	8000e98 <__cmpsf2+0x1c>
 8000ed4:	f85d 0b04 	ldr.w	r0, [sp], #4
 8000ed8:	4770      	bx	lr
 8000eda:	bf00      	nop

08000edc <__aeabi_cfrcmple>:
 8000edc:	4684      	mov	ip, r0
 8000ede:	4608      	mov	r0, r1
 8000ee0:	4661      	mov	r1, ip
 8000ee2:	e7ff      	b.n	8000ee4 <__aeabi_cfcmpeq>

08000ee4 <__aeabi_cfcmpeq>:
 8000ee4:	b50f      	push	{r0, r1, r2, r3, lr}
 8000ee6:	f7ff ffc9 	bl	8000e7c <__cmpsf2>
 8000eea:	2800      	cmp	r0, #0
 8000eec:	bf48      	it	mi
 8000eee:	f110 0f00 	cmnmi.w	r0, #0
 8000ef2:	bd0f      	pop	{r0, r1, r2, r3, pc}

08000ef4 <__aeabi_fcmpeq>:
 8000ef4:	f84d ed08 	str.w	lr, [sp, #-8]!
 8000ef8:	f7ff fff4 	bl	8000ee4 <__aeabi_cfcmpeq>
 8000efc:	bf0c      	ite	eq
 8000efe:	2001      	moveq	r0, #1
 8000f00:	2000      	movne	r0, #0
 8000f02:	f85d fb08 	ldr.w	pc, [sp], #8
 8000f06:	bf00      	nop

08000f08 <__aeabi_fcmplt>:
 8000f08:	f84d ed08 	str.w	lr, [sp, #-8]!
 8000f0c:	f7ff ffea 	bl	8000ee4 <__aeabi_cfcmpeq>
 8000f10:	bf34      	ite	cc
 8000f12:	2001      	movcc	r0, #1
 8000f14:	2000      	movcs	r0, #0
 8000f16:	f85d fb08 	ldr.w	pc, [sp], #8
 8000f1a:	bf00      	nop

08000f1c <__aeabi_fcmple>:
 8000f1c:	f84d ed08 	str.w	lr, [sp, #-8]!
 8000f20:	f7ff ffe0 	bl	8000ee4 <__aeabi_cfcmpeq>
 8000f24:	bf94      	ite	ls
 8000f26:	2001      	movls	r0, #1
 8000f28:	2000      	movhi	r0, #0
 8000f2a:	f85d fb08 	ldr.w	pc, [sp], #8
 8000f2e:	bf00      	nop

08000f30 <__aeabi_fcmpge>:
 8000f30:	f84d ed08 	str.w	lr, [sp, #-8]!
 8000f34:	f7ff ffd2 	bl	8000edc <__aeabi_cfrcmple>
 8000f38:	bf94      	ite	ls
 8000f3a:	2001      	movls	r0, #1
 8000f3c:	2000      	movhi	r0, #0
 8000f3e:	f85d fb08 	ldr.w	pc, [sp], #8
 8000f42:	bf00      	nop

08000f44 <__aeabi_fcmpgt>:
 8000f44:	f84d ed08 	str.w	lr, [sp, #-8]!
 8000f48:	f7ff ffc8 	bl	8000edc <__aeabi_cfrcmple>
 8000f4c:	bf34      	ite	cc
 8000f4e:	2001      	movcc	r0, #1
 8000f50:	2000      	movcs	r0, #0
 8000f52:	f85d fb08 	ldr.w	pc, [sp], #8
 8000f56:	bf00      	nop

08000f58 <__aeabi_f2iz>:
 8000f58:	ea4f 0240 	mov.w	r2, r0, lsl #1
 8000f5c:	f1b2 4ffe 	cmp.w	r2, #2130706432	; 0x7f000000
 8000f60:	d30f      	bcc.n	8000f82 <__aeabi_f2iz+0x2a>
 8000f62:	f04f 039e 	mov.w	r3, #158	; 0x9e
 8000f66:	ebb3 6212 	subs.w	r2, r3, r2, lsr #24
 8000f6a:	d90d      	bls.n	8000f88 <__aeabi_f2iz+0x30>
 8000f6c:	ea4f 2300 	mov.w	r3, r0, lsl #8
 8000f70:	f043 4300 	orr.w	r3, r3, #2147483648	; 0x80000000
 8000f74:	f010 4f00 	tst.w	r0, #2147483648	; 0x80000000
 8000f78:	fa23 f002 	lsr.w	r0, r3, r2
 8000f7c:	bf18      	it	ne
 8000f7e:	4240      	negne	r0, r0
 8000f80:	4770      	bx	lr
 8000f82:	f04f 0000 	mov.w	r0, #0
 8000f86:	4770      	bx	lr
 8000f88:	f112 0f61 	cmn.w	r2, #97	; 0x61
 8000f8c:	d101      	bne.n	8000f92 <__aeabi_f2iz+0x3a>
 8000f8e:	0242      	lsls	r2, r0, #9
 8000f90:	d105      	bne.n	8000f9e <__aeabi_f2iz+0x46>
 8000f92:	f010 4000 	ands.w	r0, r0, #2147483648	; 0x80000000
 8000f96:	bf08      	it	eq
 8000f98:	f06f 4000 	mvneq.w	r0, #2147483648	; 0x80000000
 8000f9c:	4770      	bx	lr
 8000f9e:	f04f 0000 	mov.w	r0, #0
 8000fa2:	4770      	bx	lr

08000fa4 <__aeabi_uldivmod>:
 8000fa4:	b953      	cbnz	r3, 8000fbc <__aeabi_uldivmod+0x18>
 8000fa6:	b94a      	cbnz	r2, 8000fbc <__aeabi_uldivmod+0x18>
 8000fa8:	2900      	cmp	r1, #0
 8000faa:	bf08      	it	eq
 8000fac:	2800      	cmpeq	r0, #0
 8000fae:	bf1c      	itt	ne
 8000fb0:	f04f 31ff 	movne.w	r1, #4294967295
 8000fb4:	f04f 30ff 	movne.w	r0, #4294967295
 8000fb8:	f000 b96e 	b.w	8001298 <__aeabi_idiv0>
 8000fbc:	f1ad 0c08 	sub.w	ip, sp, #8
 8000fc0:	e96d ce04 	strd	ip, lr, [sp, #-16]!
 8000fc4:	f000 f806 	bl	8000fd4 <__udivmoddi4>
 8000fc8:	f8dd e004 	ldr.w	lr, [sp, #4]
 8000fcc:	e9dd 2302 	ldrd	r2, r3, [sp, #8]
 8000fd0:	b004      	add	sp, #16
 8000fd2:	4770      	bx	lr

08000fd4 <__udivmoddi4>:
 8000fd4:	e92d 47f0 	stmdb	sp!, {r4, r5, r6, r7, r8, r9, sl, lr}
 8000fd8:	9e08      	ldr	r6, [sp, #32]
 8000fda:	460d      	mov	r5, r1
 8000fdc:	4604      	mov	r4, r0
 8000fde:	468e      	mov	lr, r1
 8000fe0:	2b00      	cmp	r3, #0
 8000fe2:	f040 8083 	bne.w	80010ec <__udivmoddi4+0x118>
 8000fe6:	428a      	cmp	r2, r1
 8000fe8:	4617      	mov	r7, r2
 8000fea:	d947      	bls.n	800107c <__udivmoddi4+0xa8>
 8000fec:	fab2 f382 	clz	r3, r2
 8000ff0:	b14b      	cbz	r3, 8001006 <__udivmoddi4+0x32>
 8000ff2:	f1c3 0120 	rsb	r1, r3, #32
 8000ff6:	fa05 fe03 	lsl.w	lr, r5, r3
 8000ffa:	fa20 f101 	lsr.w	r1, r0, r1
 8000ffe:	409f      	lsls	r7, r3
 8001000:	ea41 0e0e 	orr.w	lr, r1, lr
 8001004:	409c      	lsls	r4, r3
 8001006:	ea4f 4817 	mov.w	r8, r7, lsr #16
 800100a:	fbbe fcf8 	udiv	ip, lr, r8
 800100e:	fa1f f987 	uxth.w	r9, r7
 8001012:	fb08 e21c 	mls	r2, r8, ip, lr
 8001016:	fb0c f009 	mul.w	r0, ip, r9
 800101a:	0c21      	lsrs	r1, r4, #16
 800101c:	ea41 4202 	orr.w	r2, r1, r2, lsl #16
 8001020:	4290      	cmp	r0, r2
 8001022:	d90a      	bls.n	800103a <__udivmoddi4+0x66>
 8001024:	18ba      	adds	r2, r7, r2
 8001026:	f10c 31ff 	add.w	r1, ip, #4294967295
 800102a:	f080 8118 	bcs.w	800125e <__udivmoddi4+0x28a>
 800102e:	4290      	cmp	r0, r2
 8001030:	f240 8115 	bls.w	800125e <__udivmoddi4+0x28a>
 8001034:	f1ac 0c02 	sub.w	ip, ip, #2
 8001038:	443a      	add	r2, r7
 800103a:	1a12      	subs	r2, r2, r0
 800103c:	fbb2 f0f8 	udiv	r0, r2, r8
 8001040:	fb08 2210 	mls	r2, r8, r0, r2
 8001044:	fb00 f109 	mul.w	r1, r0, r9
 8001048:	b2a4      	uxth	r4, r4
 800104a:	ea44 4402 	orr.w	r4, r4, r2, lsl #16
 800104e:	42a1      	cmp	r1, r4
 8001050:	d909      	bls.n	8001066 <__udivmoddi4+0x92>
 8001052:	193c      	adds	r4, r7, r4
 8001054:	f100 32ff 	add.w	r2, r0, #4294967295
 8001058:	f080 8103 	bcs.w	8001262 <__udivmoddi4+0x28e>
 800105c:	42a1      	cmp	r1, r4
 800105e:	f240 8100 	bls.w	8001262 <__udivmoddi4+0x28e>
 8001062:	3802      	subs	r0, #2
 8001064:	443c      	add	r4, r7
 8001066:	1a64      	subs	r4, r4, r1
 8001068:	2100      	movs	r1, #0
 800106a:	ea40 400c 	orr.w	r0, r0, ip, lsl #16
 800106e:	b11e      	cbz	r6, 8001078 <__udivmoddi4+0xa4>
 8001070:	2200      	movs	r2, #0
 8001072:	40dc      	lsrs	r4, r3
 8001074:	e9c6 4200 	strd	r4, r2, [r6]
 8001078:	e8bd 87f0 	ldmia.w	sp!, {r4, r5, r6, r7, r8, r9, sl, pc}
 800107c:	b902      	cbnz	r2, 8001080 <__udivmoddi4+0xac>
 800107e:	deff      	udf	#255	; 0xff
 8001080:	fab2 f382 	clz	r3, r2
 8001084:	2b00      	cmp	r3, #0
 8001086:	d14f      	bne.n	8001128 <__udivmoddi4+0x154>
 8001088:	1a8d      	subs	r5, r1, r2
 800108a:	2101      	movs	r1, #1
 800108c:	ea4f 4e12 	mov.w	lr, r2, lsr #16
 8001090:	fa1f f882 	uxth.w	r8, r2
 8001094:	fbb5 fcfe 	udiv	ip, r5, lr
 8001098:	fb0e 551c 	mls	r5, lr, ip, r5
 800109c:	fb08 f00c 	mul.w	r0, r8, ip
 80010a0:	0c22      	lsrs	r2, r4, #16
 80010a2:	ea42 4505 	orr.w	r5, r2, r5, lsl #16
 80010a6:	42a8      	cmp	r0, r5
 80010a8:	d907      	bls.n	80010ba <__udivmoddi4+0xe6>
 80010aa:	197d      	adds	r5, r7, r5
 80010ac:	f10c 32ff 	add.w	r2, ip, #4294967295
 80010b0:	d202      	bcs.n	80010b8 <__udivmoddi4+0xe4>
 80010b2:	42a8      	cmp	r0, r5
 80010b4:	f200 80e9 	bhi.w	800128a <__udivmoddi4+0x2b6>
 80010b8:	4694      	mov	ip, r2
 80010ba:	1a2d      	subs	r5, r5, r0
 80010bc:	fbb5 f0fe 	udiv	r0, r5, lr
 80010c0:	fb0e 5510 	mls	r5, lr, r0, r5
 80010c4:	fb08 f800 	mul.w	r8, r8, r0
 80010c8:	b2a4      	uxth	r4, r4
 80010ca:	ea44 4405 	orr.w	r4, r4, r5, lsl #16
 80010ce:	45a0      	cmp	r8, r4
 80010d0:	d907      	bls.n	80010e2 <__udivmoddi4+0x10e>
 80010d2:	193c      	adds	r4, r7, r4
 80010d4:	f100 32ff 	add.w	r2, r0, #4294967295
 80010d8:	d202      	bcs.n	80010e0 <__udivmoddi4+0x10c>
 80010da:	45a0      	cmp	r8, r4
 80010dc:	f200 80d9 	bhi.w	8001292 <__udivmoddi4+0x2be>
 80010e0:	4610      	mov	r0, r2
 80010e2:	eba4 0408 	sub.w	r4, r4, r8
 80010e6:	ea40 400c 	orr.w	r0, r0, ip, lsl #16
 80010ea:	e7c0      	b.n	800106e <__udivmoddi4+0x9a>
 80010ec:	428b      	cmp	r3, r1
 80010ee:	d908      	bls.n	8001102 <__udivmoddi4+0x12e>
 80010f0:	2e00      	cmp	r6, #0
 80010f2:	f000 80b1 	beq.w	8001258 <__udivmoddi4+0x284>
 80010f6:	2100      	movs	r1, #0
 80010f8:	e9c6 0500 	strd	r0, r5, [r6]
 80010fc:	4608      	mov	r0, r1
 80010fe:	e8bd 87f0 	ldmia.w	sp!, {r4, r5, r6, r7, r8, r9, sl, pc}
 8001102:	fab3 f183 	clz	r1, r3
 8001106:	2900      	cmp	r1, #0
 8001108:	d14b      	bne.n	80011a2 <__udivmoddi4+0x1ce>
 800110a:	42ab      	cmp	r3, r5
 800110c:	d302      	bcc.n	8001114 <__udivmoddi4+0x140>
 800110e:	4282      	cmp	r2, r0
 8001110:	f200 80b9 	bhi.w	8001286 <__udivmoddi4+0x2b2>
 8001114:	1a84      	subs	r4, r0, r2
 8001116:	eb65 0303 	sbc.w	r3, r5, r3
 800111a:	2001      	movs	r0, #1
 800111c:	469e      	mov	lr, r3
 800111e:	2e00      	cmp	r6, #0
 8001120:	d0aa      	beq.n	8001078 <__udivmoddi4+0xa4>
 8001122:	e9c6 4e00 	strd	r4, lr, [r6]
 8001126:	e7a7      	b.n	8001078 <__udivmoddi4+0xa4>
 8001128:	409f      	lsls	r7, r3
 800112a:	f1c3 0220 	rsb	r2, r3, #32
 800112e:	40d1      	lsrs	r1, r2
 8001130:	ea4f 4e17 	mov.w	lr, r7, lsr #16
 8001134:	fbb1 f0fe 	udiv	r0, r1, lr
 8001138:	fa1f f887 	uxth.w	r8, r7
 800113c:	fb0e 1110 	mls	r1, lr, r0, r1
 8001140:	fa24 f202 	lsr.w	r2, r4, r2
 8001144:	409d      	lsls	r5, r3
 8001146:	fb00 fc08 	mul.w	ip, r0, r8
 800114a:	432a      	orrs	r2, r5
 800114c:	0c15      	lsrs	r5, r2, #16
 800114e:	ea45 4501 	orr.w	r5, r5, r1, lsl #16
 8001152:	45ac      	cmp	ip, r5
 8001154:	fa04 f403 	lsl.w	r4, r4, r3
 8001158:	d909      	bls.n	800116e <__udivmoddi4+0x19a>
 800115a:	197d      	adds	r5, r7, r5
 800115c:	f100 31ff 	add.w	r1, r0, #4294967295
 8001160:	f080 808f 	bcs.w	8001282 <__udivmoddi4+0x2ae>
 8001164:	45ac      	cmp	ip, r5
 8001166:	f240 808c 	bls.w	8001282 <__udivmoddi4+0x2ae>
 800116a:	3802      	subs	r0, #2
 800116c:	443d      	add	r5, r7
 800116e:	eba5 050c 	sub.w	r5, r5, ip
 8001172:	fbb5 f1fe 	udiv	r1, r5, lr
 8001176:	fb0e 5c11 	mls	ip, lr, r1, r5
 800117a:	fb01 f908 	mul.w	r9, r1, r8
 800117e:	b295      	uxth	r5, r2
 8001180:	ea45 450c 	orr.w	r5, r5, ip, lsl #16
 8001184:	45a9      	cmp	r9, r5
 8001186:	d907      	bls.n	8001198 <__udivmoddi4+0x1c4>
 8001188:	197d      	adds	r5, r7, r5
 800118a:	f101 32ff 	add.w	r2, r1, #4294967295
 800118e:	d274      	bcs.n	800127a <__udivmoddi4+0x2a6>
 8001190:	45a9      	cmp	r9, r5
 8001192:	d972      	bls.n	800127a <__udivmoddi4+0x2a6>
 8001194:	3902      	subs	r1, #2
 8001196:	443d      	add	r5, r7
 8001198:	eba5 0509 	sub.w	r5, r5, r9
 800119c:	ea41 4100 	orr.w	r1, r1, r0, lsl #16
 80011a0:	e778      	b.n	8001094 <__udivmoddi4+0xc0>
 80011a2:	f1c1 0720 	rsb	r7, r1, #32
 80011a6:	408b      	lsls	r3, r1
 80011a8:	fa22 fc07 	lsr.w	ip, r2, r7
 80011ac:	ea4c 0c03 	orr.w	ip, ip, r3
 80011b0:	fa25 f407 	lsr.w	r4, r5, r7
 80011b4:	ea4f 4e1c 	mov.w	lr, ip, lsr #16
 80011b8:	fbb4 f9fe 	udiv	r9, r4, lr
 80011bc:	fa1f f88c 	uxth.w	r8, ip
 80011c0:	fb0e 4419 	mls	r4, lr, r9, r4
 80011c4:	fa20 f307 	lsr.w	r3, r0, r7
 80011c8:	fb09 fa08 	mul.w	sl, r9, r8
 80011cc:	408d      	lsls	r5, r1
 80011ce:	431d      	orrs	r5, r3
 80011d0:	0c2b      	lsrs	r3, r5, #16
 80011d2:	ea43 4404 	orr.w	r4, r3, r4, lsl #16
 80011d6:	45a2      	cmp	sl, r4
 80011d8:	fa02 f201 	lsl.w	r2, r2, r1
 80011dc:	fa00 f301 	lsl.w	r3, r0, r1
 80011e0:	d909      	bls.n	80011f6 <__udivmoddi4+0x222>
 80011e2:	eb1c 0404 	adds.w	r4, ip, r4
 80011e6:	f109 30ff 	add.w	r0, r9, #4294967295
 80011ea:	d248      	bcs.n	800127e <__udivmoddi4+0x2aa>
 80011ec:	45a2      	cmp	sl, r4
 80011ee:	d946      	bls.n	800127e <__udivmoddi4+0x2aa>
 80011f0:	f1a9 0902 	sub.w	r9, r9, #2
 80011f4:	4464      	add	r4, ip
 80011f6:	eba4 040a 	sub.w	r4, r4, sl
 80011fa:	fbb4 f0fe 	udiv	r0, r4, lr
 80011fe:	fb0e 4410 	mls	r4, lr, r0, r4
 8001202:	fb00 fa08 	mul.w	sl, r0, r8
 8001206:	b2ad      	uxth	r5, r5
 8001208:	ea45 4404 	orr.w	r4, r5, r4, lsl #16
 800120c:	45a2      	cmp	sl, r4
 800120e:	d908      	bls.n	8001222 <__udivmoddi4+0x24e>
 8001210:	eb1c 0404 	adds.w	r4, ip, r4
 8001214:	f100 35ff 	add.w	r5, r0, #4294967295
 8001218:	d22d      	bcs.n	8001276 <__udivmoddi4+0x2a2>
 800121a:	45a2      	cmp	sl, r4
 800121c:	d92b      	bls.n	8001276 <__udivmoddi4+0x2a2>
 800121e:	3802      	subs	r0, #2
 8001220:	4464      	add	r4, ip
 8001222:	ea40 4009 	orr.w	r0, r0, r9, lsl #16
 8001226:	fba0 8902 	umull	r8, r9, r0, r2
 800122a:	eba4 040a 	sub.w	r4, r4, sl
 800122e:	454c      	cmp	r4, r9
 8001230:	46c6      	mov	lr, r8
 8001232:	464d      	mov	r5, r9
 8001234:	d319      	bcc.n	800126a <__udivmoddi4+0x296>
 8001236:	d016      	beq.n	8001266 <__udivmoddi4+0x292>
 8001238:	b15e      	cbz	r6, 8001252 <__udivmoddi4+0x27e>
 800123a:	ebb3 020e 	subs.w	r2, r3, lr
 800123e:	eb64 0405 	sbc.w	r4, r4, r5
 8001242:	fa04 f707 	lsl.w	r7, r4, r7
 8001246:	fa22 f301 	lsr.w	r3, r2, r1
 800124a:	431f      	orrs	r7, r3
 800124c:	40cc      	lsrs	r4, r1
 800124e:	e9c6 7400 	strd	r7, r4, [r6]
 8001252:	2100      	movs	r1, #0
 8001254:	e8bd 87f0 	ldmia.w	sp!, {r4, r5, r6, r7, r8, r9, sl, pc}
 8001258:	4631      	mov	r1, r6
 800125a:	4630      	mov	r0, r6
 800125c:	e70c      	b.n	8001078 <__udivmoddi4+0xa4>
 800125e:	468c      	mov	ip, r1
 8001260:	e6eb      	b.n	800103a <__udivmoddi4+0x66>
 8001262:	4610      	mov	r0, r2
 8001264:	e6ff      	b.n	8001066 <__udivmoddi4+0x92>
 8001266:	4543      	cmp	r3, r8
 8001268:	d2e6      	bcs.n	8001238 <__udivmoddi4+0x264>
 800126a:	ebb8 0e02 	subs.w	lr, r8, r2
 800126e:	eb69 050c 	sbc.w	r5, r9, ip
 8001272:	3801      	subs	r0, #1
 8001274:	e7e0      	b.n	8001238 <__udivmoddi4+0x264>
 8001276:	4628      	mov	r0, r5
 8001278:	e7d3      	b.n	8001222 <__udivmoddi4+0x24e>
 800127a:	4611      	mov	r1, r2
 800127c:	e78c      	b.n	8001198 <__udivmoddi4+0x1c4>
 800127e:	4681      	mov	r9, r0
 8001280:	e7b9      	b.n	80011f6 <__udivmoddi4+0x222>
 8001282:	4608      	mov	r0, r1
 8001284:	e773      	b.n	800116e <__udivmoddi4+0x19a>
 8001286:	4608      	mov	r0, r1
 8001288:	e749      	b.n	800111e <__udivmoddi4+0x14a>
 800128a:	f1ac 0c02 	sub.w	ip, ip, #2
 800128e:	443d      	add	r5, r7
 8001290:	e713      	b.n	80010ba <__udivmoddi4+0xe6>
 8001292:	3802      	subs	r0, #2
 8001294:	443c      	add	r4, r7
 8001296:	e724      	b.n	80010e2 <__udivmoddi4+0x10e>

08001298 <__aeabi_idiv0>:
 8001298:	4770      	bx	lr
 800129a:	bf00      	nop

0800129c <_ZN3Pin7initPinEv>:
 800129c:	b510      	push	{r4, lr}
 800129e:	4604      	mov	r4, r0
 80012a0:	8bc1      	ldrh	r1, [r0, #30]
 80012a2:	2200      	movs	r2, #0
 80012a4:	6ac0      	ldr	r0, [r0, #44]	; 0x2c
 80012a6:	f002 febd 	bl	8004024 <HAL_GPIO_WritePin>
 80012aa:	8be3      	ldrh	r3, [r4, #30]
 80012ac:	6ae0      	ldr	r0, [r4, #44]	; 0x2c
 80012ae:	6323      	str	r3, [r4, #48]	; 0x30
 80012b0:	6a23      	ldr	r3, [r4, #32]
 80012b2:	f104 0130 	add.w	r1, r4, #48	; 0x30
 80012b6:	6363      	str	r3, [r4, #52]	; 0x34
 80012b8:	6a63      	ldr	r3, [r4, #36]	; 0x24
 80012ba:	63a3      	str	r3, [r4, #56]	; 0x38
 80012bc:	2302      	movs	r3, #2
 80012be:	63e3      	str	r3, [r4, #60]	; 0x3c
 80012c0:	e8bd 4010 	ldmia.w	sp!, {r4, lr}
 80012c4:	f002 bdc2 	b.w	8003e4c <HAL_GPIO_Init>

080012c8 <_ZN3Pin9configPinEv>:
 80012c8:	b570      	push	{r4, r5, r6, lr}
 80012ca:	4604      	mov	r4, r0
 80012cc:	b08a      	sub	sp, #40	; 0x28
 80012ce:	4e42      	ldr	r6, [pc, #264]	; (80013d8 <_ZN3Pin9configPinEv+0x110>)
 80012d0:	4842      	ldr	r0, [pc, #264]	; (80013dc <_ZN3Pin9configPinEv+0x114>)
 80012d2:	ad05      	add	r5, sp, #20
 80012d4:	f009 fb56 	bl	800a984 <puts>
 80012d8:	ce0f      	ldmia	r6!, {r0, r1, r2, r3}
 80012da:	c50f      	stmia	r5!, {r0, r1, r2, r3}
 80012dc:	6833      	ldr	r3, [r6, #0]
 80012de:	6822      	ldr	r2, [r4, #0]
 80012e0:	602b      	str	r3, [r5, #0]
 80012e2:	7813      	ldrb	r3, [r2, #0]
 80012e4:	2b50      	cmp	r3, #80	; 0x50
 80012e6:	d12a      	bne.n	800133e <_ZN3Pin9configPinEv+0x76>
 80012e8:	7851      	ldrb	r1, [r2, #1]
 80012ea:	483d      	ldr	r0, [pc, #244]	; (80013e0 <_ZN3Pin9configPinEv+0x118>)
 80012ec:	f1a1 0341 	sub.w	r3, r1, #65	; 0x41
 80012f0:	76a3      	strb	r3, [r4, #26]
 80012f2:	78d3      	ldrb	r3, [r2, #3]
 80012f4:	3b30      	subs	r3, #48	; 0x30
 80012f6:	b29b      	uxth	r3, r3
 80012f8:	83a3      	strh	r3, [r4, #28]
 80012fa:	7912      	ldrb	r2, [r2, #4]
 80012fc:	3a30      	subs	r2, #48	; 0x30
 80012fe:	b292      	uxth	r2, r2
 8001300:	2a08      	cmp	r2, #8
 8001302:	bf9e      	ittt	ls
 8001304:	eb03 0383 	addls.w	r3, r3, r3, lsl #2
 8001308:	eb02 0343 	addls.w	r3, r2, r3, lsl #1
 800130c:	83a3      	strhls	r3, [r4, #28]
 800130e:	2301      	movs	r3, #1
 8001310:	8ba2      	ldrh	r2, [r4, #28]
 8001312:	4093      	lsls	r3, r2
 8001314:	83e3      	strh	r3, [r4, #30]
 8001316:	f009 faaf 	bl	800a878 <iprintf>
 800131a:	8ba1      	ldrh	r1, [r4, #28]
 800131c:	4831      	ldr	r0, [pc, #196]	; (80013e4 <_ZN3Pin9configPinEv+0x11c>)
 800131e:	f009 faab 	bl	800a878 <iprintf>
 8001322:	7ea3      	ldrb	r3, [r4, #26]
 8001324:	aa0a      	add	r2, sp, #40	; 0x28
 8001326:	eb02 0283 	add.w	r2, r2, r3, lsl #2
 800132a:	f852 2c14 	ldr.w	r2, [r2, #-20]
 800132e:	62e2      	str	r2, [r4, #44]	; 0x2c
 8001330:	2b04      	cmp	r3, #4
 8001332:	d816      	bhi.n	8001362 <_ZN3Pin9configPinEv+0x9a>
 8001334:	e8df f003 	tbb	[pc, r3]
 8001338:	35281b09 	.word	0x35281b09
 800133c:	42          	.byte	0x42
 800133d:	00          	.byte	0x00
 800133e:	482a      	ldr	r0, [pc, #168]	; (80013e8 <_ZN3Pin9configPinEv+0x120>)
 8001340:	b00a      	add	sp, #40	; 0x28
 8001342:	e8bd 4070 	ldmia.w	sp!, {r4, r5, r6, lr}
 8001346:	f009 bb1d 	b.w	800a984 <puts>
 800134a:	2300      	movs	r3, #0
 800134c:	9300      	str	r3, [sp, #0]
 800134e:	4b27      	ldr	r3, [pc, #156]	; (80013ec <_ZN3Pin9configPinEv+0x124>)
 8001350:	6b1a      	ldr	r2, [r3, #48]	; 0x30
 8001352:	f042 0201 	orr.w	r2, r2, #1
 8001356:	631a      	str	r2, [r3, #48]	; 0x30
 8001358:	6b1b      	ldr	r3, [r3, #48]	; 0x30
 800135a:	f003 0301 	and.w	r3, r3, #1
 800135e:	9300      	str	r3, [sp, #0]
 8001360:	9b00      	ldr	r3, [sp, #0]
 8001362:	4620      	mov	r0, r4
 8001364:	b00a      	add	sp, #40	; 0x28
 8001366:	e8bd 4070 	ldmia.w	sp!, {r4, r5, r6, lr}
 800136a:	f7ff bf97 	b.w	800129c <_ZN3Pin7initPinEv>
 800136e:	2300      	movs	r3, #0
 8001370:	9301      	str	r3, [sp, #4]
 8001372:	4b1e      	ldr	r3, [pc, #120]	; (80013ec <_ZN3Pin9configPinEv+0x124>)
 8001374:	6b1a      	ldr	r2, [r3, #48]	; 0x30
 8001376:	f042 0202 	orr.w	r2, r2, #2
 800137a:	631a      	str	r2, [r3, #48]	; 0x30
 800137c:	6b1b      	ldr	r3, [r3, #48]	; 0x30
 800137e:	f003 0302 	and.w	r3, r3, #2
 8001382:	9301      	str	r3, [sp, #4]
 8001384:	9b01      	ldr	r3, [sp, #4]
 8001386:	e7ec      	b.n	8001362 <_ZN3Pin9configPinEv+0x9a>
 8001388:	2300      	movs	r3, #0
 800138a:	9302      	str	r3, [sp, #8]
 800138c:	4b17      	ldr	r3, [pc, #92]	; (80013ec <_ZN3Pin9configPinEv+0x124>)
 800138e:	6b1a      	ldr	r2, [r3, #48]	; 0x30
 8001390:	f042 0204 	orr.w	r2, r2, #4
 8001394:	631a      	str	r2, [r3, #48]	; 0x30
 8001396:	6b1b      	ldr	r3, [r3, #48]	; 0x30
 8001398:	f003 0304 	and.w	r3, r3, #4
 800139c:	9302      	str	r3, [sp, #8]
 800139e:	9b02      	ldr	r3, [sp, #8]
 80013a0:	e7df      	b.n	8001362 <_ZN3Pin9configPinEv+0x9a>
 80013a2:	2300      	movs	r3, #0
 80013a4:	9303      	str	r3, [sp, #12]
 80013a6:	4b11      	ldr	r3, [pc, #68]	; (80013ec <_ZN3Pin9configPinEv+0x124>)
 80013a8:	6b1a      	ldr	r2, [r3, #48]	; 0x30
 80013aa:	f042 0208 	orr.w	r2, r2, #8
 80013ae:	631a      	str	r2, [r3, #48]	; 0x30
 80013b0:	6b1b      	ldr	r3, [r3, #48]	; 0x30
 80013b2:	f003 0308 	and.w	r3, r3, #8
 80013b6:	9303      	str	r3, [sp, #12]
 80013b8:	9b03      	ldr	r3, [sp, #12]
 80013ba:	e7d2      	b.n	8001362 <_ZN3Pin9configPinEv+0x9a>
 80013bc:	2300      	movs	r3, #0
 80013be:	9304      	str	r3, [sp, #16]
 80013c0:	4b0a      	ldr	r3, [pc, #40]	; (80013ec <_ZN3Pin9configPinEv+0x124>)
 80013c2:	6b1a      	ldr	r2, [r3, #48]	; 0x30
 80013c4:	f042 0210 	orr.w	r2, r2, #16
 80013c8:	631a      	str	r2, [r3, #48]	; 0x30
 80013ca:	6b1b      	ldr	r3, [r3, #48]	; 0x30
 80013cc:	f003 0310 	and.w	r3, r3, #16
 80013d0:	9304      	str	r3, [sp, #16]
 80013d2:	9b04      	ldr	r3, [sp, #16]
 80013d4:	e7c5      	b.n	8001362 <_ZN3Pin9configPinEv+0x9a>
 80013d6:	bf00      	nop
 80013d8:	0800b76c 	.word	0x0800b76c
 80013dc:	0800b780 	.word	0x0800b780
 80013e0:	0800b78f 	.word	0x0800b78f
 80013e4:	0800b7a0 	.word	0x0800b7a0
 80013e8:	0800b7ac 	.word	0x0800b7ac
 80013ec:	40023800 	.word	0x40023800

080013f0 <_ZN3PinC1ENSt7__cxx1112basic_stringIcSt11char_traitsIcESaIcEEEi>:
 80013f0:	b538      	push	{r3, r4, r5, lr}
 80013f2:	4615      	mov	r5, r2
 80013f4:	4604      	mov	r4, r0
 80013f6:	b2ed      	uxtb	r5, r5
 80013f8:	f009 f8e8 	bl	800a5cc <_ZNSt7__cxx1112basic_stringIcSt11char_traitsIcESaIcEEC1ERKS4_>
 80013fc:	2214      	movs	r2, #20
 80013fe:	2100      	movs	r1, #0
 8001400:	7625      	strb	r5, [r4, #24]
 8001402:	f104 0030 	add.w	r0, r4, #48	; 0x30
 8001406:	f009 f989 	bl	800a71c <memset>
 800140a:	b935      	cbnz	r5, 800141a <_ZN3PinC1ENSt7__cxx1112basic_stringIcSt11char_traitsIcESaIcEEEi+0x2a>
 800140c:	e9c4 5508 	strd	r5, r5, [r4, #32]
 8001410:	4620      	mov	r0, r4
 8001412:	f7ff ff59 	bl	80012c8 <_ZN3Pin9configPinEv>
 8001416:	4620      	mov	r0, r4
 8001418:	bd38      	pop	{r3, r4, r5, pc}
 800141a:	2201      	movs	r2, #1
 800141c:	2300      	movs	r3, #0
 800141e:	e9c4 2308 	strd	r2, r3, [r4, #32]
 8001422:	e7f5      	b.n	8001410 <_ZN3PinC1ENSt7__cxx1112basic_stringIcSt11char_traitsIcESaIcEEEi+0x20>

08001424 <_ZN3PinC1ENSt7__cxx1112basic_stringIcSt11char_traitsIcESaIcEEEii>:
 8001424:	b570      	push	{r4, r5, r6, lr}
 8001426:	4616      	mov	r6, r2
 8001428:	461d      	mov	r5, r3
 800142a:	4604      	mov	r4, r0
 800142c:	b2f6      	uxtb	r6, r6
 800142e:	b2ed      	uxtb	r5, r5
 8001430:	f009 f8cc 	bl	800a5cc <_ZNSt7__cxx1112basic_stringIcSt11char_traitsIcESaIcEEC1ERKS4_>
 8001434:	2214      	movs	r2, #20
 8001436:	2100      	movs	r1, #0
 8001438:	7626      	strb	r6, [r4, #24]
 800143a:	7665      	strb	r5, [r4, #25]
 800143c:	f104 0030 	add.w	r0, r4, #48	; 0x30
 8001440:	f009 f96c 	bl	800a71c <memset>
 8001444:	b9de      	cbnz	r6, 800147e <_ZN3PinC1ENSt7__cxx1112basic_stringIcSt11char_traitsIcESaIcEEEii+0x5a>
 8001446:	6226      	str	r6, [r4, #32]
 8001448:	2d04      	cmp	r5, #4
 800144a:	d809      	bhi.n	8001460 <_ZN3PinC1ENSt7__cxx1112basic_stringIcSt11char_traitsIcESaIcEEEii+0x3c>
 800144c:	e8df f005 	tbb	[pc, r5]
 8001450:	0d030812 	.word	0x0d030812
 8001454:	12          	.byte	0x12
 8001455:	00          	.byte	0x00
 8001456:	480b      	ldr	r0, [pc, #44]	; (8001484 <_ZN3PinC1ENSt7__cxx1112basic_stringIcSt11char_traitsIcESaIcEEEii+0x60>)
 8001458:	f009 fa94 	bl	800a984 <puts>
 800145c:	2301      	movs	r3, #1
 800145e:	6263      	str	r3, [r4, #36]	; 0x24
 8001460:	4620      	mov	r0, r4
 8001462:	f7ff ff31 	bl	80012c8 <_ZN3Pin9configPinEv>
 8001466:	4620      	mov	r0, r4
 8001468:	bd70      	pop	{r4, r5, r6, pc}
 800146a:	4807      	ldr	r0, [pc, #28]	; (8001488 <_ZN3PinC1ENSt7__cxx1112basic_stringIcSt11char_traitsIcESaIcEEEii+0x64>)
 800146c:	f009 fa8a 	bl	800a984 <puts>
 8001470:	2302      	movs	r3, #2
 8001472:	e7f4      	b.n	800145e <_ZN3PinC1ENSt7__cxx1112basic_stringIcSt11char_traitsIcESaIcEEEii+0x3a>
 8001474:	4805      	ldr	r0, [pc, #20]	; (800148c <_ZN3PinC1ENSt7__cxx1112basic_stringIcSt11char_traitsIcESaIcEEEii+0x68>)
 8001476:	f009 fa85 	bl	800a984 <puts>
 800147a:	2300      	movs	r3, #0
 800147c:	e7ef      	b.n	800145e <_ZN3PinC1ENSt7__cxx1112basic_stringIcSt11char_traitsIcESaIcEEEii+0x3a>
 800147e:	2301      	movs	r3, #1
 8001480:	6223      	str	r3, [r4, #32]
 8001482:	e7fa      	b.n	800147a <_ZN3PinC1ENSt7__cxx1112basic_stringIcSt11char_traitsIcESaIcEEEii+0x56>
 8001484:	0800b7ce 	.word	0x0800b7ce
 8001488:	0800b7e7 	.word	0x0800b7e7
 800148c:	0800b802 	.word	0x0800b802

08001490 <_ZN9InterruptC1Ev>:
 8001490:	4b01      	ldr	r3, [pc, #4]	; (8001498 <_ZN9InterruptC1Ev+0x8>)
 8001492:	6003      	str	r3, [r0, #0]
 8001494:	4770      	bx	lr
 8001496:	bf00      	nop
 8001498:	0800b854 	.word	0x0800b854

0800149c <_ZN9Interrupt8RegisterEiPS_>:
 800149c:	b538      	push	{r3, r4, r5, lr}
 800149e:	4604      	mov	r4, r0
 80014a0:	460d      	mov	r5, r1
 80014a2:	4601      	mov	r1, r0
 80014a4:	4803      	ldr	r0, [pc, #12]	; (80014b4 <_ZN9Interrupt8RegisterEiPS_+0x18>)
 80014a6:	f009 f9e7 	bl	800a878 <iprintf>
 80014aa:	4b03      	ldr	r3, [pc, #12]	; (80014b8 <_ZN9Interrupt8RegisterEiPS_+0x1c>)
 80014ac:	f843 5024 	str.w	r5, [r3, r4, lsl #2]
 80014b0:	bd38      	pop	{r3, r4, r5, pc}
 80014b2:	bf00      	nop
 80014b4:	0800b81b 	.word	0x0800b81b
 80014b8:	2000009c 	.word	0x2000009c

080014bc <_ZN9Interrupt12TIM1_WrapperEv>:
 80014bc:	4b02      	ldr	r3, [pc, #8]	; (80014c8 <_ZN9Interrupt12TIM1_WrapperEv+0xc>)
 80014be:	6e58      	ldr	r0, [r3, #100]	; 0x64
 80014c0:	6803      	ldr	r3, [r0, #0]
 80014c2:	681b      	ldr	r3, [r3, #0]
 80014c4:	4718      	bx	r3
 80014c6:	bf00      	nop
 80014c8:	2000009c 	.word	0x2000009c

080014cc <_ZN9Interrupt12TIM2_WrapperEv>:
 80014cc:	4b02      	ldr	r3, [pc, #8]	; (80014d8 <_ZN9Interrupt12TIM2_WrapperEv+0xc>)
 80014ce:	6f18      	ldr	r0, [r3, #112]	; 0x70
 80014d0:	6803      	ldr	r3, [r0, #0]
 80014d2:	681b      	ldr	r3, [r3, #0]
 80014d4:	4718      	bx	r3
 80014d6:	bf00      	nop
 80014d8:	2000009c 	.word	0x2000009c

080014dc <_ZN9Interrupt20DMA2_Stream2_WrapperEv>:
 80014dc:	4b02      	ldr	r3, [pc, #8]	; (80014e8 <_ZN9Interrupt20DMA2_Stream2_WrapperEv+0xc>)
 80014de:	f8d3 00e8 	ldr.w	r0, [r3, #232]	; 0xe8
 80014e2:	6803      	ldr	r3, [r0, #0]
 80014e4:	681b      	ldr	r3, [r3, #0]
 80014e6:	4718      	bx	r3
 80014e8:	2000009c 	.word	0x2000009c

080014ec <_Z17udp_data_callbackPvP7udp_pcbP4pbufPK8ip4_addrt>:
 80014ec:	e92d 43f8 	stmdb	sp!, {r3, r4, r5, r6, r7, r8, r9, lr}
 80014f0:	4615      	mov	r5, r2
 80014f2:	4c2f      	ldr	r4, [pc, #188]	; (80015b0 <_Z17udp_data_callbackPvP7udp_pcbP4pbufPK8ip4_addrt+0xc4>)
 80014f4:	8952      	ldrh	r2, [r2, #10]
 80014f6:	460e      	mov	r6, r1
 80014f8:	4620      	mov	r0, r4
 80014fa:	6869      	ldr	r1, [r5, #4]
 80014fc:	461f      	mov	r7, r3
 80014fe:	f8bd 8020 	ldrh.w	r8, [sp, #32]
 8001502:	f009 f8e3 	bl	800a6cc <memcpy>
 8001506:	6823      	ldr	r3, [r4, #0]
 8001508:	4a2a      	ldr	r2, [pc, #168]	; (80015b4 <_Z17udp_data_callbackPvP7udp_pcbP4pbufPK8ip4_addrt+0xc8>)
 800150a:	4293      	cmp	r3, r2
 800150c:	d12f      	bne.n	800156e <_Z17udp_data_callbackPvP7udp_pcbP4pbufPK8ip4_addrt+0x82>
 800150e:	482a      	ldr	r0, [pc, #168]	; (80015b8 <_Z17udp_data_callbackPvP7udp_pcbP4pbufPK8ip4_addrt+0xcc>)
 8001510:	7803      	ldrb	r3, [r0, #0]
 8001512:	2361      	movs	r3, #97	; 0x61
 8001514:	7003      	strb	r3, [r0, #0]
 8001516:	7842      	ldrb	r2, [r0, #1]
 8001518:	2274      	movs	r2, #116	; 0x74
 800151a:	7042      	strb	r2, [r0, #1]
 800151c:	7882      	ldrb	r2, [r0, #2]
 800151e:	7083      	strb	r3, [r0, #2]
 8001520:	78c3      	ldrb	r3, [r0, #3]
 8001522:	2364      	movs	r3, #100	; 0x64
 8001524:	70c3      	strb	r3, [r0, #3]
 8001526:	4b25      	ldr	r3, [pc, #148]	; (80015bc <_Z17udp_data_callbackPvP7udp_pcbP4pbufPK8ip4_addrt+0xd0>)
 8001528:	6818      	ldr	r0, [r3, #0]
 800152a:	f001 f90b 	bl	8002744 <_ZN11RemoraComms12dataReceivedEv>
 800152e:	2044      	movs	r0, #68	; 0x44
 8001530:	2200      	movs	r2, #0
 8001532:	b284      	uxth	r4, r0
 8001534:	4621      	mov	r1, r4
 8001536:	4610      	mov	r0, r2
 8001538:	f004 fb28 	bl	8005b8c <pbuf_alloc>
 800153c:	4681      	mov	r9, r0
 800153e:	4622      	mov	r2, r4
 8001540:	491d      	ldr	r1, [pc, #116]	; (80015b8 <_Z17udp_data_callbackPvP7udp_pcbP4pbufPK8ip4_addrt+0xcc>)
 8001542:	f004 fd93 	bl	800606c <pbuf_take>
 8001546:	4642      	mov	r2, r8
 8001548:	4639      	mov	r1, r7
 800154a:	4630      	mov	r0, r6
 800154c:	f007 fd2c 	bl	8008fa8 <udp_connect>
 8001550:	4649      	mov	r1, r9
 8001552:	4630      	mov	r0, r6
 8001554:	f007 fd1e 	bl	8008f94 <udp_send>
 8001558:	4630      	mov	r0, r6
 800155a:	f007 fd4d 	bl	8008ff8 <udp_disconnect>
 800155e:	4648      	mov	r0, r9
 8001560:	f004 fab0 	bl	8005ac4 <pbuf_free>
 8001564:	4628      	mov	r0, r5
 8001566:	e8bd 43f8 	ldmia.w	sp!, {r3, r4, r5, r6, r7, r8, r9, lr}
 800156a:	f004 baab 	b.w	8005ac4 <pbuf_free>
 800156e:	4a14      	ldr	r2, [pc, #80]	; (80015c0 <_Z17udp_data_callbackPvP7udp_pcbP4pbufPK8ip4_addrt+0xd4>)
 8001570:	4293      	cmp	r3, r2
 8001572:	d11a      	bne.n	80015aa <_Z17udp_data_callbackPvP7udp_pcbP4pbufPK8ip4_addrt+0xbe>
 8001574:	4810      	ldr	r0, [pc, #64]	; (80015b8 <_Z17udp_data_callbackPvP7udp_pcbP4pbufPK8ip4_addrt+0xcc>)
 8001576:	7803      	ldrb	r3, [r0, #0]
 8001578:	236e      	movs	r3, #110	; 0x6e
 800157a:	7003      	strb	r3, [r0, #0]
 800157c:	7843      	ldrb	r3, [r0, #1]
 800157e:	236b      	movs	r3, #107	; 0x6b
 8001580:	7043      	strb	r3, [r0, #1]
 8001582:	7883      	ldrb	r3, [r0, #2]
 8001584:	2363      	movs	r3, #99	; 0x63
 8001586:	7083      	strb	r3, [r0, #2]
 8001588:	78c3      	ldrb	r3, [r0, #3]
 800158a:	2361      	movs	r3, #97	; 0x61
 800158c:	70c3      	strb	r3, [r0, #3]
 800158e:	4b0b      	ldr	r3, [pc, #44]	; (80015bc <_Z17udp_data_callbackPvP7udp_pcbP4pbufPK8ip4_addrt+0xd0>)
 8001590:	6818      	ldr	r0, [r3, #0]
 8001592:	f001 f8d7 	bl	8002744 <_ZN11RemoraComms12dataReceivedEv>
 8001596:	2300      	movs	r3, #0
 8001598:	4a0a      	ldr	r2, [pc, #40]	; (80015c4 <_Z17udp_data_callbackPvP7udp_pcbP4pbufPK8ip4_addrt+0xd8>)
 800159a:	f814 1b01 	ldrb.w	r1, [r4], #1
 800159e:	54d1      	strb	r1, [r2, r3]
 80015a0:	3301      	adds	r3, #1
 80015a2:	2b44      	cmp	r3, #68	; 0x44
 80015a4:	d1f9      	bne.n	800159a <_Z17udp_data_callbackPvP7udp_pcbP4pbufPK8ip4_addrt+0xae>
 80015a6:	2004      	movs	r0, #4
 80015a8:	e7c2      	b.n	8001530 <_Z17udp_data_callbackPvP7udp_pcbP4pbufPK8ip4_addrt+0x44>
 80015aa:	2000      	movs	r0, #0
 80015ac:	e7c0      	b.n	8001530 <_Z17udp_data_callbackPvP7udp_pcbP4pbufPK8ip4_addrt+0x44>
 80015ae:	bf00      	nop
 80015b0:	20000304 	.word	0x20000304
 80015b4:	72656164 	.word	0x72656164
 80015b8:	20000391 	.word	0x20000391
 80015bc:	200001e4 	.word	0x200001e4
 80015c0:	77726974 	.word	0x77726974
 80015c4:	20000348 	.word	0x20000348

080015c8 <_Z16udp_mpg_callbackPvP7udp_pcbP4pbufPK8ip4_addrt>:
 80015c8:	b570      	push	{r4, r5, r6, lr}
 80015ca:	4614      	mov	r4, r2
 80015cc:	4d0a      	ldr	r5, [pc, #40]	; (80015f8 <_Z16udp_mpg_callbackPvP7udp_pcbP4pbufPK8ip4_addrt+0x30>)
 80015ce:	8952      	ldrh	r2, [r2, #10]
 80015d0:	6861      	ldr	r1, [r4, #4]
 80015d2:	4628      	mov	r0, r5
 80015d4:	f009 f87a 	bl	800a6cc <memcpy>
 80015d8:	4620      	mov	r0, r4
 80015da:	f004 fa73 	bl	8005ac4 <pbuf_free>
 80015de:	682a      	ldr	r2, [r5, #0]
 80015e0:	4b06      	ldr	r3, [pc, #24]	; (80015fc <_Z16udp_mpg_callbackPvP7udp_pcbP4pbufPK8ip4_addrt+0x34>)
 80015e2:	429a      	cmp	r2, r3
 80015e4:	d106      	bne.n	80015f4 <_Z16udp_mpg_callbackPvP7udp_pcbP4pbufPK8ip4_addrt+0x2c>
 80015e6:	e8bd 4070 	ldmia.w	sp!, {r4, r5, r6, lr}
 80015ea:	4b05      	ldr	r3, [pc, #20]	; (8001600 <_Z16udp_mpg_callbackPvP7udp_pcbP4pbufPK8ip4_addrt+0x38>)
 80015ec:	6818      	ldr	r0, [r3, #0]
 80015ee:	6803      	ldr	r3, [r0, #0]
 80015f0:	695b      	ldr	r3, [r3, #20]
 80015f2:	4718      	bx	r3
 80015f4:	bd70      	pop	{r4, r5, r6, pc}
 80015f6:	bf00      	nop
 80015f8:	20000260 	.word	0x20000260
 80015fc:	6d706764 	.word	0x6d706764
 8001600:	200001dc 	.word	0x200001dc

08001604 <_ZNSt7__cxx1112basic_stringIcSt11char_traitsIcESaIcEEC2EPKcRKS3_.isra.0>:
 8001604:	f100 0308 	add.w	r3, r0, #8
 8001608:	b573      	push	{r0, r1, r4, r5, r6, lr}
 800160a:	6003      	str	r3, [r0, #0]
 800160c:	4604      	mov	r4, r0
 800160e:	4608      	mov	r0, r1
 8001610:	460d      	mov	r5, r1
 8001612:	f7fe fdd7 	bl	80001c4 <strlen>
 8001616:	280f      	cmp	r0, #15
 8001618:	eb05 0600 	add.w	r6, r5, r0
 800161c:	9001      	str	r0, [sp, #4]
 800161e:	d907      	bls.n	8001630 <_ZNSt7__cxx1112basic_stringIcSt11char_traitsIcESaIcEEC2EPKcRKS3_.isra.0+0x2c>
 8001620:	2200      	movs	r2, #0
 8001622:	4620      	mov	r0, r4
 8001624:	a901      	add	r1, sp, #4
 8001626:	f008 ff6f 	bl	800a508 <_ZNSt7__cxx1112basic_stringIcSt11char_traitsIcESaIcEE9_M_createERjj>
 800162a:	9b01      	ldr	r3, [sp, #4]
 800162c:	6020      	str	r0, [r4, #0]
 800162e:	60a3      	str	r3, [r4, #8]
 8001630:	4632      	mov	r2, r6
 8001632:	4629      	mov	r1, r5
 8001634:	6820      	ldr	r0, [r4, #0]
 8001636:	f008 ff9f 	bl	800a578 <_ZNSt7__cxx1112basic_stringIcSt11char_traitsIcESaIcEE13_S_copy_charsEPcPKcS7_>
 800163a:	2100      	movs	r1, #0
 800163c:	4620      	mov	r0, r4
 800163e:	9b01      	ldr	r3, [sp, #4]
 8001640:	6822      	ldr	r2, [r4, #0]
 8001642:	6063      	str	r3, [r4, #4]
 8001644:	54d1      	strb	r1, [r2, r3]
 8001646:	b002      	add	sp, #8
 8001648:	bd70      	pop	{r4, r5, r6, pc}
	...

0800164c <TIM1_UP_TIM10_IRQHandler>:
 800164c:	4b05      	ldr	r3, [pc, #20]	; (8001664 <TIM1_UP_TIM10_IRQHandler+0x18>)
 800164e:	691a      	ldr	r2, [r3, #16]
 8001650:	07d2      	lsls	r2, r2, #31
 8001652:	d505      	bpl.n	8001660 <TIM1_UP_TIM10_IRQHandler+0x14>
 8001654:	691a      	ldr	r2, [r3, #16]
 8001656:	f022 0201 	bic.w	r2, r2, #1
 800165a:	611a      	str	r2, [r3, #16]
 800165c:	f7ff bf2e 	b.w	80014bc <_ZN9Interrupt12TIM1_WrapperEv>
 8001660:	4770      	bx	lr
 8001662:	bf00      	nop
 8001664:	40010000 	.word	0x40010000

08001668 <TIM2_IRQHandler>:
 8001668:	f04f 4380 	mov.w	r3, #1073741824	; 0x40000000
 800166c:	691a      	ldr	r2, [r3, #16]
 800166e:	07d2      	lsls	r2, r2, #31
 8001670:	d505      	bpl.n	800167e <TIM2_IRQHandler+0x16>
 8001672:	691a      	ldr	r2, [r3, #16]
 8001674:	f022 0201 	bic.w	r2, r2, #1
 8001678:	611a      	str	r2, [r3, #16]
 800167a:	f7ff bf27 	b.w	80014cc <_ZN9Interrupt12TIM2_WrapperEv>
 800167e:	4770      	bx	lr

08001680 <DMA2_Stream2_IRQHandler>:
 8001680:	f7ff bf2c 	b.w	80014dc <_ZN9Interrupt20DMA2_Stream2_WrapperEv>

08001684 <_Z13createThreadsv>:
 8001684:	b538      	push	{r3, r4, r5, lr}
 8001686:	2030      	movs	r0, #48	; 0x30
 8001688:	f008 ff1c 	bl	800a4c4 <_Znwj>
 800168c:	4604      	mov	r4, r0
 800168e:	2219      	movs	r2, #25
 8001690:	490d      	ldr	r1, [pc, #52]	; (80016c8 <_Z13createThreadsv+0x44>)
 8001692:	f649 4340 	movw	r3, #40000	; 0x9c40
 8001696:	f001 fbe9 	bl	8002e6c <_ZN9pruThreadC1EP11TIM_TypeDef9IRQn_Typem>
 800169a:	4b0c      	ldr	r3, [pc, #48]	; (80016cc <_Z13createThreadsv+0x48>)
 800169c:	4d0c      	ldr	r5, [pc, #48]	; (80016d0 <_Z13createThreadsv+0x4c>)
 800169e:	601c      	str	r4, [r3, #0]
 80016a0:	2320      	movs	r3, #32
 80016a2:	2030      	movs	r0, #48	; 0x30
 80016a4:	f885 3319 	strb.w	r3, [r5, #793]	; 0x319
 80016a8:	f008 ff0c 	bl	800a4c4 <_Znwj>
 80016ac:	4604      	mov	r4, r0
 80016ae:	f44f 737a 	mov.w	r3, #1000	; 0x3e8
 80016b2:	221c      	movs	r2, #28
 80016b4:	f04f 4180 	mov.w	r1, #1073741824	; 0x40000000
 80016b8:	f001 fbd8 	bl	8002e6c <_ZN9pruThreadC1EP11TIM_TypeDef9IRQn_Typem>
 80016bc:	4b05      	ldr	r3, [pc, #20]	; (80016d4 <_Z13createThreadsv+0x50>)
 80016be:	601c      	str	r4, [r3, #0]
 80016c0:	2330      	movs	r3, #48	; 0x30
 80016c2:	f885 331c 	strb.w	r3, [r5, #796]	; 0x31c
 80016c6:	bd38      	pop	{r3, r4, r5, pc}
 80016c8:	40010000 	.word	0x40010000
 80016cc:	200001e0 	.word	0x200001e0
 80016d0:	e000e100 	.word	0xe000e100
 80016d4:	2000038c 	.word	0x2000038c

080016d8 <__io_putchar>:
 80016d8:	b507      	push	{r0, r1, r2, lr}
 80016da:	f64f 73ff 	movw	r3, #65535	; 0xffff
 80016de:	9001      	str	r0, [sp, #4]
 80016e0:	2201      	movs	r2, #1
 80016e2:	a901      	add	r1, sp, #4
 80016e4:	4803      	ldr	r0, [pc, #12]	; (80016f4 <__io_putchar+0x1c>)
 80016e6:	f003 fa6b 	bl	8004bc0 <HAL_UART_Transmit>
 80016ea:	9801      	ldr	r0, [sp, #4]
 80016ec:	b003      	add	sp, #12
 80016ee:	f85d fb04 	ldr.w	pc, [sp], #4
 80016f2:	bf00      	nop
 80016f4:	2000021c 	.word	0x2000021c

080016f8 <_Z11loadModulesv>:
 80016f8:	e92d 4ff0 	stmdb	sp!, {r4, r5, r6, r7, r8, r9, sl, fp, lr}
 80016fc:	4dc6      	ldr	r5, [pc, #792]	; (8001a18 <_Z11loadModulesv+0x320>)
 80016fe:	f8df b36c 	ldr.w	fp, [pc, #876]	; 8001a6c <_Z11loadModulesv+0x374>
 8001702:	4fc6      	ldr	r7, [pc, #792]	; (8001a1c <_Z11loadModulesv+0x324>)
 8001704:	f105 033c 	add.w	r3, r5, #60	; 0x3c
 8001708:	4ac5      	ldr	r2, [pc, #788]	; (8001a20 <_Z11loadModulesv+0x328>)
 800170a:	f8cb 3000 	str.w	r3, [fp]
 800170e:	f107 033d 	add.w	r3, r7, #61	; 0x3d
 8001712:	6013      	str	r3, [r2, #0]
 8001714:	4bc3      	ldr	r3, [pc, #780]	; (8001a24 <_Z11loadModulesv+0x32c>)
 8001716:	b093      	sub	sp, #76	; 0x4c
 8001718:	f105 0240 	add.w	r2, r5, #64	; 0x40
 800171c:	2018      	movs	r0, #24
 800171e:	601a      	str	r2, [r3, #0]
 8001720:	f008 fed0 	bl	800a4c4 <_Znwj>
 8001724:	4604      	mov	r4, r0
 8001726:	f8df 9348 	ldr.w	r9, [pc, #840]	; 8001a70 <_Z11loadModulesv+0x378>
 800172a:	f000 fffb 	bl	8002724 <_ZN11RemoraCommsC1Ev>
 800172e:	4bbe      	ldr	r3, [pc, #760]	; (8001a28 <_Z11loadModulesv+0x330>)
 8001730:	4621      	mov	r1, r4
 8001732:	f8d9 0000 	ldr.w	r0, [r9]
 8001736:	601c      	str	r4, [r3, #0]
 8001738:	f001 fc38 	bl	8002fac <_ZN9pruThread14registerModuleEP6Module>
 800173c:	2100      	movs	r1, #0
 800173e:	48bb      	ldr	r0, [pc, #748]	; (8001a2c <_Z11loadModulesv+0x334>)
 8001740:	4ebb      	ldr	r6, [pc, #748]	; (8001a30 <_Z11loadModulesv+0x338>)
 8001742:	f8df 8330 	ldr.w	r8, [pc, #816]	; 8001a74 <_Z11loadModulesv+0x37c>
 8001746:	f009 f897 	bl	800a878 <iprintf>
 800174a:	49ba      	ldr	r1, [pc, #744]	; (8001a34 <_Z11loadModulesv+0x33c>)
 800174c:	1d3b      	adds	r3, r7, #4
 800174e:	4fba      	ldr	r7, [pc, #744]	; (8001a38 <_Z11loadModulesv+0x340>)
 8001750:	ac0c      	add	r4, sp, #48	; 0x30
 8001752:	6033      	str	r3, [r6, #0]
 8001754:	f8c8 1000 	str.w	r1, [r8]
 8001758:	1d2b      	adds	r3, r5, #4
 800175a:	49b8      	ldr	r1, [pc, #736]	; (8001a3c <_Z11loadModulesv+0x344>)
 800175c:	a806      	add	r0, sp, #24
 800175e:	603b      	str	r3, [r7, #0]
 8001760:	f7ff ff50 	bl	8001604 <_ZNSt7__cxx1112basic_stringIcSt11char_traitsIcESaIcEEC2EPKcRKS3_.isra.0>
 8001764:	49b6      	ldr	r1, [pc, #728]	; (8001a40 <_Z11loadModulesv+0x348>)
 8001766:	4620      	mov	r0, r4
 8001768:	f7ff ff4c 	bl	8001604 <_ZNSt7__cxx1112basic_stringIcSt11char_traitsIcESaIcEEC2EPKcRKS3_.isra.0>
 800176c:	207c      	movs	r0, #124	; 0x7c
 800176e:	f008 fea9 	bl	800a4c4 <_Znwj>
 8001772:	f8d8 3000 	ldr.w	r3, [r8]
 8001776:	4682      	mov	sl, r0
 8001778:	9304      	str	r3, [sp, #16]
 800177a:	683b      	ldr	r3, [r7, #0]
 800177c:	2200      	movs	r2, #0
 800177e:	9303      	str	r3, [sp, #12]
 8001780:	6833      	ldr	r3, [r6, #0]
 8001782:	f649 4140 	movw	r1, #40000	; 0x9c40
 8001786:	9302      	str	r3, [sp, #8]
 8001788:	2316      	movs	r3, #22
 800178a:	e9cd 4300 	strd	r4, r3, [sp]
 800178e:	ab06      	add	r3, sp, #24
 8001790:	4dac      	ldr	r5, [pc, #688]	; (8001a44 <_Z11loadModulesv+0x34c>)
 8001792:	f001 fabb 	bl	8002d0c <_ZN7StepgenC1EliNSt7__cxx1112basic_stringIcSt11char_traitsIcESaIcEEES5_iRVlS7_RVh>
 8001796:	4620      	mov	r0, r4
 8001798:	f008 fed8 	bl	800a54c <_ZNSt7__cxx1112basic_stringIcSt11char_traitsIcESaIcEE10_M_disposeEv>
 800179c:	a806      	add	r0, sp, #24
 800179e:	f008 fed5 	bl	800a54c <_ZNSt7__cxx1112basic_stringIcSt11char_traitsIcESaIcEE10_M_disposeEv>
 80017a2:	4651      	mov	r1, sl
 80017a4:	6828      	ldr	r0, [r5, #0]
 80017a6:	f001 fc01 	bl	8002fac <_ZN9pruThread14registerModuleEP6Module>
 80017aa:	4651      	mov	r1, sl
 80017ac:	6828      	ldr	r0, [r5, #0]
 80017ae:	f001 fc06 	bl	8002fbe <_ZN9pruThread18registerModulePostEP6Module>
 80017b2:	2101      	movs	r1, #1
 80017b4:	489d      	ldr	r0, [pc, #628]	; (8001a2c <_Z11loadModulesv+0x334>)
 80017b6:	f009 f85f 	bl	800a878 <iprintf>
 80017ba:	4a98      	ldr	r2, [pc, #608]	; (8001a1c <_Z11loadModulesv+0x324>)
 80017bc:	a806      	add	r0, sp, #24
 80017be:	f102 0308 	add.w	r3, r2, #8
 80017c2:	6073      	str	r3, [r6, #4]
 80017c4:	4b94      	ldr	r3, [pc, #592]	; (8001a18 <_Z11loadModulesv+0x320>)
 80017c6:	f102 013c 	add.w	r1, r2, #60	; 0x3c
 80017ca:	3308      	adds	r3, #8
 80017cc:	f8c8 1000 	str.w	r1, [r8]
 80017d0:	499d      	ldr	r1, [pc, #628]	; (8001a48 <_Z11loadModulesv+0x350>)
 80017d2:	607b      	str	r3, [r7, #4]
 80017d4:	f7ff ff16 	bl	8001604 <_ZNSt7__cxx1112basic_stringIcSt11char_traitsIcESaIcEEC2EPKcRKS3_.isra.0>
 80017d8:	499c      	ldr	r1, [pc, #624]	; (8001a4c <_Z11loadModulesv+0x354>)
 80017da:	4620      	mov	r0, r4
 80017dc:	f7ff ff12 	bl	8001604 <_ZNSt7__cxx1112basic_stringIcSt11char_traitsIcESaIcEEC2EPKcRKS3_.isra.0>
 80017e0:	207c      	movs	r0, #124	; 0x7c
 80017e2:	f008 fe6f 	bl	800a4c4 <_Znwj>
 80017e6:	f04f 0c16 	mov.w	ip, #22
 80017ea:	4682      	mov	sl, r0
 80017ec:	f8d8 3000 	ldr.w	r3, [r8]
 80017f0:	2201      	movs	r2, #1
 80017f2:	9304      	str	r3, [sp, #16]
 80017f4:	687b      	ldr	r3, [r7, #4]
 80017f6:	f649 4140 	movw	r1, #40000	; 0x9c40
 80017fa:	9303      	str	r3, [sp, #12]
 80017fc:	6873      	ldr	r3, [r6, #4]
 80017fe:	e9cd 4c00 	strd	r4, ip, [sp]
 8001802:	f10d 0c18 	add.w	ip, sp, #24
 8001806:	9302      	str	r3, [sp, #8]
 8001808:	4663      	mov	r3, ip
 800180a:	f001 fa7f 	bl	8002d0c <_ZN7StepgenC1EliNSt7__cxx1112basic_stringIcSt11char_traitsIcESaIcEEES5_iRVlS7_RVh>
 800180e:	4620      	mov	r0, r4
 8001810:	f008 fe9c 	bl	800a54c <_ZNSt7__cxx1112basic_stringIcSt11char_traitsIcESaIcEE10_M_disposeEv>
 8001814:	a806      	add	r0, sp, #24
 8001816:	f008 fe99 	bl	800a54c <_ZNSt7__cxx1112basic_stringIcSt11char_traitsIcESaIcEE10_M_disposeEv>
 800181a:	4651      	mov	r1, sl
 800181c:	6828      	ldr	r0, [r5, #0]
 800181e:	f001 fbc5 	bl	8002fac <_ZN9pruThread14registerModuleEP6Module>
 8001822:	4651      	mov	r1, sl
 8001824:	6828      	ldr	r0, [r5, #0]
 8001826:	f001 fbca 	bl	8002fbe <_ZN9pruThread18registerModulePostEP6Module>
 800182a:	2102      	movs	r1, #2
 800182c:	487f      	ldr	r0, [pc, #508]	; (8001a2c <_Z11loadModulesv+0x334>)
 800182e:	f009 f823 	bl	800a878 <iprintf>
 8001832:	4a7a      	ldr	r2, [pc, #488]	; (8001a1c <_Z11loadModulesv+0x324>)
 8001834:	a806      	add	r0, sp, #24
 8001836:	f102 030c 	add.w	r3, r2, #12
 800183a:	60b3      	str	r3, [r6, #8]
 800183c:	4b76      	ldr	r3, [pc, #472]	; (8001a18 <_Z11loadModulesv+0x320>)
 800183e:	f102 013c 	add.w	r1, r2, #60	; 0x3c
 8001842:	330c      	adds	r3, #12
 8001844:	f8c8 1000 	str.w	r1, [r8]
 8001848:	4981      	ldr	r1, [pc, #516]	; (8001a50 <_Z11loadModulesv+0x358>)
 800184a:	60bb      	str	r3, [r7, #8]
 800184c:	f7ff feda 	bl	8001604 <_ZNSt7__cxx1112basic_stringIcSt11char_traitsIcESaIcEEC2EPKcRKS3_.isra.0>
 8001850:	4980      	ldr	r1, [pc, #512]	; (8001a54 <_Z11loadModulesv+0x35c>)
 8001852:	4620      	mov	r0, r4
 8001854:	f7ff fed6 	bl	8001604 <_ZNSt7__cxx1112basic_stringIcSt11char_traitsIcESaIcEEC2EPKcRKS3_.isra.0>
 8001858:	207c      	movs	r0, #124	; 0x7c
 800185a:	f008 fe33 	bl	800a4c4 <_Znwj>
 800185e:	f04f 0c16 	mov.w	ip, #22
 8001862:	4682      	mov	sl, r0
 8001864:	f8d8 3000 	ldr.w	r3, [r8]
 8001868:	2202      	movs	r2, #2
 800186a:	9304      	str	r3, [sp, #16]
 800186c:	68bb      	ldr	r3, [r7, #8]
 800186e:	f649 4140 	movw	r1, #40000	; 0x9c40
 8001872:	9303      	str	r3, [sp, #12]
 8001874:	68b3      	ldr	r3, [r6, #8]
 8001876:	e9cd 4c00 	strd	r4, ip, [sp]
 800187a:	f10d 0c18 	add.w	ip, sp, #24
 800187e:	9302      	str	r3, [sp, #8]
 8001880:	4663      	mov	r3, ip
 8001882:	f001 fa43 	bl	8002d0c <_ZN7StepgenC1EliNSt7__cxx1112basic_stringIcSt11char_traitsIcESaIcEEES5_iRVlS7_RVh>
 8001886:	4620      	mov	r0, r4
 8001888:	f008 fe60 	bl	800a54c <_ZNSt7__cxx1112basic_stringIcSt11char_traitsIcESaIcEE10_M_disposeEv>
 800188c:	a806      	add	r0, sp, #24
 800188e:	f008 fe5d 	bl	800a54c <_ZNSt7__cxx1112basic_stringIcSt11char_traitsIcESaIcEE10_M_disposeEv>
 8001892:	4651      	mov	r1, sl
 8001894:	6828      	ldr	r0, [r5, #0]
 8001896:	f001 fb89 	bl	8002fac <_ZN9pruThread14registerModuleEP6Module>
 800189a:	4651      	mov	r1, sl
 800189c:	6828      	ldr	r0, [r5, #0]
 800189e:	f001 fb8e 	bl	8002fbe <_ZN9pruThread18registerModulePostEP6Module>
 80018a2:	2103      	movs	r1, #3
 80018a4:	4861      	ldr	r0, [pc, #388]	; (8001a2c <_Z11loadModulesv+0x334>)
 80018a6:	f008 ffe7 	bl	800a878 <iprintf>
 80018aa:	4a5c      	ldr	r2, [pc, #368]	; (8001a1c <_Z11loadModulesv+0x324>)
 80018ac:	a806      	add	r0, sp, #24
 80018ae:	f102 0310 	add.w	r3, r2, #16
 80018b2:	60f3      	str	r3, [r6, #12]
 80018b4:	4b58      	ldr	r3, [pc, #352]	; (8001a18 <_Z11loadModulesv+0x320>)
 80018b6:	f102 013c 	add.w	r1, r2, #60	; 0x3c
 80018ba:	3310      	adds	r3, #16
 80018bc:	f8c8 1000 	str.w	r1, [r8]
 80018c0:	4965      	ldr	r1, [pc, #404]	; (8001a58 <_Z11loadModulesv+0x360>)
 80018c2:	60fb      	str	r3, [r7, #12]
 80018c4:	f7ff fe9e 	bl	8001604 <_ZNSt7__cxx1112basic_stringIcSt11char_traitsIcESaIcEEC2EPKcRKS3_.isra.0>
 80018c8:	4964      	ldr	r1, [pc, #400]	; (8001a5c <_Z11loadModulesv+0x364>)
 80018ca:	4620      	mov	r0, r4
 80018cc:	f7ff fe9a 	bl	8001604 <_ZNSt7__cxx1112basic_stringIcSt11char_traitsIcESaIcEEC2EPKcRKS3_.isra.0>
 80018d0:	207c      	movs	r0, #124	; 0x7c
 80018d2:	f008 fdf7 	bl	800a4c4 <_Znwj>
 80018d6:	f04f 0c16 	mov.w	ip, #22
 80018da:	4682      	mov	sl, r0
 80018dc:	f8d8 3000 	ldr.w	r3, [r8]
 80018e0:	2203      	movs	r2, #3
 80018e2:	9304      	str	r3, [sp, #16]
 80018e4:	68fb      	ldr	r3, [r7, #12]
 80018e6:	f649 4140 	movw	r1, #40000	; 0x9c40
 80018ea:	9303      	str	r3, [sp, #12]
 80018ec:	68f3      	ldr	r3, [r6, #12]
 80018ee:	e9cd 4c00 	strd	r4, ip, [sp]
 80018f2:	f10d 0c18 	add.w	ip, sp, #24
 80018f6:	9302      	str	r3, [sp, #8]
 80018f8:	4663      	mov	r3, ip
 80018fa:	f001 fa07 	bl	8002d0c <_ZN7StepgenC1EliNSt7__cxx1112basic_stringIcSt11char_traitsIcESaIcEEES5_iRVlS7_RVh>
 80018fe:	4620      	mov	r0, r4
 8001900:	f008 fe24 	bl	800a54c <_ZNSt7__cxx1112basic_stringIcSt11char_traitsIcESaIcEE10_M_disposeEv>
 8001904:	a806      	add	r0, sp, #24
 8001906:	f008 fe21 	bl	800a54c <_ZNSt7__cxx1112basic_stringIcSt11char_traitsIcESaIcEE10_M_disposeEv>
 800190a:	4651      	mov	r1, sl
 800190c:	6828      	ldr	r0, [r5, #0]
 800190e:	f001 fb4d 	bl	8002fac <_ZN9pruThread14registerModuleEP6Module>
 8001912:	4651      	mov	r1, sl
 8001914:	6828      	ldr	r0, [r5, #0]
 8001916:	f001 fb52 	bl	8002fbe <_ZN9pruThread18registerModulePostEP6Module>
 800191a:	2104      	movs	r1, #4
 800191c:	4843      	ldr	r0, [pc, #268]	; (8001a2c <_Z11loadModulesv+0x334>)
 800191e:	f008 ffab 	bl	800a878 <iprintf>
 8001922:	4a3e      	ldr	r2, [pc, #248]	; (8001a1c <_Z11loadModulesv+0x324>)
 8001924:	a806      	add	r0, sp, #24
 8001926:	f102 0314 	add.w	r3, r2, #20
 800192a:	6133      	str	r3, [r6, #16]
 800192c:	4b3a      	ldr	r3, [pc, #232]	; (8001a18 <_Z11loadModulesv+0x320>)
 800192e:	f102 013c 	add.w	r1, r2, #60	; 0x3c
 8001932:	3314      	adds	r3, #20
 8001934:	f8c8 1000 	str.w	r1, [r8]
 8001938:	4949      	ldr	r1, [pc, #292]	; (8001a60 <_Z11loadModulesv+0x368>)
 800193a:	613b      	str	r3, [r7, #16]
 800193c:	f7ff fe62 	bl	8001604 <_ZNSt7__cxx1112basic_stringIcSt11char_traitsIcESaIcEEC2EPKcRKS3_.isra.0>
 8001940:	4948      	ldr	r1, [pc, #288]	; (8001a64 <_Z11loadModulesv+0x36c>)
 8001942:	4620      	mov	r0, r4
 8001944:	f7ff fe5e 	bl	8001604 <_ZNSt7__cxx1112basic_stringIcSt11char_traitsIcESaIcEEC2EPKcRKS3_.isra.0>
 8001948:	207c      	movs	r0, #124	; 0x7c
 800194a:	f008 fdbb 	bl	800a4c4 <_Znwj>
 800194e:	f04f 0c16 	mov.w	ip, #22
 8001952:	4682      	mov	sl, r0
 8001954:	f8d8 3000 	ldr.w	r3, [r8]
 8001958:	2204      	movs	r2, #4
 800195a:	9304      	str	r3, [sp, #16]
 800195c:	693b      	ldr	r3, [r7, #16]
 800195e:	f649 4140 	movw	r1, #40000	; 0x9c40
 8001962:	9303      	str	r3, [sp, #12]
 8001964:	6933      	ldr	r3, [r6, #16]
 8001966:	e9cd 4c00 	strd	r4, ip, [sp]
 800196a:	f10d 0c18 	add.w	ip, sp, #24
 800196e:	9302      	str	r3, [sp, #8]
 8001970:	4663      	mov	r3, ip
 8001972:	f001 f9cb 	bl	8002d0c <_ZN7StepgenC1EliNSt7__cxx1112basic_stringIcSt11char_traitsIcESaIcEEES5_iRVlS7_RVh>
 8001976:	4620      	mov	r0, r4
 8001978:	f008 fde8 	bl	800a54c <_ZNSt7__cxx1112basic_stringIcSt11char_traitsIcESaIcEE10_M_disposeEv>
 800197c:	a806      	add	r0, sp, #24
 800197e:	f008 fde5 	bl	800a54c <_ZNSt7__cxx1112basic_stringIcSt11char_traitsIcESaIcEE10_M_disposeEv>
 8001982:	4651      	mov	r1, sl
 8001984:	6828      	ldr	r0, [r5, #0]
 8001986:	f001 fb11 	bl	8002fac <_ZN9pruThread14registerModuleEP6Module>
 800198a:	4651      	mov	r1, sl
 800198c:	6828      	ldr	r0, [r5, #0]
 800198e:	f001 fb16 	bl	8002fbe <_ZN9pruThread18registerModulePostEP6Module>
 8001992:	2105      	movs	r1, #5
 8001994:	4825      	ldr	r0, [pc, #148]	; (8001a2c <_Z11loadModulesv+0x334>)
 8001996:	f008 ff6f 	bl	800a878 <iprintf>
 800199a:	4a20      	ldr	r2, [pc, #128]	; (8001a1c <_Z11loadModulesv+0x324>)
 800199c:	a806      	add	r0, sp, #24
 800199e:	f102 0318 	add.w	r3, r2, #24
 80019a2:	6173      	str	r3, [r6, #20]
 80019a4:	4b1c      	ldr	r3, [pc, #112]	; (8001a18 <_Z11loadModulesv+0x320>)
 80019a6:	f102 013c 	add.w	r1, r2, #60	; 0x3c
 80019aa:	3318      	adds	r3, #24
 80019ac:	f8c8 1000 	str.w	r1, [r8]
 80019b0:	4929      	ldr	r1, [pc, #164]	; (8001a58 <_Z11loadModulesv+0x360>)
 80019b2:	617b      	str	r3, [r7, #20]
 80019b4:	f7ff fe26 	bl	8001604 <_ZNSt7__cxx1112basic_stringIcSt11char_traitsIcESaIcEEC2EPKcRKS3_.isra.0>
 80019b8:	4928      	ldr	r1, [pc, #160]	; (8001a5c <_Z11loadModulesv+0x364>)
 80019ba:	4620      	mov	r0, r4
 80019bc:	f7ff fe22 	bl	8001604 <_ZNSt7__cxx1112basic_stringIcSt11char_traitsIcESaIcEEC2EPKcRKS3_.isra.0>
 80019c0:	207c      	movs	r0, #124	; 0x7c
 80019c2:	f008 fd7f 	bl	800a4c4 <_Znwj>
 80019c6:	f8d8 3000 	ldr.w	r3, [r8]
 80019ca:	4682      	mov	sl, r0
 80019cc:	9304      	str	r3, [sp, #16]
 80019ce:	697b      	ldr	r3, [r7, #20]
 80019d0:	2205      	movs	r2, #5
 80019d2:	9303      	str	r3, [sp, #12]
 80019d4:	6973      	ldr	r3, [r6, #20]
 80019d6:	f649 4140 	movw	r1, #40000	; 0x9c40
 80019da:	9302      	str	r3, [sp, #8]
 80019dc:	2316      	movs	r3, #22
 80019de:	e9cd 4300 	strd	r4, r3, [sp]
 80019e2:	ab06      	add	r3, sp, #24
 80019e4:	f001 f992 	bl	8002d0c <_ZN7StepgenC1EliNSt7__cxx1112basic_stringIcSt11char_traitsIcESaIcEEES5_iRVlS7_RVh>
 80019e8:	4620      	mov	r0, r4
 80019ea:	f008 fdaf 	bl	800a54c <_ZNSt7__cxx1112basic_stringIcSt11char_traitsIcESaIcEE10_M_disposeEv>
 80019ee:	a806      	add	r0, sp, #24
 80019f0:	f008 fdac 	bl	800a54c <_ZNSt7__cxx1112basic_stringIcSt11char_traitsIcESaIcEE10_M_disposeEv>
 80019f4:	4651      	mov	r1, sl
 80019f6:	6828      	ldr	r0, [r5, #0]
 80019f8:	f001 fad8 	bl	8002fac <_ZN9pruThread14registerModuleEP6Module>
 80019fc:	4651      	mov	r1, sl
 80019fe:	6828      	ldr	r0, [r5, #0]
 8001a00:	f001 fadd 	bl	8002fbe <_ZN9pruThread18registerModulePostEP6Module>
 8001a04:	4918      	ldr	r1, [pc, #96]	; (8001a68 <_Z11loadModulesv+0x370>)
 8001a06:	4620      	mov	r0, r4
 8001a08:	f7ff fdfc 	bl	8001604 <_ZNSt7__cxx1112basic_stringIcSt11char_traitsIcESaIcEEC2EPKcRKS3_.isra.0>
 8001a0c:	2048      	movs	r0, #72	; 0x48
 8001a0e:	f008 fd59 	bl	800a4c4 <_Znwj>
 8001a12:	2500      	movs	r5, #0
 8001a14:	2601      	movs	r6, #1
 8001a16:	e02f      	b.n	8001a78 <_Z11loadModulesv+0x380>
 8001a18:	20000391 	.word	0x20000391
 8001a1c:	20000348 	.word	0x20000348
 8001a20:	200002e8 	.word	0x200002e8
 8001a24:	200002e4 	.word	0x200002e4
 8001a28:	200001e4 	.word	0x200001e4
 8001a2c:	0800b858 	.word	0x0800b858
 8001a30:	200002c4 	.word	0x200002c4
 8001a34:	20000384 	.word	0x20000384
 8001a38:	200002a4 	.word	0x200002a4
 8001a3c:	0800b87d 	.word	0x0800b87d
 8001a40:	0800b883 	.word	0x0800b883
 8001a44:	200001e0 	.word	0x200001e0
 8001a48:	0800b889 	.word	0x0800b889
 8001a4c:	0800b88f 	.word	0x0800b88f
 8001a50:	0800b895 	.word	0x0800b895
 8001a54:	0800b89b 	.word	0x0800b89b
 8001a58:	0800b8a1 	.word	0x0800b8a1
 8001a5c:	0800b8a6 	.word	0x0800b8a6
 8001a60:	0800b8ab 	.word	0x0800b8ab
 8001a64:	0800b8b0 	.word	0x0800b8b0
 8001a68:	0800b8b5 	.word	0x0800b8b5
 8001a6c:	2000029c 	.word	0x2000029c
 8001a70:	2000038c 	.word	0x2000038c
 8001a74:	200002a0 	.word	0x200002a0
 8001a78:	4607      	mov	r7, r0
 8001a7a:	4623      	mov	r3, r4
 8001a7c:	462a      	mov	r2, r5
 8001a7e:	e9cd 6501 	strd	r6, r5, [sp, #4]
 8001a82:	f8db 1000 	ldr.w	r1, [fp]
 8001a86:	9500      	str	r5, [sp, #0]
 8001a88:	f000 feaa 	bl	80027e0 <_ZN10DigitalPinC1ERVmiNSt7__cxx1112basic_stringIcSt11char_traitsIcESaIcEEEibi>
 8001a8c:	4620      	mov	r0, r4
 8001a8e:	f008 fd5d 	bl	800a54c <_ZNSt7__cxx1112basic_stringIcSt11char_traitsIcESaIcEE10_M_disposeEv>
 8001a92:	4639      	mov	r1, r7
 8001a94:	f8d9 0000 	ldr.w	r0, [r9]
 8001a98:	f001 fa88 	bl	8002fac <_ZN9pruThread14registerModuleEP6Module>
 8001a9c:	49eb      	ldr	r1, [pc, #940]	; (8001e4c <_Z11loadModulesv+0x754>)
 8001a9e:	4620      	mov	r0, r4
 8001aa0:	f7ff fdb0 	bl	8001604 <_ZNSt7__cxx1112basic_stringIcSt11char_traitsIcESaIcEEC2EPKcRKS3_.isra.0>
 8001aa4:	2048      	movs	r0, #72	; 0x48
 8001aa6:	f008 fd0d 	bl	800a4c4 <_Znwj>
 8001aaa:	4607      	mov	r7, r0
 8001aac:	4623      	mov	r3, r4
 8001aae:	462a      	mov	r2, r5
 8001ab0:	e9cd 6501 	strd	r6, r5, [sp, #4]
 8001ab4:	f8db 1000 	ldr.w	r1, [fp]
 8001ab8:	9600      	str	r6, [sp, #0]
 8001aba:	f000 fe91 	bl	80027e0 <_ZN10DigitalPinC1ERVmiNSt7__cxx1112basic_stringIcSt11char_traitsIcESaIcEEEibi>
 8001abe:	4620      	mov	r0, r4
 8001ac0:	f008 fd44 	bl	800a54c <_ZNSt7__cxx1112basic_stringIcSt11char_traitsIcESaIcEE10_M_disposeEv>
 8001ac4:	4639      	mov	r1, r7
 8001ac6:	f8d9 0000 	ldr.w	r0, [r9]
 8001aca:	f001 fa6f 	bl	8002fac <_ZN9pruThread14registerModuleEP6Module>
 8001ace:	49e0      	ldr	r1, [pc, #896]	; (8001e50 <_Z11loadModulesv+0x758>)
 8001ad0:	4620      	mov	r0, r4
 8001ad2:	f7ff fd97 	bl	8001604 <_ZNSt7__cxx1112basic_stringIcSt11char_traitsIcESaIcEEC2EPKcRKS3_.isra.0>
 8001ad6:	2048      	movs	r0, #72	; 0x48
 8001ad8:	f008 fcf4 	bl	800a4c4 <_Znwj>
 8001adc:	2302      	movs	r3, #2
 8001ade:	4607      	mov	r7, r0
 8001ae0:	462a      	mov	r2, r5
 8001ae2:	e9cd 6501 	strd	r6, r5, [sp, #4]
 8001ae6:	f8db 1000 	ldr.w	r1, [fp]
 8001aea:	9300      	str	r3, [sp, #0]
 8001aec:	4623      	mov	r3, r4
 8001aee:	f000 fe77 	bl	80027e0 <_ZN10DigitalPinC1ERVmiNSt7__cxx1112basic_stringIcSt11char_traitsIcESaIcEEEibi>
 8001af2:	4620      	mov	r0, r4
 8001af4:	f008 fd2a 	bl	800a54c <_ZNSt7__cxx1112basic_stringIcSt11char_traitsIcESaIcEE10_M_disposeEv>
 8001af8:	4639      	mov	r1, r7
 8001afa:	f8d9 0000 	ldr.w	r0, [r9]
 8001afe:	f001 fa55 	bl	8002fac <_ZN9pruThread14registerModuleEP6Module>
 8001b02:	49d4      	ldr	r1, [pc, #848]	; (8001e54 <_Z11loadModulesv+0x75c>)
 8001b04:	4620      	mov	r0, r4
 8001b06:	f7ff fd7d 	bl	8001604 <_ZNSt7__cxx1112basic_stringIcSt11char_traitsIcESaIcEEC2EPKcRKS3_.isra.0>
 8001b0a:	2048      	movs	r0, #72	; 0x48
 8001b0c:	f008 fcda 	bl	800a4c4 <_Znwj>
 8001b10:	2303      	movs	r3, #3
 8001b12:	4607      	mov	r7, r0
 8001b14:	462a      	mov	r2, r5
 8001b16:	e9cd 6501 	strd	r6, r5, [sp, #4]
 8001b1a:	f8db 1000 	ldr.w	r1, [fp]
 8001b1e:	9300      	str	r3, [sp, #0]
 8001b20:	4623      	mov	r3, r4
 8001b22:	f000 fe5d 	bl	80027e0 <_ZN10DigitalPinC1ERVmiNSt7__cxx1112basic_stringIcSt11char_traitsIcESaIcEEEibi>
 8001b26:	4620      	mov	r0, r4
 8001b28:	f008 fd10 	bl	800a54c <_ZNSt7__cxx1112basic_stringIcSt11char_traitsIcESaIcEE10_M_disposeEv>
 8001b2c:	4639      	mov	r1, r7
 8001b2e:	f8d9 0000 	ldr.w	r0, [r9]
 8001b32:	f001 fa3b 	bl	8002fac <_ZN9pruThread14registerModuleEP6Module>
 8001b36:	49c8      	ldr	r1, [pc, #800]	; (8001e58 <_Z11loadModulesv+0x760>)
 8001b38:	4620      	mov	r0, r4
 8001b3a:	f7ff fd63 	bl	8001604 <_ZNSt7__cxx1112basic_stringIcSt11char_traitsIcESaIcEEC2EPKcRKS3_.isra.0>
 8001b3e:	2048      	movs	r0, #72	; 0x48
 8001b40:	f008 fcc0 	bl	800a4c4 <_Znwj>
 8001b44:	2304      	movs	r3, #4
 8001b46:	4607      	mov	r7, r0
 8001b48:	462a      	mov	r2, r5
 8001b4a:	e9cd 6501 	strd	r6, r5, [sp, #4]
 8001b4e:	f8db 1000 	ldr.w	r1, [fp]
 8001b52:	9300      	str	r3, [sp, #0]
 8001b54:	4623      	mov	r3, r4
 8001b56:	f000 fe43 	bl	80027e0 <_ZN10DigitalPinC1ERVmiNSt7__cxx1112basic_stringIcSt11char_traitsIcESaIcEEEibi>
 8001b5a:	4620      	mov	r0, r4
 8001b5c:	f008 fcf6 	bl	800a54c <_ZNSt7__cxx1112basic_stringIcSt11char_traitsIcESaIcEE10_M_disposeEv>
 8001b60:	4639      	mov	r1, r7
 8001b62:	f8d9 0000 	ldr.w	r0, [r9]
 8001b66:	f001 fa21 	bl	8002fac <_ZN9pruThread14registerModuleEP6Module>
 8001b6a:	49bc      	ldr	r1, [pc, #752]	; (8001e5c <_Z11loadModulesv+0x764>)
 8001b6c:	4620      	mov	r0, r4
 8001b6e:	f7ff fd49 	bl	8001604 <_ZNSt7__cxx1112basic_stringIcSt11char_traitsIcESaIcEEC2EPKcRKS3_.isra.0>
 8001b72:	2048      	movs	r0, #72	; 0x48
 8001b74:	f008 fca6 	bl	800a4c4 <_Znwj>
 8001b78:	2305      	movs	r3, #5
 8001b7a:	4607      	mov	r7, r0
 8001b7c:	462a      	mov	r2, r5
 8001b7e:	e9cd 6501 	strd	r6, r5, [sp, #4]
 8001b82:	f8db 1000 	ldr.w	r1, [fp]
 8001b86:	9300      	str	r3, [sp, #0]
 8001b88:	4623      	mov	r3, r4
 8001b8a:	f000 fe29 	bl	80027e0 <_ZN10DigitalPinC1ERVmiNSt7__cxx1112basic_stringIcSt11char_traitsIcESaIcEEEibi>
 8001b8e:	4620      	mov	r0, r4
 8001b90:	f008 fcdc 	bl	800a54c <_ZNSt7__cxx1112basic_stringIcSt11char_traitsIcESaIcEE10_M_disposeEv>
 8001b94:	4639      	mov	r1, r7
 8001b96:	f8d9 0000 	ldr.w	r0, [r9]
 8001b9a:	f001 fa07 	bl	8002fac <_ZN9pruThread14registerModuleEP6Module>
 8001b9e:	49b0      	ldr	r1, [pc, #704]	; (8001e60 <_Z11loadModulesv+0x768>)
 8001ba0:	4620      	mov	r0, r4
 8001ba2:	f7ff fd2f 	bl	8001604 <_ZNSt7__cxx1112basic_stringIcSt11char_traitsIcESaIcEEC2EPKcRKS3_.isra.0>
 8001ba6:	2048      	movs	r0, #72	; 0x48
 8001ba8:	f008 fc8c 	bl	800a4c4 <_Znwj>
 8001bac:	2306      	movs	r3, #6
 8001bae:	4607      	mov	r7, r0
 8001bb0:	462a      	mov	r2, r5
 8001bb2:	e9cd 6501 	strd	r6, r5, [sp, #4]
 8001bb6:	f8db 1000 	ldr.w	r1, [fp]
 8001bba:	9300      	str	r3, [sp, #0]
 8001bbc:	4623      	mov	r3, r4
 8001bbe:	f000 fe0f 	bl	80027e0 <_ZN10DigitalPinC1ERVmiNSt7__cxx1112basic_stringIcSt11char_traitsIcESaIcEEEibi>
 8001bc2:	4620      	mov	r0, r4
 8001bc4:	f008 fcc2 	bl	800a54c <_ZNSt7__cxx1112basic_stringIcSt11char_traitsIcESaIcEE10_M_disposeEv>
 8001bc8:	4639      	mov	r1, r7
 8001bca:	f8d9 0000 	ldr.w	r0, [r9]
 8001bce:	f001 f9ed 	bl	8002fac <_ZN9pruThread14registerModuleEP6Module>
 8001bd2:	49a4      	ldr	r1, [pc, #656]	; (8001e64 <_Z11loadModulesv+0x76c>)
 8001bd4:	4620      	mov	r0, r4
 8001bd6:	f7ff fd15 	bl	8001604 <_ZNSt7__cxx1112basic_stringIcSt11char_traitsIcESaIcEEC2EPKcRKS3_.isra.0>
 8001bda:	2048      	movs	r0, #72	; 0x48
 8001bdc:	f008 fc72 	bl	800a4c4 <_Znwj>
 8001be0:	2307      	movs	r3, #7
 8001be2:	4607      	mov	r7, r0
 8001be4:	462a      	mov	r2, r5
 8001be6:	e9cd 6501 	strd	r6, r5, [sp, #4]
 8001bea:	f8db 1000 	ldr.w	r1, [fp]
 8001bee:	9300      	str	r3, [sp, #0]
 8001bf0:	4623      	mov	r3, r4
 8001bf2:	f000 fdf5 	bl	80027e0 <_ZN10DigitalPinC1ERVmiNSt7__cxx1112basic_stringIcSt11char_traitsIcESaIcEEEibi>
 8001bf6:	4620      	mov	r0, r4
 8001bf8:	f008 fca8 	bl	800a54c <_ZNSt7__cxx1112basic_stringIcSt11char_traitsIcESaIcEE10_M_disposeEv>
 8001bfc:	4639      	mov	r1, r7
 8001bfe:	f8d9 0000 	ldr.w	r0, [r9]
 8001c02:	f001 f9d3 	bl	8002fac <_ZN9pruThread14registerModuleEP6Module>
 8001c06:	4998      	ldr	r1, [pc, #608]	; (8001e68 <_Z11loadModulesv+0x770>)
 8001c08:	4620      	mov	r0, r4
 8001c0a:	f7ff fcfb 	bl	8001604 <_ZNSt7__cxx1112basic_stringIcSt11char_traitsIcESaIcEEC2EPKcRKS3_.isra.0>
 8001c0e:	2048      	movs	r0, #72	; 0x48
 8001c10:	f008 fc58 	bl	800a4c4 <_Znwj>
 8001c14:	2308      	movs	r3, #8
 8001c16:	4607      	mov	r7, r0
 8001c18:	462a      	mov	r2, r5
 8001c1a:	e9cd 6501 	strd	r6, r5, [sp, #4]
 8001c1e:	f8db 1000 	ldr.w	r1, [fp]
 8001c22:	9300      	str	r3, [sp, #0]
 8001c24:	4623      	mov	r3, r4
 8001c26:	f000 fddb 	bl	80027e0 <_ZN10DigitalPinC1ERVmiNSt7__cxx1112basic_stringIcSt11char_traitsIcESaIcEEEibi>
 8001c2a:	4620      	mov	r0, r4
 8001c2c:	f008 fc8e 	bl	800a54c <_ZNSt7__cxx1112basic_stringIcSt11char_traitsIcESaIcEE10_M_disposeEv>
 8001c30:	4639      	mov	r1, r7
 8001c32:	f8d9 0000 	ldr.w	r0, [r9]
 8001c36:	f001 f9b9 	bl	8002fac <_ZN9pruThread14registerModuleEP6Module>
 8001c3a:	498c      	ldr	r1, [pc, #560]	; (8001e6c <_Z11loadModulesv+0x774>)
 8001c3c:	4620      	mov	r0, r4
 8001c3e:	f7ff fce1 	bl	8001604 <_ZNSt7__cxx1112basic_stringIcSt11char_traitsIcESaIcEEC2EPKcRKS3_.isra.0>
 8001c42:	2048      	movs	r0, #72	; 0x48
 8001c44:	f008 fc3e 	bl	800a4c4 <_Znwj>
 8001c48:	2709      	movs	r7, #9
 8001c4a:	4680      	mov	r8, r0
 8001c4c:	4623      	mov	r3, r4
 8001c4e:	462a      	mov	r2, r5
 8001c50:	e9cd 6501 	strd	r6, r5, [sp, #4]
 8001c54:	f8db 1000 	ldr.w	r1, [fp]
 8001c58:	9700      	str	r7, [sp, #0]
 8001c5a:	f000 fdc1 	bl	80027e0 <_ZN10DigitalPinC1ERVmiNSt7__cxx1112basic_stringIcSt11char_traitsIcESaIcEEEibi>
 8001c5e:	4620      	mov	r0, r4
 8001c60:	f008 fc74 	bl	800a54c <_ZNSt7__cxx1112basic_stringIcSt11char_traitsIcESaIcEE10_M_disposeEv>
 8001c64:	4641      	mov	r1, r8
 8001c66:	f8d9 0000 	ldr.w	r0, [r9]
 8001c6a:	f001 f99f 	bl	8002fac <_ZN9pruThread14registerModuleEP6Module>
 8001c6e:	4980      	ldr	r1, [pc, #512]	; (8001e70 <_Z11loadModulesv+0x778>)
 8001c70:	4620      	mov	r0, r4
 8001c72:	f7ff fcc7 	bl	8001604 <_ZNSt7__cxx1112basic_stringIcSt11char_traitsIcESaIcEEC2EPKcRKS3_.isra.0>
 8001c76:	2048      	movs	r0, #72	; 0x48
 8001c78:	f008 fc24 	bl	800a4c4 <_Znwj>
 8001c7c:	230a      	movs	r3, #10
 8001c7e:	4680      	mov	r8, r0
 8001c80:	462a      	mov	r2, r5
 8001c82:	e9cd 6501 	strd	r6, r5, [sp, #4]
 8001c86:	f8db 1000 	ldr.w	r1, [fp]
 8001c8a:	9300      	str	r3, [sp, #0]
 8001c8c:	4623      	mov	r3, r4
 8001c8e:	f000 fda7 	bl	80027e0 <_ZN10DigitalPinC1ERVmiNSt7__cxx1112basic_stringIcSt11char_traitsIcESaIcEEEibi>
 8001c92:	4620      	mov	r0, r4
 8001c94:	f008 fc5a 	bl	800a54c <_ZNSt7__cxx1112basic_stringIcSt11char_traitsIcESaIcEE10_M_disposeEv>
 8001c98:	4641      	mov	r1, r8
 8001c9a:	f8d9 0000 	ldr.w	r0, [r9]
 8001c9e:	f001 f985 	bl	8002fac <_ZN9pruThread14registerModuleEP6Module>
 8001ca2:	4974      	ldr	r1, [pc, #464]	; (8001e74 <_Z11loadModulesv+0x77c>)
 8001ca4:	4620      	mov	r0, r4
 8001ca6:	f7ff fcad 	bl	8001604 <_ZNSt7__cxx1112basic_stringIcSt11char_traitsIcESaIcEEC2EPKcRKS3_.isra.0>
 8001caa:	2048      	movs	r0, #72	; 0x48
 8001cac:	f008 fc0a 	bl	800a4c4 <_Znwj>
 8001cb0:	230b      	movs	r3, #11
 8001cb2:	4680      	mov	r8, r0
 8001cb4:	462a      	mov	r2, r5
 8001cb6:	e9cd 6501 	strd	r6, r5, [sp, #4]
 8001cba:	f8db 1000 	ldr.w	r1, [fp]
 8001cbe:	9300      	str	r3, [sp, #0]
 8001cc0:	4623      	mov	r3, r4
 8001cc2:	f000 fd8d 	bl	80027e0 <_ZN10DigitalPinC1ERVmiNSt7__cxx1112basic_stringIcSt11char_traitsIcESaIcEEEibi>
 8001cc6:	4620      	mov	r0, r4
 8001cc8:	f008 fc40 	bl	800a54c <_ZNSt7__cxx1112basic_stringIcSt11char_traitsIcESaIcEE10_M_disposeEv>
 8001ccc:	4641      	mov	r1, r8
 8001cce:	f8d9 0000 	ldr.w	r0, [r9]
 8001cd2:	f001 f96b 	bl	8002fac <_ZN9pruThread14registerModuleEP6Module>
 8001cd6:	4968      	ldr	r1, [pc, #416]	; (8001e78 <_Z11loadModulesv+0x780>)
 8001cd8:	4620      	mov	r0, r4
 8001cda:	f7ff fc93 	bl	8001604 <_ZNSt7__cxx1112basic_stringIcSt11char_traitsIcESaIcEEC2EPKcRKS3_.isra.0>
 8001cde:	2048      	movs	r0, #72	; 0x48
 8001ce0:	f008 fbf0 	bl	800a4c4 <_Znwj>
 8001ce4:	230c      	movs	r3, #12
 8001ce6:	4680      	mov	r8, r0
 8001ce8:	462a      	mov	r2, r5
 8001cea:	e9cd 6501 	strd	r6, r5, [sp, #4]
 8001cee:	f8db 1000 	ldr.w	r1, [fp]
 8001cf2:	9300      	str	r3, [sp, #0]
 8001cf4:	4623      	mov	r3, r4
 8001cf6:	f000 fd73 	bl	80027e0 <_ZN10DigitalPinC1ERVmiNSt7__cxx1112basic_stringIcSt11char_traitsIcESaIcEEEibi>
 8001cfa:	4620      	mov	r0, r4
 8001cfc:	f008 fc26 	bl	800a54c <_ZNSt7__cxx1112basic_stringIcSt11char_traitsIcESaIcEE10_M_disposeEv>
 8001d00:	4641      	mov	r1, r8
 8001d02:	f8d9 0000 	ldr.w	r0, [r9]
 8001d06:	f001 f951 	bl	8002fac <_ZN9pruThread14registerModuleEP6Module>
 8001d0a:	495c      	ldr	r1, [pc, #368]	; (8001e7c <_Z11loadModulesv+0x784>)
 8001d0c:	4620      	mov	r0, r4
 8001d0e:	f7ff fc79 	bl	8001604 <_ZNSt7__cxx1112basic_stringIcSt11char_traitsIcESaIcEEC2EPKcRKS3_.isra.0>
 8001d12:	2048      	movs	r0, #72	; 0x48
 8001d14:	f008 fbd6 	bl	800a4c4 <_Znwj>
 8001d18:	230d      	movs	r3, #13
 8001d1a:	4680      	mov	r8, r0
 8001d1c:	462a      	mov	r2, r5
 8001d1e:	e9cd 6501 	strd	r6, r5, [sp, #4]
 8001d22:	f8db 1000 	ldr.w	r1, [fp]
 8001d26:	9300      	str	r3, [sp, #0]
 8001d28:	4623      	mov	r3, r4
 8001d2a:	f000 fd59 	bl	80027e0 <_ZN10DigitalPinC1ERVmiNSt7__cxx1112basic_stringIcSt11char_traitsIcESaIcEEEibi>
 8001d2e:	4620      	mov	r0, r4
 8001d30:	f008 fc0c 	bl	800a54c <_ZNSt7__cxx1112basic_stringIcSt11char_traitsIcESaIcEE10_M_disposeEv>
 8001d34:	4641      	mov	r1, r8
 8001d36:	f8d9 0000 	ldr.w	r0, [r9]
 8001d3a:	f001 f937 	bl	8002fac <_ZN9pruThread14registerModuleEP6Module>
 8001d3e:	4950      	ldr	r1, [pc, #320]	; (8001e80 <_Z11loadModulesv+0x788>)
 8001d40:	4620      	mov	r0, r4
 8001d42:	f7ff fc5f 	bl	8001604 <_ZNSt7__cxx1112basic_stringIcSt11char_traitsIcESaIcEEC2EPKcRKS3_.isra.0>
 8001d46:	2048      	movs	r0, #72	; 0x48
 8001d48:	f008 fbbc 	bl	800a4c4 <_Znwj>
 8001d4c:	230e      	movs	r3, #14
 8001d4e:	4680      	mov	r8, r0
 8001d50:	462a      	mov	r2, r5
 8001d52:	e9cd 6501 	strd	r6, r5, [sp, #4]
 8001d56:	f8db 1000 	ldr.w	r1, [fp]
 8001d5a:	9300      	str	r3, [sp, #0]
 8001d5c:	4623      	mov	r3, r4
 8001d5e:	f000 fd3f 	bl	80027e0 <_ZN10DigitalPinC1ERVmiNSt7__cxx1112basic_stringIcSt11char_traitsIcESaIcEEEibi>
 8001d62:	4620      	mov	r0, r4
 8001d64:	f008 fbf2 	bl	800a54c <_ZNSt7__cxx1112basic_stringIcSt11char_traitsIcESaIcEE10_M_disposeEv>
 8001d68:	4641      	mov	r1, r8
 8001d6a:	f8d9 0000 	ldr.w	r0, [r9]
 8001d6e:	f001 f91d 	bl	8002fac <_ZN9pruThread14registerModuleEP6Module>
 8001d72:	4944      	ldr	r1, [pc, #272]	; (8001e84 <_Z11loadModulesv+0x78c>)
 8001d74:	4620      	mov	r0, r4
 8001d76:	f7ff fc45 	bl	8001604 <_ZNSt7__cxx1112basic_stringIcSt11char_traitsIcESaIcEEC2EPKcRKS3_.isra.0>
 8001d7a:	2048      	movs	r0, #72	; 0x48
 8001d7c:	f008 fba2 	bl	800a4c4 <_Znwj>
 8001d80:	230f      	movs	r3, #15
 8001d82:	4680      	mov	r8, r0
 8001d84:	462a      	mov	r2, r5
 8001d86:	e9cd 6501 	strd	r6, r5, [sp, #4]
 8001d8a:	f8db 1000 	ldr.w	r1, [fp]
 8001d8e:	9300      	str	r3, [sp, #0]
 8001d90:	4623      	mov	r3, r4
 8001d92:	f000 fd25 	bl	80027e0 <_ZN10DigitalPinC1ERVmiNSt7__cxx1112basic_stringIcSt11char_traitsIcESaIcEEEibi>
 8001d96:	4620      	mov	r0, r4
 8001d98:	f008 fbd8 	bl	800a54c <_ZNSt7__cxx1112basic_stringIcSt11char_traitsIcESaIcEE10_M_disposeEv>
 8001d9c:	4641      	mov	r1, r8
 8001d9e:	f8d9 0000 	ldr.w	r0, [r9]
 8001da2:	f001 f903 	bl	8002fac <_ZN9pruThread14registerModuleEP6Module>
 8001da6:	4938      	ldr	r1, [pc, #224]	; (8001e88 <_Z11loadModulesv+0x790>)
 8001da8:	4620      	mov	r0, r4
 8001daa:	f7ff fc2b 	bl	8001604 <_ZNSt7__cxx1112basic_stringIcSt11char_traitsIcESaIcEEC2EPKcRKS3_.isra.0>
 8001dae:	2048      	movs	r0, #72	; 0x48
 8001db0:	f008 fb88 	bl	800a4c4 <_Znwj>
 8001db4:	2310      	movs	r3, #16
 8001db6:	4680      	mov	r8, r0
 8001db8:	462a      	mov	r2, r5
 8001dba:	e9cd 6501 	strd	r6, r5, [sp, #4]
 8001dbe:	f8db 1000 	ldr.w	r1, [fp]
 8001dc2:	9300      	str	r3, [sp, #0]
 8001dc4:	4623      	mov	r3, r4
 8001dc6:	f000 fd0b 	bl	80027e0 <_ZN10DigitalPinC1ERVmiNSt7__cxx1112basic_stringIcSt11char_traitsIcESaIcEEEibi>
 8001dca:	4620      	mov	r0, r4
 8001dcc:	f008 fbbe 	bl	800a54c <_ZNSt7__cxx1112basic_stringIcSt11char_traitsIcESaIcEE10_M_disposeEv>
 8001dd0:	4641      	mov	r1, r8
 8001dd2:	f8d9 0000 	ldr.w	r0, [r9]
 8001dd6:	f001 f8e9 	bl	8002fac <_ZN9pruThread14registerModuleEP6Module>
 8001dda:	492c      	ldr	r1, [pc, #176]	; (8001e8c <_Z11loadModulesv+0x794>)
 8001ddc:	4620      	mov	r0, r4
 8001dde:	f7ff fc11 	bl	8001604 <_ZNSt7__cxx1112basic_stringIcSt11char_traitsIcESaIcEEC2EPKcRKS3_.isra.0>
 8001de2:	2048      	movs	r0, #72	; 0x48
 8001de4:	f008 fb6e 	bl	800a4c4 <_Znwj>
 8001de8:	2311      	movs	r3, #17
 8001dea:	4680      	mov	r8, r0
 8001dec:	462a      	mov	r2, r5
 8001dee:	e9cd 6501 	strd	r6, r5, [sp, #4]
 8001df2:	f8db 1000 	ldr.w	r1, [fp]
 8001df6:	9300      	str	r3, [sp, #0]
 8001df8:	4623      	mov	r3, r4
 8001dfa:	f000 fcf1 	bl	80027e0 <_ZN10DigitalPinC1ERVmiNSt7__cxx1112basic_stringIcSt11char_traitsIcESaIcEEEibi>
 8001dfe:	4620      	mov	r0, r4
 8001e00:	f008 fba4 	bl	800a54c <_ZNSt7__cxx1112basic_stringIcSt11char_traitsIcESaIcEE10_M_disposeEv>
 8001e04:	4641      	mov	r1, r8
 8001e06:	f8d9 0000 	ldr.w	r0, [r9]
 8001e0a:	f001 f8cf 	bl	8002fac <_ZN9pruThread14registerModuleEP6Module>
 8001e0e:	4920      	ldr	r1, [pc, #128]	; (8001e90 <_Z11loadModulesv+0x798>)
 8001e10:	4620      	mov	r0, r4
 8001e12:	f7ff fbf7 	bl	8001604 <_ZNSt7__cxx1112basic_stringIcSt11char_traitsIcESaIcEEC2EPKcRKS3_.isra.0>
 8001e16:	2048      	movs	r0, #72	; 0x48
 8001e18:	f008 fb54 	bl	800a4c4 <_Znwj>
 8001e1c:	2312      	movs	r3, #18
 8001e1e:	4680      	mov	r8, r0
 8001e20:	462a      	mov	r2, r5
 8001e22:	e9cd 6501 	strd	r6, r5, [sp, #4]
 8001e26:	f8db 1000 	ldr.w	r1, [fp]
 8001e2a:	9300      	str	r3, [sp, #0]
 8001e2c:	4623      	mov	r3, r4
 8001e2e:	f000 fcd7 	bl	80027e0 <_ZN10DigitalPinC1ERVmiNSt7__cxx1112basic_stringIcSt11char_traitsIcESaIcEEEibi>
 8001e32:	4620      	mov	r0, r4
 8001e34:	f008 fb8a 	bl	800a54c <_ZNSt7__cxx1112basic_stringIcSt11char_traitsIcESaIcEE10_M_disposeEv>
 8001e38:	4641      	mov	r1, r8
 8001e3a:	f8d9 0000 	ldr.w	r0, [r9]
 8001e3e:	f001 f8b5 	bl	8002fac <_ZN9pruThread14registerModuleEP6Module>
 8001e42:	4914      	ldr	r1, [pc, #80]	; (8001e94 <_Z11loadModulesv+0x79c>)
 8001e44:	4620      	mov	r0, r4
 8001e46:	f7ff fbdd 	bl	8001604 <_ZNSt7__cxx1112basic_stringIcSt11char_traitsIcESaIcEEC2EPKcRKS3_.isra.0>
 8001e4a:	e025      	b.n	8001e98 <_Z11loadModulesv+0x7a0>
 8001e4c:	0800b8ba 	.word	0x0800b8ba
 8001e50:	0800b8bf 	.word	0x0800b8bf
 8001e54:	0800b8c5 	.word	0x0800b8c5
 8001e58:	0800b8cb 	.word	0x0800b8cb
 8001e5c:	0800b8d1 	.word	0x0800b8d1
 8001e60:	0800b8d7 	.word	0x0800b8d7
 8001e64:	0800b8dc 	.word	0x0800b8dc
 8001e68:	0800b8e1 	.word	0x0800b8e1
 8001e6c:	0800b8e6 	.word	0x0800b8e6
 8001e70:	0800b8eb 	.word	0x0800b8eb
 8001e74:	0800b8f1 	.word	0x0800b8f1
 8001e78:	0800b8f7 	.word	0x0800b8f7
 8001e7c:	0800b8fd 	.word	0x0800b8fd
 8001e80:	0800b903 	.word	0x0800b903
 8001e84:	0800b909 	.word	0x0800b909
 8001e88:	0800b90f 	.word	0x0800b90f
 8001e8c:	0800b915 	.word	0x0800b915
 8001e90:	0800b91b 	.word	0x0800b91b
 8001e94:	0800b920 	.word	0x0800b920
 8001e98:	2048      	movs	r0, #72	; 0x48
 8001e9a:	f008 fb13 	bl	800a4c4 <_Znwj>
 8001e9e:	2313      	movs	r3, #19
 8001ea0:	4680      	mov	r8, r0
 8001ea2:	462a      	mov	r2, r5
 8001ea4:	e9cd 6501 	strd	r6, r5, [sp, #4]
 8001ea8:	f8db 1000 	ldr.w	r1, [fp]
 8001eac:	9300      	str	r3, [sp, #0]
 8001eae:	4623      	mov	r3, r4
 8001eb0:	f000 fc96 	bl	80027e0 <_ZN10DigitalPinC1ERVmiNSt7__cxx1112basic_stringIcSt11char_traitsIcESaIcEEEibi>
 8001eb4:	4620      	mov	r0, r4
 8001eb6:	f008 fb49 	bl	800a54c <_ZNSt7__cxx1112basic_stringIcSt11char_traitsIcESaIcEE10_M_disposeEv>
 8001eba:	4641      	mov	r1, r8
 8001ebc:	f8d9 0000 	ldr.w	r0, [r9]
 8001ec0:	f001 f874 	bl	8002fac <_ZN9pruThread14registerModuleEP6Module>
 8001ec4:	49e9      	ldr	r1, [pc, #932]	; (800226c <_Z11loadModulesv+0xb74>)
 8001ec6:	4620      	mov	r0, r4
 8001ec8:	f7ff fb9c 	bl	8001604 <_ZNSt7__cxx1112basic_stringIcSt11char_traitsIcESaIcEEC2EPKcRKS3_.isra.0>
 8001ecc:	2048      	movs	r0, #72	; 0x48
 8001ece:	f008 faf9 	bl	800a4c4 <_Znwj>
 8001ed2:	2314      	movs	r3, #20
 8001ed4:	4680      	mov	r8, r0
 8001ed6:	462a      	mov	r2, r5
 8001ed8:	e9cd 6501 	strd	r6, r5, [sp, #4]
 8001edc:	f8db 1000 	ldr.w	r1, [fp]
 8001ee0:	9300      	str	r3, [sp, #0]
 8001ee2:	4623      	mov	r3, r4
 8001ee4:	f000 fc7c 	bl	80027e0 <_ZN10DigitalPinC1ERVmiNSt7__cxx1112basic_stringIcSt11char_traitsIcESaIcEEEibi>
 8001ee8:	4620      	mov	r0, r4
 8001eea:	f008 fb2f 	bl	800a54c <_ZNSt7__cxx1112basic_stringIcSt11char_traitsIcESaIcEE10_M_disposeEv>
 8001eee:	4641      	mov	r1, r8
 8001ef0:	f8d9 0000 	ldr.w	r0, [r9]
 8001ef4:	f001 f85a 	bl	8002fac <_ZN9pruThread14registerModuleEP6Module>
 8001ef8:	49dd      	ldr	r1, [pc, #884]	; (8002270 <_Z11loadModulesv+0xb78>)
 8001efa:	4620      	mov	r0, r4
 8001efc:	f7ff fb82 	bl	8001604 <_ZNSt7__cxx1112basic_stringIcSt11char_traitsIcESaIcEEC2EPKcRKS3_.isra.0>
 8001f00:	2048      	movs	r0, #72	; 0x48
 8001f02:	f008 fadf 	bl	800a4c4 <_Znwj>
 8001f06:	2315      	movs	r3, #21
 8001f08:	4680      	mov	r8, r0
 8001f0a:	462a      	mov	r2, r5
 8001f0c:	e9cd 6501 	strd	r6, r5, [sp, #4]
 8001f10:	f8db 1000 	ldr.w	r1, [fp]
 8001f14:	9300      	str	r3, [sp, #0]
 8001f16:	4623      	mov	r3, r4
 8001f18:	f000 fc62 	bl	80027e0 <_ZN10DigitalPinC1ERVmiNSt7__cxx1112basic_stringIcSt11char_traitsIcESaIcEEEibi>
 8001f1c:	4620      	mov	r0, r4
 8001f1e:	f008 fb15 	bl	800a54c <_ZNSt7__cxx1112basic_stringIcSt11char_traitsIcESaIcEE10_M_disposeEv>
 8001f22:	4641      	mov	r1, r8
 8001f24:	f8d9 0000 	ldr.w	r0, [r9]
 8001f28:	f001 f840 	bl	8002fac <_ZN9pruThread14registerModuleEP6Module>
 8001f2c:	49d1      	ldr	r1, [pc, #836]	; (8002274 <_Z11loadModulesv+0xb7c>)
 8001f2e:	4620      	mov	r0, r4
 8001f30:	f7ff fb68 	bl	8001604 <_ZNSt7__cxx1112basic_stringIcSt11char_traitsIcESaIcEEC2EPKcRKS3_.isra.0>
 8001f34:	2048      	movs	r0, #72	; 0x48
 8001f36:	f008 fac5 	bl	800a4c4 <_Znwj>
 8001f3a:	2316      	movs	r3, #22
 8001f3c:	4680      	mov	r8, r0
 8001f3e:	462a      	mov	r2, r5
 8001f40:	e9cd 6501 	strd	r6, r5, [sp, #4]
 8001f44:	f8db 1000 	ldr.w	r1, [fp]
 8001f48:	9300      	str	r3, [sp, #0]
 8001f4a:	4623      	mov	r3, r4
 8001f4c:	f000 fc48 	bl	80027e0 <_ZN10DigitalPinC1ERVmiNSt7__cxx1112basic_stringIcSt11char_traitsIcESaIcEEEibi>
 8001f50:	4620      	mov	r0, r4
 8001f52:	f008 fafb 	bl	800a54c <_ZNSt7__cxx1112basic_stringIcSt11char_traitsIcESaIcEE10_M_disposeEv>
 8001f56:	4641      	mov	r1, r8
 8001f58:	f8d9 0000 	ldr.w	r0, [r9]
 8001f5c:	f001 f826 	bl	8002fac <_ZN9pruThread14registerModuleEP6Module>
 8001f60:	49c5      	ldr	r1, [pc, #788]	; (8002278 <_Z11loadModulesv+0xb80>)
 8001f62:	4620      	mov	r0, r4
 8001f64:	f7ff fb4e 	bl	8001604 <_ZNSt7__cxx1112basic_stringIcSt11char_traitsIcESaIcEEC2EPKcRKS3_.isra.0>
 8001f68:	2048      	movs	r0, #72	; 0x48
 8001f6a:	f008 faab 	bl	800a4c4 <_Znwj>
 8001f6e:	2317      	movs	r3, #23
 8001f70:	4680      	mov	r8, r0
 8001f72:	462a      	mov	r2, r5
 8001f74:	e9cd 6501 	strd	r6, r5, [sp, #4]
 8001f78:	f8db 1000 	ldr.w	r1, [fp]
 8001f7c:	9300      	str	r3, [sp, #0]
 8001f7e:	4623      	mov	r3, r4
 8001f80:	f000 fc2e 	bl	80027e0 <_ZN10DigitalPinC1ERVmiNSt7__cxx1112basic_stringIcSt11char_traitsIcESaIcEEEibi>
 8001f84:	4620      	mov	r0, r4
 8001f86:	f008 fae1 	bl	800a54c <_ZNSt7__cxx1112basic_stringIcSt11char_traitsIcESaIcEE10_M_disposeEv>
 8001f8a:	4641      	mov	r1, r8
 8001f8c:	f8d9 0000 	ldr.w	r0, [r9]
 8001f90:	f001 f80c 	bl	8002fac <_ZN9pruThread14registerModuleEP6Module>
 8001f94:	49b9      	ldr	r1, [pc, #740]	; (800227c <_Z11loadModulesv+0xb84>)
 8001f96:	4620      	mov	r0, r4
 8001f98:	f7ff fb34 	bl	8001604 <_ZNSt7__cxx1112basic_stringIcSt11char_traitsIcESaIcEEC2EPKcRKS3_.isra.0>
 8001f9c:	2048      	movs	r0, #72	; 0x48
 8001f9e:	f008 fa91 	bl	800a4c4 <_Znwj>
 8001fa2:	2318      	movs	r3, #24
 8001fa4:	4680      	mov	r8, r0
 8001fa6:	462a      	mov	r2, r5
 8001fa8:	f8db 1000 	ldr.w	r1, [fp]
 8001fac:	e9cd 5501 	strd	r5, r5, [sp, #4]
 8001fb0:	9300      	str	r3, [sp, #0]
 8001fb2:	4623      	mov	r3, r4
 8001fb4:	f000 fc14 	bl	80027e0 <_ZN10DigitalPinC1ERVmiNSt7__cxx1112basic_stringIcSt11char_traitsIcESaIcEEEibi>
 8001fb8:	4620      	mov	r0, r4
 8001fba:	f008 fac7 	bl	800a54c <_ZNSt7__cxx1112basic_stringIcSt11char_traitsIcESaIcEE10_M_disposeEv>
 8001fbe:	4641      	mov	r1, r8
 8001fc0:	f8d9 0000 	ldr.w	r0, [r9]
 8001fc4:	f000 fff2 	bl	8002fac <_ZN9pruThread14registerModuleEP6Module>
 8001fc8:	49ad      	ldr	r1, [pc, #692]	; (8002280 <_Z11loadModulesv+0xb88>)
 8001fca:	4620      	mov	r0, r4
 8001fcc:	f7ff fb1a 	bl	8001604 <_ZNSt7__cxx1112basic_stringIcSt11char_traitsIcESaIcEEC2EPKcRKS3_.isra.0>
 8001fd0:	2048      	movs	r0, #72	; 0x48
 8001fd2:	f008 fa77 	bl	800a4c4 <_Znwj>
 8001fd6:	f04f 0a19 	mov.w	sl, #25
 8001fda:	4680      	mov	r8, r0
 8001fdc:	4623      	mov	r3, r4
 8001fde:	462a      	mov	r2, r5
 8001fe0:	f8db 1000 	ldr.w	r1, [fp]
 8001fe4:	e9cd 5501 	strd	r5, r5, [sp, #4]
 8001fe8:	f8cd a000 	str.w	sl, [sp]
 8001fec:	f000 fbf8 	bl	80027e0 <_ZN10DigitalPinC1ERVmiNSt7__cxx1112basic_stringIcSt11char_traitsIcESaIcEEEibi>
 8001ff0:	4620      	mov	r0, r4
 8001ff2:	f008 faab 	bl	800a54c <_ZNSt7__cxx1112basic_stringIcSt11char_traitsIcESaIcEE10_M_disposeEv>
 8001ff6:	4641      	mov	r1, r8
 8001ff8:	f8d9 0000 	ldr.w	r0, [r9]
 8001ffc:	f000 ffd6 	bl	8002fac <_ZN9pruThread14registerModuleEP6Module>
 8002000:	49a0      	ldr	r1, [pc, #640]	; (8002284 <_Z11loadModulesv+0xb8c>)
 8002002:	4620      	mov	r0, r4
 8002004:	f7ff fafe 	bl	8001604 <_ZNSt7__cxx1112basic_stringIcSt11char_traitsIcESaIcEEC2EPKcRKS3_.isra.0>
 8002008:	2048      	movs	r0, #72	; 0x48
 800200a:	f008 fa5b 	bl	800a4c4 <_Znwj>
 800200e:	4680      	mov	r8, r0
 8002010:	4623      	mov	r3, r4
 8002012:	462a      	mov	r2, r5
 8002014:	f8db 1000 	ldr.w	r1, [fp]
 8002018:	e9cd 5501 	strd	r5, r5, [sp, #4]
 800201c:	f8cd a000 	str.w	sl, [sp]
 8002020:	f000 fbde 	bl	80027e0 <_ZN10DigitalPinC1ERVmiNSt7__cxx1112basic_stringIcSt11char_traitsIcESaIcEEEibi>
 8002024:	4620      	mov	r0, r4
 8002026:	f008 fa91 	bl	800a54c <_ZNSt7__cxx1112basic_stringIcSt11char_traitsIcESaIcEE10_M_disposeEv>
 800202a:	4641      	mov	r1, r8
 800202c:	f8d9 0000 	ldr.w	r0, [r9]
 8002030:	f000 ffbc 	bl	8002fac <_ZN9pruThread14registerModuleEP6Module>
 8002034:	4994      	ldr	r1, [pc, #592]	; (8002288 <_Z11loadModulesv+0xb90>)
 8002036:	4620      	mov	r0, r4
 8002038:	f7ff fae4 	bl	8001604 <_ZNSt7__cxx1112basic_stringIcSt11char_traitsIcESaIcEEC2EPKcRKS3_.isra.0>
 800203c:	2048      	movs	r0, #72	; 0x48
 800203e:	f008 fa41 	bl	800a4c4 <_Znwj>
 8002042:	4682      	mov	sl, r0
 8002044:	e9cd 5501 	strd	r5, r5, [sp, #4]
 8002048:	f8df 8274 	ldr.w	r8, [pc, #628]	; 80022c0 <_Z11loadModulesv+0xbc8>
 800204c:	9500      	str	r5, [sp, #0]
 800204e:	4623      	mov	r3, r4
 8002050:	4632      	mov	r2, r6
 8002052:	f8d8 1000 	ldr.w	r1, [r8]
 8002056:	f000 fbc3 	bl	80027e0 <_ZN10DigitalPinC1ERVmiNSt7__cxx1112basic_stringIcSt11char_traitsIcESaIcEEEibi>
 800205a:	4620      	mov	r0, r4
 800205c:	f008 fa76 	bl	800a54c <_ZNSt7__cxx1112basic_stringIcSt11char_traitsIcESaIcEE10_M_disposeEv>
 8002060:	4651      	mov	r1, sl
 8002062:	f8d9 0000 	ldr.w	r0, [r9]
 8002066:	f000 ffa1 	bl	8002fac <_ZN9pruThread14registerModuleEP6Module>
 800206a:	4988      	ldr	r1, [pc, #544]	; (800228c <_Z11loadModulesv+0xb94>)
 800206c:	4620      	mov	r0, r4
 800206e:	f7ff fac9 	bl	8001604 <_ZNSt7__cxx1112basic_stringIcSt11char_traitsIcESaIcEEC2EPKcRKS3_.isra.0>
 8002072:	2048      	movs	r0, #72	; 0x48
 8002074:	f008 fa26 	bl	800a4c4 <_Znwj>
 8002078:	4682      	mov	sl, r0
 800207a:	e9cd 5501 	strd	r5, r5, [sp, #4]
 800207e:	9600      	str	r6, [sp, #0]
 8002080:	4623      	mov	r3, r4
 8002082:	4632      	mov	r2, r6
 8002084:	f8d8 1000 	ldr.w	r1, [r8]
 8002088:	f000 fbaa 	bl	80027e0 <_ZN10DigitalPinC1ERVmiNSt7__cxx1112basic_stringIcSt11char_traitsIcESaIcEEEibi>
 800208c:	4620      	mov	r0, r4
 800208e:	f008 fa5d 	bl	800a54c <_ZNSt7__cxx1112basic_stringIcSt11char_traitsIcESaIcEE10_M_disposeEv>
 8002092:	4651      	mov	r1, sl
 8002094:	f8d9 0000 	ldr.w	r0, [r9]
 8002098:	f000 ff88 	bl	8002fac <_ZN9pruThread14registerModuleEP6Module>
 800209c:	497c      	ldr	r1, [pc, #496]	; (8002290 <_Z11loadModulesv+0xb98>)
 800209e:	4620      	mov	r0, r4
 80020a0:	f7ff fab0 	bl	8001604 <_ZNSt7__cxx1112basic_stringIcSt11char_traitsIcESaIcEEC2EPKcRKS3_.isra.0>
 80020a4:	2048      	movs	r0, #72	; 0x48
 80020a6:	f008 fa0d 	bl	800a4c4 <_Znwj>
 80020aa:	2303      	movs	r3, #3
 80020ac:	4682      	mov	sl, r0
 80020ae:	e9cd 5501 	strd	r5, r5, [sp, #4]
 80020b2:	9300      	str	r3, [sp, #0]
 80020b4:	4632      	mov	r2, r6
 80020b6:	4623      	mov	r3, r4
 80020b8:	f8d8 1000 	ldr.w	r1, [r8]
 80020bc:	f000 fb90 	bl	80027e0 <_ZN10DigitalPinC1ERVmiNSt7__cxx1112basic_stringIcSt11char_traitsIcESaIcEEEibi>
 80020c0:	4620      	mov	r0, r4
 80020c2:	f008 fa43 	bl	800a54c <_ZNSt7__cxx1112basic_stringIcSt11char_traitsIcESaIcEE10_M_disposeEv>
 80020c6:	4651      	mov	r1, sl
 80020c8:	f8d9 0000 	ldr.w	r0, [r9]
 80020cc:	f000 ff6e 	bl	8002fac <_ZN9pruThread14registerModuleEP6Module>
 80020d0:	4970      	ldr	r1, [pc, #448]	; (8002294 <_Z11loadModulesv+0xb9c>)
 80020d2:	4620      	mov	r0, r4
 80020d4:	f7ff fa96 	bl	8001604 <_ZNSt7__cxx1112basic_stringIcSt11char_traitsIcESaIcEEC2EPKcRKS3_.isra.0>
 80020d8:	2048      	movs	r0, #72	; 0x48
 80020da:	f008 f9f3 	bl	800a4c4 <_Znwj>
 80020de:	2304      	movs	r3, #4
 80020e0:	4682      	mov	sl, r0
 80020e2:	e9cd 5501 	strd	r5, r5, [sp, #4]
 80020e6:	9300      	str	r3, [sp, #0]
 80020e8:	4632      	mov	r2, r6
 80020ea:	4623      	mov	r3, r4
 80020ec:	f8d8 1000 	ldr.w	r1, [r8]
 80020f0:	f000 fb76 	bl	80027e0 <_ZN10DigitalPinC1ERVmiNSt7__cxx1112basic_stringIcSt11char_traitsIcESaIcEEEibi>
 80020f4:	4620      	mov	r0, r4
 80020f6:	f008 fa29 	bl	800a54c <_ZNSt7__cxx1112basic_stringIcSt11char_traitsIcESaIcEE10_M_disposeEv>
 80020fa:	4651      	mov	r1, sl
 80020fc:	f8d9 0000 	ldr.w	r0, [r9]
 8002100:	f000 ff54 	bl	8002fac <_ZN9pruThread14registerModuleEP6Module>
 8002104:	4964      	ldr	r1, [pc, #400]	; (8002298 <_Z11loadModulesv+0xba0>)
 8002106:	4620      	mov	r0, r4
 8002108:	f7ff fa7c 	bl	8001604 <_ZNSt7__cxx1112basic_stringIcSt11char_traitsIcESaIcEEC2EPKcRKS3_.isra.0>
 800210c:	2048      	movs	r0, #72	; 0x48
 800210e:	f008 f9d9 	bl	800a4c4 <_Znwj>
 8002112:	2305      	movs	r3, #5
 8002114:	4682      	mov	sl, r0
 8002116:	e9cd 5501 	strd	r5, r5, [sp, #4]
 800211a:	9300      	str	r3, [sp, #0]
 800211c:	4632      	mov	r2, r6
 800211e:	4623      	mov	r3, r4
 8002120:	f8d8 1000 	ldr.w	r1, [r8]
 8002124:	f000 fb5c 	bl	80027e0 <_ZN10DigitalPinC1ERVmiNSt7__cxx1112basic_stringIcSt11char_traitsIcESaIcEEEibi>
 8002128:	4620      	mov	r0, r4
 800212a:	f008 fa0f 	bl	800a54c <_ZNSt7__cxx1112basic_stringIcSt11char_traitsIcESaIcEE10_M_disposeEv>
 800212e:	4651      	mov	r1, sl
 8002130:	f8d9 0000 	ldr.w	r0, [r9]
 8002134:	f000 ff3a 	bl	8002fac <_ZN9pruThread14registerModuleEP6Module>
 8002138:	4958      	ldr	r1, [pc, #352]	; (800229c <_Z11loadModulesv+0xba4>)
 800213a:	4620      	mov	r0, r4
 800213c:	f7ff fa62 	bl	8001604 <_ZNSt7__cxx1112basic_stringIcSt11char_traitsIcESaIcEEC2EPKcRKS3_.isra.0>
 8002140:	2048      	movs	r0, #72	; 0x48
 8002142:	f008 f9bf 	bl	800a4c4 <_Znwj>
 8002146:	2306      	movs	r3, #6
 8002148:	4682      	mov	sl, r0
 800214a:	e9cd 5501 	strd	r5, r5, [sp, #4]
 800214e:	9300      	str	r3, [sp, #0]
 8002150:	4632      	mov	r2, r6
 8002152:	4623      	mov	r3, r4
 8002154:	f8d8 1000 	ldr.w	r1, [r8]
 8002158:	f000 fb42 	bl	80027e0 <_ZN10DigitalPinC1ERVmiNSt7__cxx1112basic_stringIcSt11char_traitsIcESaIcEEEibi>
 800215c:	4620      	mov	r0, r4
 800215e:	f008 f9f5 	bl	800a54c <_ZNSt7__cxx1112basic_stringIcSt11char_traitsIcESaIcEE10_M_disposeEv>
 8002162:	4651      	mov	r1, sl
 8002164:	f8d9 0000 	ldr.w	r0, [r9]
 8002168:	f000 ff20 	bl	8002fac <_ZN9pruThread14registerModuleEP6Module>
 800216c:	494c      	ldr	r1, [pc, #304]	; (80022a0 <_Z11loadModulesv+0xba8>)
 800216e:	4620      	mov	r0, r4
 8002170:	f7ff fa48 	bl	8001604 <_ZNSt7__cxx1112basic_stringIcSt11char_traitsIcESaIcEEC2EPKcRKS3_.isra.0>
 8002174:	2048      	movs	r0, #72	; 0x48
 8002176:	f008 f9a5 	bl	800a4c4 <_Znwj>
 800217a:	2307      	movs	r3, #7
 800217c:	4682      	mov	sl, r0
 800217e:	e9cd 5501 	strd	r5, r5, [sp, #4]
 8002182:	9300      	str	r3, [sp, #0]
 8002184:	4632      	mov	r2, r6
 8002186:	4623      	mov	r3, r4
 8002188:	f8d8 1000 	ldr.w	r1, [r8]
 800218c:	f000 fb28 	bl	80027e0 <_ZN10DigitalPinC1ERVmiNSt7__cxx1112basic_stringIcSt11char_traitsIcESaIcEEEibi>
 8002190:	4620      	mov	r0, r4
 8002192:	f008 f9db 	bl	800a54c <_ZNSt7__cxx1112basic_stringIcSt11char_traitsIcESaIcEE10_M_disposeEv>
 8002196:	4651      	mov	r1, sl
 8002198:	f8d9 0000 	ldr.w	r0, [r9]
 800219c:	f000 ff06 	bl	8002fac <_ZN9pruThread14registerModuleEP6Module>
 80021a0:	4940      	ldr	r1, [pc, #256]	; (80022a4 <_Z11loadModulesv+0xbac>)
 80021a2:	4620      	mov	r0, r4
 80021a4:	f7ff fa2e 	bl	8001604 <_ZNSt7__cxx1112basic_stringIcSt11char_traitsIcESaIcEEC2EPKcRKS3_.isra.0>
 80021a8:	2048      	movs	r0, #72	; 0x48
 80021aa:	f008 f98b 	bl	800a4c4 <_Znwj>
 80021ae:	2308      	movs	r3, #8
 80021b0:	4682      	mov	sl, r0
 80021b2:	e9cd 5501 	strd	r5, r5, [sp, #4]
 80021b6:	9300      	str	r3, [sp, #0]
 80021b8:	4632      	mov	r2, r6
 80021ba:	4623      	mov	r3, r4
 80021bc:	f8d8 1000 	ldr.w	r1, [r8]
 80021c0:	f000 fb0e 	bl	80027e0 <_ZN10DigitalPinC1ERVmiNSt7__cxx1112basic_stringIcSt11char_traitsIcESaIcEEEibi>
 80021c4:	4620      	mov	r0, r4
 80021c6:	f008 f9c1 	bl	800a54c <_ZNSt7__cxx1112basic_stringIcSt11char_traitsIcESaIcEE10_M_disposeEv>
 80021ca:	4651      	mov	r1, sl
 80021cc:	f8d9 0000 	ldr.w	r0, [r9]
 80021d0:	f000 feec 	bl	8002fac <_ZN9pruThread14registerModuleEP6Module>
 80021d4:	4934      	ldr	r1, [pc, #208]	; (80022a8 <_Z11loadModulesv+0xbb0>)
 80021d6:	4620      	mov	r0, r4
 80021d8:	f7ff fa14 	bl	8001604 <_ZNSt7__cxx1112basic_stringIcSt11char_traitsIcESaIcEEC2EPKcRKS3_.isra.0>
 80021dc:	2048      	movs	r0, #72	; 0x48
 80021de:	f008 f971 	bl	800a4c4 <_Znwj>
 80021e2:	4682      	mov	sl, r0
 80021e4:	e9cd 5501 	strd	r5, r5, [sp, #4]
 80021e8:	9700      	str	r7, [sp, #0]
 80021ea:	4623      	mov	r3, r4
 80021ec:	4632      	mov	r2, r6
 80021ee:	f8d8 1000 	ldr.w	r1, [r8]
 80021f2:	f000 faf5 	bl	80027e0 <_ZN10DigitalPinC1ERVmiNSt7__cxx1112basic_stringIcSt11char_traitsIcESaIcEEEibi>
 80021f6:	4620      	mov	r0, r4
 80021f8:	f008 f9a8 	bl	800a54c <_ZNSt7__cxx1112basic_stringIcSt11char_traitsIcESaIcEE10_M_disposeEv>
 80021fc:	4651      	mov	r1, sl
 80021fe:	f8d9 0000 	ldr.w	r0, [r9]
 8002202:	f000 fed3 	bl	8002fac <_ZN9pruThread14registerModuleEP6Module>
 8002206:	4929      	ldr	r1, [pc, #164]	; (80022ac <_Z11loadModulesv+0xbb4>)
 8002208:	4620      	mov	r0, r4
 800220a:	f7ff f9fb 	bl	8001604 <_ZNSt7__cxx1112basic_stringIcSt11char_traitsIcESaIcEEC2EPKcRKS3_.isra.0>
 800220e:	2048      	movs	r0, #72	; 0x48
 8002210:	f008 f958 	bl	800a4c4 <_Znwj>
 8002214:	230a      	movs	r3, #10
 8002216:	4606      	mov	r6, r0
 8002218:	e9cd 5501 	strd	r5, r5, [sp, #4]
 800221c:	9300      	str	r3, [sp, #0]
 800221e:	2201      	movs	r2, #1
 8002220:	4623      	mov	r3, r4
 8002222:	f8d8 1000 	ldr.w	r1, [r8]
 8002226:	f000 fadb 	bl	80027e0 <_ZN10DigitalPinC1ERVmiNSt7__cxx1112basic_stringIcSt11char_traitsIcESaIcEEEibi>
 800222a:	4620      	mov	r0, r4
 800222c:	f008 f98e 	bl	800a54c <_ZNSt7__cxx1112basic_stringIcSt11char_traitsIcESaIcEE10_M_disposeEv>
 8002230:	4631      	mov	r1, r6
 8002232:	f8d9 0000 	ldr.w	r0, [r9]
 8002236:	f000 feb9 	bl	8002fac <_ZN9pruThread14registerModuleEP6Module>
 800223a:	4d1d      	ldr	r5, [pc, #116]	; (80022b0 <_Z11loadModulesv+0xbb8>)
 800223c:	4b1d      	ldr	r3, [pc, #116]	; (80022b4 <_Z11loadModulesv+0xbbc>)
 800223e:	2070      	movs	r0, #112	; 0x70
 8002240:	602b      	str	r3, [r5, #0]
 8002242:	f008 f93f 	bl	800a4c4 <_Znwj>
 8002246:	4604      	mov	r4, r0
 8002248:	6829      	ldr	r1, [r5, #0]
 800224a:	f000 fcd3 	bl	8002bf4 <_ZN10SpindlePWMC1ERVf>
 800224e:	4621      	mov	r1, r4
 8002250:	f8d9 0000 	ldr.w	r0, [r9]
 8002254:	f000 feaa 	bl	8002fac <_ZN9pruThread14registerModuleEP6Module>
 8002258:	f44f 70b4 	mov.w	r0, #360	; 0x168
 800225c:	f008 f932 	bl	800a4c4 <_Znwj>
 8002260:	4604      	mov	r4, r0
 8002262:	4b15      	ldr	r3, [pc, #84]	; (80022b8 <_Z11loadModulesv+0xbc0>)
 8002264:	681a      	ldr	r2, [r3, #0]
 8002266:	4b15      	ldr	r3, [pc, #84]	; (80022bc <_Z11loadModulesv+0xbc4>)
 8002268:	6819      	ldr	r1, [r3, #0]
 800226a:	e02b      	b.n	80022c4 <_Z11loadModulesv+0xbcc>
 800226c:	0800b925 	.word	0x0800b925
 8002270:	0800b92a 	.word	0x0800b92a
 8002274:	0800b92f 	.word	0x0800b92f
 8002278:	0800b934 	.word	0x0800b934
 800227c:	0800b939 	.word	0x0800b939
 8002280:	0800b93e 	.word	0x0800b93e
 8002284:	0800b943 	.word	0x0800b943
 8002288:	0800b949 	.word	0x0800b949
 800228c:	0800b94e 	.word	0x0800b94e
 8002290:	0800b953 	.word	0x0800b953
 8002294:	0800b958 	.word	0x0800b958
 8002298:	0800b95d 	.word	0x0800b95d
 800229c:	0800b962 	.word	0x0800b962
 80022a0:	0800b967 	.word	0x0800b967
 80022a4:	0800b96c 	.word	0x0800b96c
 80022a8:	0800b971 	.word	0x0800b971
 80022ac:	0800b977 	.word	0x0800b977
 80022b0:	200002ec 	.word	0x200002ec
 80022b4:	2000036c 	.word	0x2000036c
 80022b8:	200002e4 	.word	0x200002e4
 80022bc:	20000000 	.word	0x20000000
 80022c0:	200002e8 	.word	0x200002e8
 80022c4:	f000 fb6e 	bl	80029a4 <_ZN5NVMPGC1ERV9mpgData_tRVt>
 80022c8:	4b04      	ldr	r3, [pc, #16]	; (80022dc <_Z11loadModulesv+0xbe4>)
 80022ca:	4621      	mov	r1, r4
 80022cc:	f8d9 0000 	ldr.w	r0, [r9]
 80022d0:	601c      	str	r4, [r3, #0]
 80022d2:	f000 fe6b 	bl	8002fac <_ZN9pruThread14registerModuleEP6Module>
 80022d6:	b013      	add	sp, #76	; 0x4c
 80022d8:	e8bd 8ff0 	ldmia.w	sp!, {r4, r5, r6, r7, r8, r9, sl, fp, pc}
 80022dc:	200001dc 	.word	0x200001dc

080022e0 <_Z18SystemClock_Configv>:
 80022e0:	b510      	push	{r4, lr}
 80022e2:	b092      	sub	sp, #72	; 0x48
 80022e4:	2210      	movs	r2, #16
 80022e6:	2100      	movs	r1, #0
 80022e8:	a808      	add	r0, sp, #32
 80022ea:	f008 fa17 	bl	800a71c <memset>
 80022ee:	2100      	movs	r1, #0
 80022f0:	2214      	movs	r2, #20
 80022f2:	a801      	add	r0, sp, #4
 80022f4:	f008 fa12 	bl	800a71c <memset>
 80022f8:	2301      	movs	r3, #1
 80022fa:	2402      	movs	r4, #2
 80022fc:	e9cd 3306 	strd	r3, r3, [sp, #24]
 8002300:	f44f 0380 	mov.w	r3, #4194304	; 0x400000
 8002304:	2119      	movs	r1, #25
 8002306:	e9cd 430c 	strd	r4, r3, [sp, #48]	; 0x30
 800230a:	23f0      	movs	r3, #240	; 0xf0
 800230c:	e9cd 130e 	strd	r1, r3, [sp, #56]	; 0x38
 8002310:	2304      	movs	r3, #4
 8002312:	a806      	add	r0, sp, #24
 8002314:	9410      	str	r4, [sp, #64]	; 0x40
 8002316:	9311      	str	r3, [sp, #68]	; 0x44
 8002318:	f001 fe8a 	bl	8004030 <HAL_RCC_OscConfig>
 800231c:	b108      	cbz	r0, 8002322 <_Z18SystemClock_Configv+0x42>
 800231e:	b672      	cpsid	i
 8002320:	e7fe      	b.n	8002320 <_Z18SystemClock_Configv+0x40>
 8002322:	230f      	movs	r3, #15
 8002324:	f44f 52a0 	mov.w	r2, #5120	; 0x1400
 8002328:	e9cd 3401 	strd	r3, r4, [sp, #4]
 800232c:	f44f 5380 	mov.w	r3, #4096	; 0x1000
 8002330:	9003      	str	r0, [sp, #12]
 8002332:	2103      	movs	r1, #3
 8002334:	a801      	add	r0, sp, #4
 8002336:	e9cd 2304 	strd	r2, r3, [sp, #16]
 800233a:	f002 f83f 	bl	80043bc <HAL_RCC_ClockConfig>
 800233e:	b108      	cbz	r0, 8002344 <_Z18SystemClock_Configv+0x64>
 8002340:	b672      	cpsid	i
 8002342:	e7fe      	b.n	8002342 <_Z18SystemClock_Configv+0x62>
 8002344:	b012      	add	sp, #72	; 0x48
 8002346:	bd10      	pop	{r4, pc}

08002348 <_Z14udpServer_initv>:
 8002348:	b513      	push	{r0, r1, r4, lr}
 800234a:	f006 fe79 	bl	8009040 <udp_new>
 800234e:	f04f 330a 	mov.w	r3, #168430090	; 0xa0a0a0a
 8002352:	f646 222d 	movw	r2, #27181	; 0x6a2d
 8002356:	a901      	add	r1, sp, #4
 8002358:	4604      	mov	r4, r0
 800235a:	9301      	str	r3, [sp, #4]
 800235c:	f006 fd26 	bl	8008dac <udp_bind>
 8002360:	4602      	mov	r2, r0
 8002362:	b998      	cbnz	r0, 800238c <_Z14udpServer_initv+0x44>
 8002364:	4620      	mov	r0, r4
 8002366:	490d      	ldr	r1, [pc, #52]	; (800239c <_Z14udpServer_initv+0x54>)
 8002368:	f006 fe4e 	bl	8009008 <udp_recv>
 800236c:	f006 fe68 	bl	8009040 <udp_new>
 8002370:	f646 222e 	movw	r2, #27182	; 0x6a2e
 8002374:	a901      	add	r1, sp, #4
 8002376:	4604      	mov	r4, r0
 8002378:	f006 fd18 	bl	8008dac <udp_bind>
 800237c:	4602      	mov	r2, r0
 800237e:	b948      	cbnz	r0, 8002394 <_Z14udpServer_initv+0x4c>
 8002380:	4620      	mov	r0, r4
 8002382:	4907      	ldr	r1, [pc, #28]	; (80023a0 <_Z14udpServer_initv+0x58>)
 8002384:	f006 fe40 	bl	8009008 <udp_recv>
 8002388:	b002      	add	sp, #8
 800238a:	bd10      	pop	{r4, pc}
 800238c:	4620      	mov	r0, r4
 800238e:	f006 fe3f 	bl	8009010 <udp_remove>
 8002392:	e7eb      	b.n	800236c <_Z14udpServer_initv+0x24>
 8002394:	4620      	mov	r0, r4
 8002396:	f006 fe3b 	bl	8009010 <udp_remove>
 800239a:	e7f5      	b.n	8002388 <_Z14udpServer_initv+0x40>
 800239c:	080014ed 	.word	0x080014ed
 80023a0:	080015c9 	.word	0x080015c9

080023a4 <main>:
 80023a4:	b5f8      	push	{r3, r4, r5, r6, r7, lr}
 80023a6:	f000 feef 	bl	8003188 <HAL_Init>
 80023aa:	f7ff ff99 	bl	80022e0 <_Z18SystemClock_Configv>
 80023ae:	f002 fd63 	bl	8004e78 <MX_LWIP_Init>
 80023b2:	f44f 33e1 	mov.w	r3, #115200	; 0x1c200
 80023b6:	4844      	ldr	r0, [pc, #272]	; (80024c8 <main+0x124>)
 80023b8:	4a44      	ldr	r2, [pc, #272]	; (80024cc <main+0x128>)
 80023ba:	e9c0 2300 	strd	r2, r3, [r0]
 80023be:	2300      	movs	r3, #0
 80023c0:	220c      	movs	r2, #12
 80023c2:	e9c0 3302 	strd	r3, r3, [r0, #8]
 80023c6:	e9c0 2305 	strd	r2, r3, [r0, #20]
 80023ca:	6103      	str	r3, [r0, #16]
 80023cc:	61c3      	str	r3, [r0, #28]
 80023ce:	f002 fbc9 	bl	8004b64 <HAL_UART_Init>
 80023d2:	4605      	mov	r5, r0
 80023d4:	b108      	cbz	r0, 80023da <main+0x36>
 80023d6:	b672      	cpsid	i
 80023d8:	e7fe      	b.n	80023d8 <main+0x34>
 80023da:	483d      	ldr	r0, [pc, #244]	; (80024d0 <main+0x12c>)
 80023dc:	f008 fad2 	bl	800a984 <puts>
 80023e0:	2405      	movs	r4, #5
 80023e2:	4e3c      	ldr	r6, [pc, #240]	; (80024d4 <main+0x130>)
 80023e4:	4f3c      	ldr	r7, [pc, #240]	; (80024d8 <main+0x134>)
 80023e6:	2d06      	cmp	r5, #6
 80023e8:	d868      	bhi.n	80024bc <main+0x118>
 80023ea:	e8df f005 	tbb	[pc, r5]
 80023ee:	1804      	.short	0x1804
 80023f0:	554e4032 	.word	0x554e4032
 80023f4:	63          	.byte	0x63
 80023f5:	00          	.byte	0x00
 80023f6:	b114      	cbz	r4, 80023fe <main+0x5a>
 80023f8:	4838      	ldr	r0, [pc, #224]	; (80024dc <main+0x138>)
 80023fa:	f008 fac3 	bl	800a984 <puts>
 80023fe:	f7ff f941 	bl	8001684 <_Z13createThreadsv>
 8002402:	2401      	movs	r4, #1
 8002404:	f7ff f978 	bl	80016f8 <_Z11loadModulesv>
 8002408:	f7ff ff9e 	bl	8002348 <_Z14udpServer_initv>
 800240c:	4834      	ldr	r0, [pc, #208]	; (80024e0 <main+0x13c>)
 800240e:	f002 fe4d 	bl	80050ac <ethernetif_input>
 8002412:	f006 fc05 	bl	8008c20 <sys_check_timeouts>
 8002416:	462b      	mov	r3, r5
 8002418:	4625      	mov	r5, r4
 800241a:	461c      	mov	r4, r3
 800241c:	e7e3      	b.n	80023e6 <main+0x42>
 800241e:	2c01      	cmp	r4, #1
 8002420:	d002      	beq.n	8002428 <main+0x84>
 8002422:	4830      	ldr	r0, [pc, #192]	; (80024e4 <main+0x140>)
 8002424:	f008 faae 	bl	800a984 <puts>
 8002428:	4c2f      	ldr	r4, [pc, #188]	; (80024e8 <main+0x144>)
 800242a:	7823      	ldrb	r3, [r4, #0]
 800242c:	b97b      	cbnz	r3, 800244e <main+0xaa>
 800242e:	482f      	ldr	r0, [pc, #188]	; (80024ec <main+0x148>)
 8002430:	f008 faa8 	bl	800a984 <puts>
 8002434:	4b2e      	ldr	r3, [pc, #184]	; (80024f0 <main+0x14c>)
 8002436:	6818      	ldr	r0, [r3, #0]
 8002438:	f000 fd2e 	bl	8002e98 <_ZN9pruThread11startThreadEv>
 800243c:	482d      	ldr	r0, [pc, #180]	; (80024f4 <main+0x150>)
 800243e:	f008 faa1 	bl	800a984 <puts>
 8002442:	4b2d      	ldr	r3, [pc, #180]	; (80024f8 <main+0x154>)
 8002444:	6818      	ldr	r0, [r3, #0]
 8002446:	f000 fd27 	bl	8002e98 <_ZN9pruThread11startThreadEv>
 800244a:	2301      	movs	r3, #1
 800244c:	7023      	strb	r3, [r4, #0]
 800244e:	2402      	movs	r4, #2
 8002450:	e7dc      	b.n	800240c <main+0x68>
 8002452:	2c02      	cmp	r4, #2
 8002454:	d002      	beq.n	800245c <main+0xb8>
 8002456:	4829      	ldr	r0, [pc, #164]	; (80024fc <main+0x158>)
 8002458:	f008 fa94 	bl	800a984 <puts>
 800245c:	4b28      	ldr	r3, [pc, #160]	; (8002500 <main+0x15c>)
 800245e:	6818      	ldr	r0, [r3, #0]
 8002460:	f000 f973 	bl	800274a <_ZN11RemoraComms9getStatusEv>
 8002464:	2800      	cmp	r0, #0
 8002466:	bf0c      	ite	eq
 8002468:	462c      	moveq	r4, r5
 800246a:	2403      	movne	r4, #3
 800246c:	e7ce      	b.n	800240c <main+0x68>
 800246e:	2c03      	cmp	r4, #3
 8002470:	d002      	beq.n	8002478 <main+0xd4>
 8002472:	4824      	ldr	r0, [pc, #144]	; (8002504 <main+0x160>)
 8002474:	f008 fa86 	bl	800a984 <puts>
 8002478:	4b21      	ldr	r3, [pc, #132]	; (8002500 <main+0x15c>)
 800247a:	6818      	ldr	r0, [r3, #0]
 800247c:	f000 f965 	bl	800274a <_ZN11RemoraComms9getStatusEv>
 8002480:	2800      	cmp	r0, #0
 8002482:	bf14      	ite	ne
 8002484:	462c      	movne	r4, r5
 8002486:	2405      	moveq	r4, #5
 8002488:	e7c0      	b.n	800240c <main+0x68>
 800248a:	2c04      	cmp	r4, #4
 800248c:	d01a      	beq.n	80024c4 <main+0x120>
 800248e:	481e      	ldr	r0, [pc, #120]	; (8002508 <main+0x164>)
 8002490:	f008 fa78 	bl	800a984 <puts>
 8002494:	462c      	mov	r4, r5
 8002496:	e7b9      	b.n	800240c <main+0x68>
 8002498:	2c05      	cmp	r4, #5
 800249a:	d002      	beq.n	80024a2 <main+0xfe>
 800249c:	481b      	ldr	r0, [pc, #108]	; (800250c <main+0x168>)
 800249e:	f008 fa71 	bl	800a984 <puts>
 80024a2:	4630      	mov	r0, r6
 80024a4:	f008 fa6e 	bl	800a984 <puts>
 80024a8:	2344      	movs	r3, #68	; 0x44
 80024aa:	2200      	movs	r2, #0
 80024ac:	3b01      	subs	r3, #1
 80024ae:	d3ce      	bcc.n	800244e <main+0xaa>
 80024b0:	54fa      	strb	r2, [r7, r3]
 80024b2:	e7fb      	b.n	80024ac <main+0x108>
 80024b4:	4816      	ldr	r0, [pc, #88]	; (8002510 <main+0x16c>)
 80024b6:	f008 fa65 	bl	800a984 <puts>
 80024ba:	e7fe      	b.n	80024ba <main+0x116>
 80024bc:	4623      	mov	r3, r4
 80024be:	462c      	mov	r4, r5
 80024c0:	461d      	mov	r5, r3
 80024c2:	e7a3      	b.n	800240c <main+0x68>
 80024c4:	4625      	mov	r5, r4
 80024c6:	e7a1      	b.n	800240c <main+0x68>
 80024c8:	2000021c 	.word	0x2000021c
 80024cc:	40004400 	.word	0x40004400
 80024d0:	0800b97d 	.word	0x0800b97d
 80024d4:	0800ba5e 	.word	0x0800ba5e
 80024d8:	20000348 	.word	0x20000348
 80024dc:	0800b992 	.word	0x0800b992
 80024e0:	200001e8 	.word	0x200001e8
 80024e4:	0800b9ac 	.word	0x0800b9ac
 80024e8:	20000390 	.word	0x20000390
 80024ec:	0800b9c5 	.word	0x0800b9c5
 80024f0:	200001e0 	.word	0x200001e0
 80024f4:	0800b9df 	.word	0x0800b9df
 80024f8:	2000038c 	.word	0x2000038c
 80024fc:	0800b9fa 	.word	0x0800b9fa
 8002500:	200001e4 	.word	0x200001e4
 8002504:	0800ba12 	.word	0x0800ba12
 8002508:	0800ba2d 	.word	0x0800ba2d
 800250c:	0800ba45 	.word	0x0800ba45
 8002510:	0800ba74 	.word	0x0800ba74

08002514 <HAL_MspInit>:
 8002514:	2100      	movs	r1, #0
 8002516:	b082      	sub	sp, #8
 8002518:	4b0b      	ldr	r3, [pc, #44]	; (8002548 <HAL_MspInit+0x34>)
 800251a:	9100      	str	r1, [sp, #0]
 800251c:	6c5a      	ldr	r2, [r3, #68]	; 0x44
 800251e:	f442 4280 	orr.w	r2, r2, #16384	; 0x4000
 8002522:	645a      	str	r2, [r3, #68]	; 0x44
 8002524:	6c5a      	ldr	r2, [r3, #68]	; 0x44
 8002526:	f402 4280 	and.w	r2, r2, #16384	; 0x4000
 800252a:	9200      	str	r2, [sp, #0]
 800252c:	9a00      	ldr	r2, [sp, #0]
 800252e:	9101      	str	r1, [sp, #4]
 8002530:	6c1a      	ldr	r2, [r3, #64]	; 0x40
 8002532:	f042 5280 	orr.w	r2, r2, #268435456	; 0x10000000
 8002536:	641a      	str	r2, [r3, #64]	; 0x40
 8002538:	6c1b      	ldr	r3, [r3, #64]	; 0x40
 800253a:	f003 5380 	and.w	r3, r3, #268435456	; 0x10000000
 800253e:	9301      	str	r3, [sp, #4]
 8002540:	9b01      	ldr	r3, [sp, #4]
 8002542:	b002      	add	sp, #8
 8002544:	4770      	bx	lr
 8002546:	bf00      	nop
 8002548:	40023800 	.word	0x40023800

0800254c <HAL_UART_MspInit>:
 800254c:	2214      	movs	r2, #20
 800254e:	b510      	push	{r4, lr}
 8002550:	4604      	mov	r4, r0
 8002552:	b08a      	sub	sp, #40	; 0x28
 8002554:	eb0d 0002 	add.w	r0, sp, r2
 8002558:	2100      	movs	r1, #0
 800255a:	f008 f8df 	bl	800a71c <memset>
 800255e:	6823      	ldr	r3, [r4, #0]
 8002560:	4a27      	ldr	r2, [pc, #156]	; (8002600 <HAL_UART_MspInit+0xb4>)
 8002562:	4293      	cmp	r3, r2
 8002564:	d126      	bne.n	80025b4 <HAL_UART_MspInit+0x68>
 8002566:	2200      	movs	r2, #0
 8002568:	4b26      	ldr	r3, [pc, #152]	; (8002604 <HAL_UART_MspInit+0xb8>)
 800256a:	9201      	str	r2, [sp, #4]
 800256c:	6c59      	ldr	r1, [r3, #68]	; 0x44
 800256e:	f44f 64c0 	mov.w	r4, #1536	; 0x600
 8002572:	f041 0110 	orr.w	r1, r1, #16
 8002576:	6459      	str	r1, [r3, #68]	; 0x44
 8002578:	6c59      	ldr	r1, [r3, #68]	; 0x44
 800257a:	f04f 0c03 	mov.w	ip, #3
 800257e:	f001 0110 	and.w	r1, r1, #16
 8002582:	9101      	str	r1, [sp, #4]
 8002584:	9901      	ldr	r1, [sp, #4]
 8002586:	9202      	str	r2, [sp, #8]
 8002588:	6b19      	ldr	r1, [r3, #48]	; 0x30
 800258a:	481f      	ldr	r0, [pc, #124]	; (8002608 <HAL_UART_MspInit+0xbc>)
 800258c:	f041 0101 	orr.w	r1, r1, #1
 8002590:	6319      	str	r1, [r3, #48]	; 0x30
 8002592:	6b1b      	ldr	r3, [r3, #48]	; 0x30
 8002594:	a905      	add	r1, sp, #20
 8002596:	f003 0301 	and.w	r3, r3, #1
 800259a:	9302      	str	r3, [sp, #8]
 800259c:	9b02      	ldr	r3, [sp, #8]
 800259e:	2302      	movs	r3, #2
 80025a0:	e9cd 4305 	strd	r4, r3, [sp, #20]
 80025a4:	2307      	movs	r3, #7
 80025a6:	e9cd c308 	strd	ip, r3, [sp, #32]
 80025aa:	9207      	str	r2, [sp, #28]
 80025ac:	f001 fc4e 	bl	8003e4c <HAL_GPIO_Init>
 80025b0:	b00a      	add	sp, #40	; 0x28
 80025b2:	bd10      	pop	{r4, pc}
 80025b4:	4a15      	ldr	r2, [pc, #84]	; (800260c <HAL_UART_MspInit+0xc0>)
 80025b6:	4293      	cmp	r3, r2
 80025b8:	d1fa      	bne.n	80025b0 <HAL_UART_MspInit+0x64>
 80025ba:	2200      	movs	r2, #0
 80025bc:	4b11      	ldr	r3, [pc, #68]	; (8002604 <HAL_UART_MspInit+0xb8>)
 80025be:	9203      	str	r2, [sp, #12]
 80025c0:	6c19      	ldr	r1, [r3, #64]	; 0x40
 80025c2:	2003      	movs	r0, #3
 80025c4:	f441 3100 	orr.w	r1, r1, #131072	; 0x20000
 80025c8:	6419      	str	r1, [r3, #64]	; 0x40
 80025ca:	6c19      	ldr	r1, [r3, #64]	; 0x40
 80025cc:	f401 3100 	and.w	r1, r1, #131072	; 0x20000
 80025d0:	9103      	str	r1, [sp, #12]
 80025d2:	9903      	ldr	r1, [sp, #12]
 80025d4:	9204      	str	r2, [sp, #16]
 80025d6:	6b19      	ldr	r1, [r3, #48]	; 0x30
 80025d8:	f041 0108 	orr.w	r1, r1, #8
 80025dc:	6319      	str	r1, [r3, #48]	; 0x30
 80025de:	6b1b      	ldr	r3, [r3, #48]	; 0x30
 80025e0:	2160      	movs	r1, #96	; 0x60
 80025e2:	f003 0308 	and.w	r3, r3, #8
 80025e6:	9304      	str	r3, [sp, #16]
 80025e8:	9b04      	ldr	r3, [sp, #16]
 80025ea:	2302      	movs	r3, #2
 80025ec:	e9cd 1305 	strd	r1, r3, [sp, #20]
 80025f0:	2307      	movs	r3, #7
 80025f2:	9207      	str	r2, [sp, #28]
 80025f4:	e9cd 0308 	strd	r0, r3, [sp, #32]
 80025f8:	a905      	add	r1, sp, #20
 80025fa:	4805      	ldr	r0, [pc, #20]	; (8002610 <HAL_UART_MspInit+0xc4>)
 80025fc:	e7d6      	b.n	80025ac <HAL_UART_MspInit+0x60>
 80025fe:	bf00      	nop
 8002600:	40011000 	.word	0x40011000
 8002604:	40023800 	.word	0x40023800
 8002608:	40020000 	.word	0x40020000
 800260c:	40004400 	.word	0x40004400
 8002610:	40020c00 	.word	0x40020c00

08002614 <NMI_Handler>:
 8002614:	e7fe      	b.n	8002614 <NMI_Handler>

08002616 <HardFault_Handler>:
 8002616:	e7fe      	b.n	8002616 <HardFault_Handler>

08002618 <MemManage_Handler>:
 8002618:	e7fe      	b.n	8002618 <MemManage_Handler>

0800261a <BusFault_Handler>:
 800261a:	e7fe      	b.n	800261a <BusFault_Handler>

0800261c <UsageFault_Handler>:
 800261c:	e7fe      	b.n	800261c <UsageFault_Handler>

0800261e <SVC_Handler>:
 800261e:	4770      	bx	lr

08002620 <DebugMon_Handler>:
 8002620:	4770      	bx	lr

08002622 <PendSV_Handler>:
 8002622:	4770      	bx	lr

08002624 <SysTick_Handler>:
 8002624:	f000 bdca 	b.w	80031bc <HAL_IncTick>

08002628 <_getpid>:
 8002628:	2001      	movs	r0, #1
 800262a:	4770      	bx	lr

0800262c <_kill>:
 800262c:	2216      	movs	r2, #22
 800262e:	4b02      	ldr	r3, [pc, #8]	; (8002638 <_kill+0xc>)
 8002630:	f04f 30ff 	mov.w	r0, #4294967295
 8002634:	601a      	str	r2, [r3, #0]
 8002636:	4770      	bx	lr
 8002638:	20006ba8 	.word	0x20006ba8

0800263c <_exit>:
 800263c:	2216      	movs	r2, #22
 800263e:	4b01      	ldr	r3, [pc, #4]	; (8002644 <_exit+0x8>)
 8002640:	601a      	str	r2, [r3, #0]
 8002642:	e7fe      	b.n	8002642 <_exit+0x6>
 8002644:	20006ba8 	.word	0x20006ba8

08002648 <_read>:
 8002648:	b570      	push	{r4, r5, r6, lr}
 800264a:	460e      	mov	r6, r1
 800264c:	4614      	mov	r4, r2
 800264e:	2500      	movs	r5, #0
 8002650:	42a5      	cmp	r5, r4
 8002652:	db01      	blt.n	8002658 <_read+0x10>
 8002654:	4620      	mov	r0, r4
 8002656:	bd70      	pop	{r4, r5, r6, pc}
 8002658:	f3af 8000 	nop.w
 800265c:	5570      	strb	r0, [r6, r5]
 800265e:	3501      	adds	r5, #1
 8002660:	e7f6      	b.n	8002650 <_read+0x8>

08002662 <_write>:
 8002662:	b570      	push	{r4, r5, r6, lr}
 8002664:	460e      	mov	r6, r1
 8002666:	4614      	mov	r4, r2
 8002668:	2500      	movs	r5, #0
 800266a:	42a5      	cmp	r5, r4
 800266c:	db01      	blt.n	8002672 <_write+0x10>
 800266e:	4620      	mov	r0, r4
 8002670:	bd70      	pop	{r4, r5, r6, pc}
 8002672:	5d70      	ldrb	r0, [r6, r5]
 8002674:	f7ff f830 	bl	80016d8 <__io_putchar>
 8002678:	3501      	adds	r5, #1
 800267a:	e7f6      	b.n	800266a <_write+0x8>

0800267c <_close>:
 800267c:	f04f 30ff 	mov.w	r0, #4294967295
 8002680:	4770      	bx	lr

08002682 <_fstat>:
 8002682:	f44f 5300 	mov.w	r3, #8192	; 0x2000
 8002686:	2000      	movs	r0, #0
 8002688:	604b      	str	r3, [r1, #4]
 800268a:	4770      	bx	lr

0800268c <_isatty>:
 800268c:	2001      	movs	r0, #1
 800268e:	4770      	bx	lr

08002690 <_lseek>:
 8002690:	2000      	movs	r0, #0
 8002692:	4770      	bx	lr

08002694 <_sbrk>:
 8002694:	4b0a      	ldr	r3, [pc, #40]	; (80026c0 <_sbrk+0x2c>)
 8002696:	4602      	mov	r2, r0
 8002698:	6819      	ldr	r1, [r3, #0]
 800269a:	b510      	push	{r4, lr}
 800269c:	b909      	cbnz	r1, 80026a2 <_sbrk+0xe>
 800269e:	4909      	ldr	r1, [pc, #36]	; (80026c4 <_sbrk+0x30>)
 80026a0:	6019      	str	r1, [r3, #0]
 80026a2:	6818      	ldr	r0, [r3, #0]
 80026a4:	4c08      	ldr	r4, [pc, #32]	; (80026c8 <_sbrk+0x34>)
 80026a6:	4909      	ldr	r1, [pc, #36]	; (80026cc <_sbrk+0x38>)
 80026a8:	4402      	add	r2, r0
 80026aa:	1b09      	subs	r1, r1, r4
 80026ac:	428a      	cmp	r2, r1
 80026ae:	bf81      	itttt	hi
 80026b0:	220c      	movhi	r2, #12
 80026b2:	4b07      	ldrhi	r3, [pc, #28]	; (80026d0 <_sbrk+0x3c>)
 80026b4:	f04f 30ff 	movhi.w	r0, #4294967295
 80026b8:	601a      	strhi	r2, [r3, #0]
 80026ba:	bf98      	it	ls
 80026bc:	601a      	strls	r2, [r3, #0]
 80026be:	bd10      	pop	{r4, pc}
 80026c0:	200003d8 	.word	0x200003d8
 80026c4:	20006bb8 	.word	0x20006bb8
 80026c8:	00000400 	.word	0x00000400
 80026cc:	2001c000 	.word	0x2001c000
 80026d0:	20006ba8 	.word	0x20006ba8

080026d4 <SystemInit>:
 80026d4:	4770      	bx	lr

080026d6 <_ZN11RemoraComms6updateEv>:
 80026d6:	7d02      	ldrb	r2, [r0, #20]
 80026d8:	b132      	cbz	r2, 80026e8 <_ZN11RemoraComms6updateEv+0x12>
 80026da:	2300      	movs	r3, #0
 80026dc:	7583      	strb	r3, [r0, #22]
 80026de:	2301      	movs	r3, #1
 80026e0:	7543      	strb	r3, [r0, #21]
 80026e2:	2300      	movs	r3, #0
 80026e4:	7503      	strb	r3, [r0, #20]
 80026e6:	4770      	bx	lr
 80026e8:	7d83      	ldrb	r3, [r0, #22]
 80026ea:	3301      	adds	r3, #1
 80026ec:	b2db      	uxtb	r3, r3
 80026ee:	2b05      	cmp	r3, #5
 80026f0:	bf92      	itee	ls
 80026f2:	7583      	strbls	r3, [r0, #22]
 80026f4:	7582      	strbhi	r2, [r0, #22]
 80026f6:	7542      	strbhi	r2, [r0, #21]
 80026f8:	e7f3      	b.n	80026e2 <_ZN11RemoraComms6updateEv+0xc>
	...

080026fc <_ZN11RemoraCommsD1Ev>:
 80026fc:	b510      	push	{r4, lr}
 80026fe:	4604      	mov	r4, r0
 8002700:	4b02      	ldr	r3, [pc, #8]	; (800270c <_ZN11RemoraCommsD1Ev+0x10>)
 8002702:	6003      	str	r3, [r0, #0]
 8002704:	f000 f8a0 	bl	8002848 <_ZN6ModuleD1Ev>
 8002708:	4620      	mov	r0, r4
 800270a:	bd10      	pop	{r4, pc}
 800270c:	0800bae4 	.word	0x0800bae4

08002710 <_ZN11RemoraCommsD0Ev>:
 8002710:	b510      	push	{r4, lr}
 8002712:	4604      	mov	r4, r0
 8002714:	f7ff fff2 	bl	80026fc <_ZN11RemoraCommsD1Ev>
 8002718:	4620      	mov	r0, r4
 800271a:	2118      	movs	r1, #24
 800271c:	f007 fed0 	bl	800a4c0 <_ZdlPvj>
 8002720:	4620      	mov	r0, r4
 8002722:	bd10      	pop	{r4, pc}

08002724 <_ZN11RemoraCommsC1Ev>:
 8002724:	b510      	push	{r4, lr}
 8002726:	4604      	mov	r4, r0
 8002728:	f000 f898 	bl	800285c <_ZN6ModuleC1Ev>
 800272c:	4b03      	ldr	r3, [pc, #12]	; (800273c <_ZN11RemoraCommsC1Ev+0x18>)
 800272e:	4804      	ldr	r0, [pc, #16]	; (8002740 <_ZN11RemoraCommsC1Ev+0x1c>)
 8002730:	6023      	str	r3, [r4, #0]
 8002732:	f008 f927 	bl	800a984 <puts>
 8002736:	4620      	mov	r0, r4
 8002738:	bd10      	pop	{r4, pc}
 800273a:	bf00      	nop
 800273c:	0800bae4 	.word	0x0800bae4
 8002740:	0800baa7 	.word	0x0800baa7

08002744 <_ZN11RemoraComms12dataReceivedEv>:
 8002744:	2301      	movs	r3, #1
 8002746:	7503      	strb	r3, [r0, #20]
 8002748:	4770      	bx	lr

0800274a <_ZN11RemoraComms9getStatusEv>:
 800274a:	7d40      	ldrb	r0, [r0, #21]
 800274c:	4770      	bx	lr

0800274e <_ZN10DigitalPin10slowUpdateEv>:
 800274e:	4770      	bx	lr

08002750 <_ZN10DigitalPinD1Ev>:
 8002750:	b510      	push	{r4, lr}
 8002752:	4604      	mov	r4, r0
 8002754:	4b04      	ldr	r3, [pc, #16]	; (8002768 <_ZN10DigitalPinD1Ev+0x18>)
 8002756:	f840 3b2c 	str.w	r3, [r0], #44
 800275a:	f007 fef7 	bl	800a54c <_ZNSt7__cxx1112basic_stringIcSt11char_traitsIcESaIcEE10_M_disposeEv>
 800275e:	4620      	mov	r0, r4
 8002760:	f000 f872 	bl	8002848 <_ZN6ModuleD1Ev>
 8002764:	4620      	mov	r0, r4
 8002766:	bd10      	pop	{r4, pc}
 8002768:	0800bb08 	.word	0x0800bb08

0800276c <_ZN10DigitalPinD0Ev>:
 800276c:	b510      	push	{r4, lr}
 800276e:	4604      	mov	r4, r0
 8002770:	f7ff ffee 	bl	8002750 <_ZN10DigitalPinD1Ev>
 8002774:	4620      	mov	r0, r4
 8002776:	2148      	movs	r1, #72	; 0x48
 8002778:	f007 fea2 	bl	800a4c0 <_ZdlPvj>
 800277c:	4620      	mov	r0, r4
 800277e:	bd10      	pop	{r4, pc}

08002780 <_ZN10DigitalPin6updateEv>:
 8002780:	b510      	push	{r4, lr}
 8002782:	4604      	mov	r4, r0
 8002784:	6c43      	ldr	r3, [r0, #68]	; 0x44
 8002786:	6ad8      	ldr	r0, [r3, #44]	; 0x2c
 8002788:	8bd9      	ldrh	r1, [r3, #30]
 800278a:	6a63      	ldr	r3, [r4, #36]	; 0x24
 800278c:	b9a3      	cbnz	r3, 80027b8 <_ZN10DigitalPin6updateEv+0x38>
 800278e:	f001 fc43 	bl	8004018 <HAL_GPIO_ReadPin>
 8002792:	7f23      	ldrb	r3, [r4, #28]
 8002794:	b94b      	cbnz	r3, 80027aa <_ZN10DigitalPin6updateEv+0x2a>
 8002796:	3800      	subs	r0, #0
 8002798:	bf18      	it	ne
 800279a:	2001      	movne	r0, #1
 800279c:	6963      	ldr	r3, [r4, #20]
 800279e:	6a22      	ldr	r2, [r4, #32]
 80027a0:	6819      	ldr	r1, [r3, #0]
 80027a2:	b130      	cbz	r0, 80027b2 <_ZN10DigitalPin6updateEv+0x32>
 80027a4:	430a      	orrs	r2, r1
 80027a6:	601a      	str	r2, [r3, #0]
 80027a8:	bd10      	pop	{r4, pc}
 80027aa:	fab0 f080 	clz	r0, r0
 80027ae:	0940      	lsrs	r0, r0, #5
 80027b0:	e7f4      	b.n	800279c <_ZN10DigitalPin6updateEv+0x1c>
 80027b2:	ea21 0202 	bic.w	r2, r1, r2
 80027b6:	e7f6      	b.n	80027a6 <_ZN10DigitalPin6updateEv+0x26>
 80027b8:	6963      	ldr	r3, [r4, #20]
 80027ba:	681a      	ldr	r2, [r3, #0]
 80027bc:	6a23      	ldr	r3, [r4, #32]
 80027be:	401a      	ands	r2, r3
 80027c0:	7f23      	ldrb	r3, [r4, #28]
 80027c2:	b943      	cbnz	r3, 80027d6 <_ZN10DigitalPin6updateEv+0x56>
 80027c4:	3a00      	subs	r2, #0
 80027c6:	bf18      	it	ne
 80027c8:	2201      	movne	r2, #1
 80027ca:	b102      	cbz	r2, 80027ce <_ZN10DigitalPin6updateEv+0x4e>
 80027cc:	2201      	movs	r2, #1
 80027ce:	e8bd 4010 	ldmia.w	sp!, {r4, lr}
 80027d2:	f001 bc27 	b.w	8004024 <HAL_GPIO_WritePin>
 80027d6:	fab2 f282 	clz	r2, r2
 80027da:	0952      	lsrs	r2, r2, #5
 80027dc:	e7f5      	b.n	80027ca <_ZN10DigitalPin6updateEv+0x4a>
	...

080027e0 <_ZN10DigitalPinC1ERVmiNSt7__cxx1112basic_stringIcSt11char_traitsIcESaIcEEEibi>:
 80027e0:	b5f0      	push	{r4, r5, r6, r7, lr}
 80027e2:	4604      	mov	r4, r0
 80027e4:	4616      	mov	r6, r2
 80027e6:	460f      	mov	r7, r1
 80027e8:	461d      	mov	r5, r3
 80027ea:	b087      	sub	sp, #28
 80027ec:	f000 f836 	bl	800285c <_ZN6ModuleC1Ev>
 80027f0:	4b14      	ldr	r3, [pc, #80]	; (8002844 <_ZN10DigitalPinC1ERVmiNSt7__cxx1112basic_stringIcSt11char_traitsIcESaIcEEEibi+0x64>)
 80027f2:	6266      	str	r6, [r4, #36]	; 0x24
 80027f4:	6023      	str	r3, [r4, #0]
 80027f6:	9b0c      	ldr	r3, [sp, #48]	; 0x30
 80027f8:	f104 062c 	add.w	r6, r4, #44	; 0x2c
 80027fc:	61a3      	str	r3, [r4, #24]
 80027fe:	f89d 3034 	ldrb.w	r3, [sp, #52]	; 0x34
 8002802:	4629      	mov	r1, r5
 8002804:	7723      	strb	r3, [r4, #28]
 8002806:	9b0e      	ldr	r3, [sp, #56]	; 0x38
 8002808:	4630      	mov	r0, r6
 800280a:	62a3      	str	r3, [r4, #40]	; 0x28
 800280c:	6167      	str	r7, [r4, #20]
 800280e:	f007 fedd 	bl	800a5cc <_ZNSt7__cxx1112basic_stringIcSt11char_traitsIcESaIcEEC1ERKS4_>
 8002812:	4631      	mov	r1, r6
 8002814:	4668      	mov	r0, sp
 8002816:	f007 fed9 	bl	800a5cc <_ZNSt7__cxx1112basic_stringIcSt11char_traitsIcESaIcEEC1ERKS4_>
 800281a:	2044      	movs	r0, #68	; 0x44
 800281c:	f007 fe52 	bl	800a4c4 <_Znwj>
 8002820:	e9d4 2309 	ldrd	r2, r3, [r4, #36]	; 0x24
 8002824:	4605      	mov	r5, r0
 8002826:	4669      	mov	r1, sp
 8002828:	f7fe fdfc 	bl	8001424 <_ZN3PinC1ENSt7__cxx1112basic_stringIcSt11char_traitsIcESaIcEEEii>
 800282c:	4668      	mov	r0, sp
 800282e:	6465      	str	r5, [r4, #68]	; 0x44
 8002830:	f007 fe8c 	bl	800a54c <_ZNSt7__cxx1112basic_stringIcSt11char_traitsIcESaIcEE10_M_disposeEv>
 8002834:	2301      	movs	r3, #1
 8002836:	4620      	mov	r0, r4
 8002838:	69a2      	ldr	r2, [r4, #24]
 800283a:	4093      	lsls	r3, r2
 800283c:	6223      	str	r3, [r4, #32]
 800283e:	b007      	add	sp, #28
 8002840:	bdf0      	pop	{r4, r5, r6, r7, pc}
 8002842:	bf00      	nop
 8002844:	0800bb08 	.word	0x0800bb08

08002848 <_ZN6ModuleD1Ev>:
 8002848:	4770      	bx	lr

0800284a <_ZN6Module10slowUpdateEv>:
 800284a:	4770      	bx	lr

0800284c <_ZN6ModuleD0Ev>:
 800284c:	b510      	push	{r4, lr}
 800284e:	4604      	mov	r4, r0
 8002850:	2114      	movs	r1, #20
 8002852:	f007 fe35 	bl	800a4c0 <_ZdlPvj>
 8002856:	4620      	mov	r0, r4
 8002858:	bd10      	pop	{r4, pc}
	...

0800285c <_ZN6ModuleC1Ev>:
 800285c:	4b06      	ldr	r3, [pc, #24]	; (8002878 <_ZN6ModuleC1Ev+0x1c>)
 800285e:	b510      	push	{r4, lr}
 8002860:	2200      	movs	r2, #0
 8002862:	6003      	str	r3, [r0, #0]
 8002864:	2301      	movs	r3, #1
 8002866:	4604      	mov	r4, r0
 8002868:	e9c0 3203 	strd	r3, r2, [r0, #12]
 800286c:	4803      	ldr	r0, [pc, #12]	; (800287c <_ZN6ModuleC1Ev+0x20>)
 800286e:	f008 f889 	bl	800a984 <puts>
 8002872:	4620      	mov	r0, r4
 8002874:	bd10      	pop	{r4, pc}
 8002876:	bf00      	nop
 8002878:	0800bb44 	.word	0x0800bb44
 800287c:	0800bb24 	.word	0x0800bb24

08002880 <_ZN6Module9runModuleEv>:
 8002880:	6903      	ldr	r3, [r0, #16]
 8002882:	68c2      	ldr	r2, [r0, #12]
 8002884:	3301      	adds	r3, #1
 8002886:	4293      	cmp	r3, r2
 8002888:	b510      	push	{r4, lr}
 800288a:	4604      	mov	r4, r0
 800288c:	6103      	str	r3, [r0, #16]
 800288e:	db04      	blt.n	800289a <_ZN6Module9runModuleEv+0x1a>
 8002890:	6803      	ldr	r3, [r0, #0]
 8002892:	691b      	ldr	r3, [r3, #16]
 8002894:	4798      	blx	r3
 8002896:	2300      	movs	r3, #0
 8002898:	6123      	str	r3, [r4, #16]
 800289a:	6823      	ldr	r3, [r4, #0]
 800289c:	4620      	mov	r0, r4
 800289e:	e8bd 4010 	ldmia.w	sp!, {r4, lr}
 80028a2:	689b      	ldr	r3, [r3, #8]
 80028a4:	4718      	bx	r3

080028a6 <_ZN6Module13runModulePostEv>:
 80028a6:	6803      	ldr	r3, [r0, #0]
 80028a8:	68db      	ldr	r3, [r3, #12]
 80028aa:	4718      	bx	r3

080028ac <_ZN15ModuleInterrupt11ISR_HandlerEv>:
 80028ac:	6840      	ldr	r0, [r0, #4]
 80028ae:	6803      	ldr	r3, [r0, #0]
 80028b0:	699b      	ldr	r3, [r3, #24]
 80028b2:	4718      	bx	r3

080028b4 <_ZN15ModuleInterruptC1EiP6Module>:
 80028b4:	b570      	push	{r4, r5, r6, lr}
 80028b6:	4604      	mov	r4, r0
 80028b8:	460d      	mov	r5, r1
 80028ba:	4616      	mov	r6, r2
 80028bc:	f7fe fde8 	bl	8001490 <_ZN9InterruptC1Ev>
 80028c0:	4b04      	ldr	r3, [pc, #16]	; (80028d4 <_ZN15ModuleInterruptC1EiP6Module+0x20>)
 80028c2:	4628      	mov	r0, r5
 80028c4:	4621      	mov	r1, r4
 80028c6:	e9c4 3600 	strd	r3, r6, [r4]
 80028ca:	f7fe fde7 	bl	800149c <_ZN9Interrupt8RegisterEiPS_>
 80028ce:	4620      	mov	r0, r4
 80028d0:	bd70      	pop	{r4, r5, r6, pc}
 80028d2:	bf00      	nop
 80028d4:	0800bb68 	.word	0x0800bb68

080028d8 <_ZN5NVMPG10slowUpdateEv>:
 80028d8:	4770      	bx	lr

080028da <_ZN5NVMPG9configureEv>:
 80028da:	2301      	movs	r3, #1
 80028dc:	f880 3060 	strb.w	r3, [r0, #96]	; 0x60
 80028e0:	4770      	bx	lr

080028e2 <_ZN5NVMPG15handleInterruptEv>:
 80028e2:	b538      	push	{r3, r4, r5, lr}
 80028e4:	2501      	movs	r5, #1
 80028e6:	4604      	mov	r4, r0
 80028e8:	f880 505f 	strb.w	r5, [r0, #95]	; 0x5f
 80028ec:	30a8      	adds	r0, #168	; 0xa8
 80028ee:	f000 fdc1 	bl	8003474 <HAL_DMA_IRQHandler>
 80028f2:	462a      	mov	r2, r5
 80028f4:	f104 0159 	add.w	r1, r4, #89	; 0x59
 80028f8:	f104 0064 	add.w	r0, r4, #100	; 0x64
 80028fc:	e8bd 4038 	ldmia.w	sp!, {r3, r4, r5, lr}
 8002900:	f002 baa2 	b.w	8004e48 <HAL_UART_Receive_DMA>

08002904 <_ZN5NVMPGD1Ev>:
 8002904:	b510      	push	{r4, lr}
 8002906:	4604      	mov	r4, r0
 8002908:	4b02      	ldr	r3, [pc, #8]	; (8002914 <_ZN5NVMPGD1Ev+0x10>)
 800290a:	6003      	str	r3, [r0, #0]
 800290c:	f7ff ff9c 	bl	8002848 <_ZN6ModuleD1Ev>
 8002910:	4620      	mov	r0, r4
 8002912:	bd10      	pop	{r4, pc}
 8002914:	0800bba4 	.word	0x0800bba4

08002918 <_ZN5NVMPGD0Ev>:
 8002918:	b510      	push	{r4, lr}
 800291a:	4604      	mov	r4, r0
 800291c:	f7ff fff2 	bl	8002904 <_ZN5NVMPGD1Ev>
 8002920:	4620      	mov	r0, r4
 8002922:	f44f 71b4 	mov.w	r1, #360	; 0x168
 8002926:	f007 fdcb 	bl	800a4c0 <_ZdlPvj>
 800292a:	4620      	mov	r0, r4
 800292c:	bd10      	pop	{r4, pc}

0800292e <_ZN5NVMPG6updateEv>:
 800292e:	b538      	push	{r3, r4, r5, lr}
 8002930:	f890 305f 	ldrb.w	r3, [r0, #95]	; 0x5f
 8002934:	4604      	mov	r4, r0
 8002936:	b1eb      	cbz	r3, 8002974 <_ZN5NVMPG6updateEv+0x46>
 8002938:	2301      	movs	r3, #1
 800293a:	f890 5059 	ldrb.w	r5, [r0, #89]	; 0x59
 800293e:	6a22      	ldr	r2, [r4, #32]
 8002940:	f005 000f 	and.w	r0, r5, #15
 8002944:	3802      	subs	r0, #2
 8002946:	fa03 f000 	lsl.w	r0, r3, r0
 800294a:	b281      	uxth	r1, r0
 800294c:	f8a4 105c 	strh.w	r1, [r4, #92]	; 0x5c
 8002950:	09eb      	lsrs	r3, r5, #7
 8002952:	f884 305e 	strb.w	r3, [r4, #94]	; 0x5e
 8002956:	8813      	ldrh	r3, [r2, #0]
 8002958:	062d      	lsls	r5, r5, #24
 800295a:	b29b      	uxth	r3, r3
 800295c:	bf46      	itte	mi
 800295e:	4383      	bicmi	r3, r0
 8002960:	8013      	strhmi	r3, [r2, #0]
 8002962:	4319      	orrpl	r1, r3
 8002964:	f04f 0300 	mov.w	r3, #0
 8002968:	bf58      	it	pl
 800296a:	8011      	strhpl	r1, [r2, #0]
 800296c:	f884 3059 	strb.w	r3, [r4, #89]	; 0x59
 8002970:	f884 305f 	strb.w	r3, [r4, #95]	; 0x5f
 8002974:	f894 3060 	ldrb.w	r3, [r4, #96]	; 0x60
 8002978:	b19b      	cbz	r3, 80029a2 <_ZN5NVMPG6updateEv+0x74>
 800297a:	2305      	movs	r3, #5
 800297c:	69e0      	ldr	r0, [r4, #28]
 800297e:	f104 0225 	add.w	r2, r4, #37	; 0x25
 8002982:	5cc1      	ldrb	r1, [r0, r3]
 8002984:	3301      	adds	r3, #1
 8002986:	2b39      	cmp	r3, #57	; 0x39
 8002988:	f802 1b01 	strb.w	r1, [r2], #1
 800298c:	d1f9      	bne.n	8002982 <_ZN5NVMPG6updateEv+0x54>
 800298e:	2235      	movs	r2, #53	; 0x35
 8002990:	f104 0124 	add.w	r1, r4, #36	; 0x24
 8002994:	f104 0064 	add.w	r0, r4, #100	; 0x64
 8002998:	f002 f968 	bl	8004c6c <HAL_UART_Transmit_DMA>
 800299c:	2300      	movs	r3, #0
 800299e:	f884 3060 	strb.w	r3, [r4, #96]	; 0x60
 80029a2:	bd38      	pop	{r3, r4, r5, pc}

080029a4 <_ZN5NVMPGC1ERV9mpgData_tRVt>:
 80029a4:	e92d 4ff0 	stmdb	sp!, {r4, r5, r6, r7, r8, r9, sl, fp, lr}
 80029a8:	4604      	mov	r4, r0
 80029aa:	460e      	mov	r6, r1
 80029ac:	4615      	mov	r5, r2
 80029ae:	b08b      	sub	sp, #44	; 0x2c
 80029b0:	f04f 0a35 	mov.w	sl, #53	; 0x35
 80029b4:	f7ff ff52 	bl	800285c <_ZN6ModuleC1Ev>
 80029b8:	f04f 093a 	mov.w	r9, #58	; 0x3a
 80029bc:	e9c4 6507 	strd	r6, r5, [r4, #28]
 80029c0:	2500      	movs	r5, #0
 80029c2:	4b5a      	ldr	r3, [pc, #360]	; (8002b2c <_ZN5NVMPGC1ERV9mpgData_tRVt+0x188>)
 80029c4:	f104 0824 	add.w	r8, r4, #36	; 0x24
 80029c8:	6023      	str	r3, [r4, #0]
 80029ca:	4652      	mov	r2, sl
 80029cc:	2100      	movs	r1, #0
 80029ce:	4640      	mov	r0, r8
 80029d0:	f007 fea4 	bl	800a71c <memset>
 80029d4:	f884 505a 	strb.w	r5, [r4, #90]	; 0x5a
 80029d8:	f884 505f 	strb.w	r5, [r4, #95]	; 0x5f
 80029dc:	f884 5060 	strb.w	r5, [r4, #96]	; 0x60
 80029e0:	f884 9018 	strb.w	r9, [r4, #24]
 80029e4:	2008      	movs	r0, #8
 80029e6:	f007 fd6d 	bl	800a4c4 <_Znwj>
 80029ea:	4622      	mov	r2, r4
 80029ec:	f994 1018 	ldrsb.w	r1, [r4, #24]
 80029f0:	4606      	mov	r6, r0
 80029f2:	f7ff ff5f 	bl	80028b4 <_ZN15ModuleInterruptC1EiP6Module>
 80029f6:	2214      	movs	r2, #20
 80029f8:	4629      	mov	r1, r5
 80029fa:	eb0d 0002 	add.w	r0, sp, r2
 80029fe:	6166      	str	r6, [r4, #20]
 8002a00:	f007 fe8c 	bl	800a71c <memset>
 8002a04:	484a      	ldr	r0, [pc, #296]	; (8002b30 <_ZN5NVMPGC1ERV9mpgData_tRVt+0x18c>)
 8002a06:	f007 ffbd 	bl	800a984 <puts>
 8002a0a:	4e4a      	ldr	r6, [pc, #296]	; (8002b34 <_ZN5NVMPGC1ERV9mpgData_tRVt+0x190>)
 8002a0c:	4b4a      	ldr	r3, [pc, #296]	; (8002b38 <_ZN5NVMPGC1ERV9mpgData_tRVt+0x194>)
 8002a0e:	9502      	str	r5, [sp, #8]
 8002a10:	6663      	str	r3, [r4, #100]	; 0x64
 8002a12:	6b33      	ldr	r3, [r6, #48]	; 0x30
 8002a14:	f44f 62c0 	mov.w	r2, #1536	; 0x600
 8002a18:	f043 0301 	orr.w	r3, r3, #1
 8002a1c:	6333      	str	r3, [r6, #48]	; 0x30
 8002a1e:	6b33      	ldr	r3, [r6, #48]	; 0x30
 8002a20:	2103      	movs	r1, #3
 8002a22:	f003 0301 	and.w	r3, r3, #1
 8002a26:	9302      	str	r3, [sp, #8]
 8002a28:	9b02      	ldr	r3, [sp, #8]
 8002a2a:	2302      	movs	r3, #2
 8002a2c:	e9cd 2305 	strd	r2, r3, [sp, #20]
 8002a30:	2307      	movs	r3, #7
 8002a32:	4842      	ldr	r0, [pc, #264]	; (8002b3c <_ZN5NVMPGC1ERV9mpgData_tRVt+0x198>)
 8002a34:	e9cd 1308 	strd	r1, r3, [sp, #32]
 8002a38:	a905      	add	r1, sp, #20
 8002a3a:	9507      	str	r5, [sp, #28]
 8002a3c:	f001 fa06 	bl	8003e4c <HAL_GPIO_Init>
 8002a40:	9503      	str	r5, [sp, #12]
 8002a42:	6c73      	ldr	r3, [r6, #68]	; 0x44
 8002a44:	f104 0764 	add.w	r7, r4, #100	; 0x64
 8002a48:	f043 0310 	orr.w	r3, r3, #16
 8002a4c:	6473      	str	r3, [r6, #68]	; 0x44
 8002a4e:	6c73      	ldr	r3, [r6, #68]	; 0x44
 8002a50:	4638      	mov	r0, r7
 8002a52:	f003 0310 	and.w	r3, r3, #16
 8002a56:	9303      	str	r3, [sp, #12]
 8002a58:	9b03      	ldr	r3, [sp, #12]
 8002a5a:	f44f 33e1 	mov.w	r3, #115200	; 0x1c200
 8002a5e:	e9c4 351a 	strd	r3, r5, [r4, #104]	; 0x68
 8002a62:	230c      	movs	r3, #12
 8002a64:	e9c4 551c 	strd	r5, r5, [r4, #112]	; 0x70
 8002a68:	e9c4 351e 	strd	r3, r5, [r4, #120]	; 0x78
 8002a6c:	f8c4 5080 	str.w	r5, [r4, #128]	; 0x80
 8002a70:	f002 f878 	bl	8004b64 <HAL_UART_Init>
 8002a74:	9504      	str	r5, [sp, #16]
 8002a76:	6b33      	ldr	r3, [r6, #48]	; 0x30
 8002a78:	f04f 6b00 	mov.w	fp, #134217728	; 0x8000000
 8002a7c:	f443 0380 	orr.w	r3, r3, #4194304	; 0x400000
 8002a80:	6333      	str	r3, [r6, #48]	; 0x30
 8002a82:	6b33      	ldr	r3, [r6, #48]	; 0x30
 8002a84:	f44f 6680 	mov.w	r6, #1024	; 0x400
 8002a88:	f403 0380 	and.w	r3, r3, #4194304	; 0x400000
 8002a8c:	9304      	str	r3, [sp, #16]
 8002a8e:	9b04      	ldr	r3, [sp, #16]
 8002a90:	4b2b      	ldr	r3, [pc, #172]	; (8002b40 <_ZN5NVMPGC1ERV9mpgData_tRVt+0x19c>)
 8002a92:	e9c4 552c 	strd	r5, r5, [r4, #176]	; 0xb0
 8002a96:	e9c4 3b2a 	strd	r3, fp, [r4, #168]	; 0xa8
 8002a9a:	f104 03a8 	add.w	r3, r4, #168	; 0xa8
 8002a9e:	e9c4 652e 	strd	r6, r5, [r4, #184]	; 0xb8
 8002aa2:	e9c4 5530 	strd	r5, r5, [r4, #192]	; 0xc0
 8002aa6:	e9c4 5532 	strd	r5, r5, [r4, #200]	; 0xc8
 8002aaa:	4618      	mov	r0, r3
 8002aac:	9301      	str	r3, [sp, #4]
 8002aae:	f000 fc29 	bl	8003304 <HAL_DMA_Init>
 8002ab2:	9b01      	ldr	r3, [sp, #4]
 8002ab4:	462a      	mov	r2, r5
 8002ab6:	4629      	mov	r1, r5
 8002ab8:	f8c4 309c 	str.w	r3, [r4, #156]	; 0x9c
 8002abc:	4648      	mov	r0, r9
 8002abe:	f8c4 70e0 	str.w	r7, [r4, #224]	; 0xe0
 8002ac2:	f000 fbb3 	bl	800322c <HAL_NVIC_SetPriority>
 8002ac6:	4648      	mov	r0, r9
 8002ac8:	f000 fbe2 	bl	8003290 <HAL_NVIC_EnableIRQ>
 8002acc:	4b1d      	ldr	r3, [pc, #116]	; (8002b44 <_ZN5NVMPGC1ERV9mpgData_tRVt+0x1a0>)
 8002ace:	e9c4 6546 	strd	r6, r5, [r4, #280]	; 0x118
 8002ad2:	e9c4 3b42 	strd	r3, fp, [r4, #264]	; 0x108
 8002ad6:	2340      	movs	r3, #64	; 0x40
 8002ad8:	e9c4 3544 	strd	r3, r5, [r4, #272]	; 0x110
 8002adc:	f44f 7380 	mov.w	r3, #256	; 0x100
 8002ae0:	f8c4 5120 	str.w	r5, [r4, #288]	; 0x120
 8002ae4:	e9c4 3549 	strd	r3, r5, [r4, #292]	; 0x124
 8002ae8:	f8c4 512c 	str.w	r5, [r4, #300]	; 0x12c
 8002aec:	f504 7584 	add.w	r5, r4, #264	; 0x108
 8002af0:	4628      	mov	r0, r5
 8002af2:	f000 fc07 	bl	8003304 <HAL_DMA_Init>
 8002af6:	f8c4 5098 	str.w	r5, [r4, #152]	; 0x98
 8002afa:	f8c4 7140 	str.w	r7, [r4, #320]	; 0x140
 8002afe:	4812      	ldr	r0, [pc, #72]	; (8002b48 <_ZN5NVMPGC1ERV9mpgData_tRVt+0x1a4>)
 8002b00:	f007 ff40 	bl	800a984 <puts>
 8002b04:	4640      	mov	r0, r8
 8002b06:	4911      	ldr	r1, [pc, #68]	; (8002b4c <_ZN5NVMPGC1ERV9mpgData_tRVt+0x1a8>)
 8002b08:	f007 ff98 	bl	800aa3c <strcpy>
 8002b0c:	2364      	movs	r3, #100	; 0x64
 8002b0e:	4652      	mov	r2, sl
 8002b10:	4641      	mov	r1, r8
 8002b12:	4638      	mov	r0, r7
 8002b14:	f002 f854 	bl	8004bc0 <HAL_UART_Transmit>
 8002b18:	2201      	movs	r2, #1
 8002b1a:	4638      	mov	r0, r7
 8002b1c:	f104 0159 	add.w	r1, r4, #89	; 0x59
 8002b20:	f002 f992 	bl	8004e48 <HAL_UART_Receive_DMA>
 8002b24:	4620      	mov	r0, r4
 8002b26:	b00b      	add	sp, #44	; 0x2c
 8002b28:	e8bd 8ff0 	ldmia.w	sp!, {r4, r5, r6, r7, r8, r9, sl, fp, pc}
 8002b2c:	0800bba4 	.word	0x0800bba4
 8002b30:	0800bb6c 	.word	0x0800bb6c
 8002b34:	40023800 	.word	0x40023800
 8002b38:	40011000 	.word	0x40011000
 8002b3c:	40020000 	.word	0x40020000
 8002b40:	40026440 	.word	0x40026440
 8002b44:	400264b8 	.word	0x400264b8
 8002b48:	0800bb82 	.word	0x0800bb82
 8002b4c:	0800bb97 	.word	0x0800bb97

08002b50 <_ZN10SpindlePWM10slowUpdateEv>:
 8002b50:	4770      	bx	lr
	...

08002b54 <_ZN10SpindlePWMD1Ev>:
 8002b54:	b510      	push	{r4, lr}
 8002b56:	4604      	mov	r4, r0
 8002b58:	4b02      	ldr	r3, [pc, #8]	; (8002b64 <_ZN10SpindlePWMD1Ev+0x10>)
 8002b5a:	6003      	str	r3, [r0, #0]
 8002b5c:	f7ff fe74 	bl	8002848 <_ZN6ModuleD1Ev>
 8002b60:	4620      	mov	r0, r4
 8002b62:	bd10      	pop	{r4, pc}
 8002b64:	0800bbc8 	.word	0x0800bbc8

08002b68 <_ZN10SpindlePWMD0Ev>:
 8002b68:	b510      	push	{r4, lr}
 8002b6a:	4604      	mov	r4, r0
 8002b6c:	f7ff fff2 	bl	8002b54 <_ZN10SpindlePWMD1Ev>
 8002b70:	4620      	mov	r0, r4
 8002b72:	2170      	movs	r1, #112	; 0x70
 8002b74:	f007 fca4 	bl	800a4c0 <_ZdlPvj>
 8002b78:	4620      	mov	r0, r4
 8002b7a:	bd10      	pop	{r4, pc}

08002b7c <_ZN10SpindlePWM6updateEv>:
 8002b7c:	b5f8      	push	{r3, r4, r5, r6, r7, lr}
 8002b7e:	4604      	mov	r4, r0
 8002b80:	6dc5      	ldr	r5, [r0, #92]	; 0x5c
 8002b82:	6e21      	ldr	r1, [r4, #96]	; 0x60
 8002b84:	6828      	ldr	r0, [r5, #0]
 8002b86:	f7fe f9b5 	bl	8000ef4 <__aeabi_fcmpeq>
 8002b8a:	bb50      	cbnz	r0, 8002be2 <_ZN10SpindlePWM6updateEv+0x66>
 8002b8c:	682d      	ldr	r5, [r5, #0]
 8002b8e:	4e16      	ldr	r6, [pc, #88]	; (8002be8 <_ZN10SpindlePWM6updateEv+0x6c>)
 8002b90:	4628      	mov	r0, r5
 8002b92:	4631      	mov	r1, r6
 8002b94:	f7fe f9d6 	bl	8000f44 <__aeabi_fcmpgt>
 8002b98:	b108      	cbz	r0, 8002b9e <_ZN10SpindlePWM6updateEv+0x22>
 8002b9a:	6626      	str	r6, [r4, #96]	; 0x60
 8002b9c:	e007      	b.n	8002bae <_ZN10SpindlePWM6updateEv+0x32>
 8002b9e:	2600      	movs	r6, #0
 8002ba0:	4628      	mov	r0, r5
 8002ba2:	4631      	mov	r1, r6
 8002ba4:	f7fe f9b0 	bl	8000f08 <__aeabi_fcmplt>
 8002ba8:	2800      	cmp	r0, #0
 8002baa:	d1f6      	bne.n	8002b9a <_ZN10SpindlePWM6updateEv+0x1e>
 8002bac:	6625      	str	r5, [r4, #96]	; 0x60
 8002bae:	6ea0      	ldr	r0, [r4, #104]	; 0x68
 8002bb0:	f7fd ffb4 	bl	8000b1c <__aeabi_ui2f>
 8002bb4:	f7fd fc72 	bl	800049c <__aeabi_f2d>
 8002bb8:	4606      	mov	r6, r0
 8002bba:	6e20      	ldr	r0, [r4, #96]	; 0x60
 8002bbc:	460f      	mov	r7, r1
 8002bbe:	f7fd fc6d 	bl	800049c <__aeabi_f2d>
 8002bc2:	2200      	movs	r2, #0
 8002bc4:	4b09      	ldr	r3, [pc, #36]	; (8002bec <_ZN10SpindlePWM6updateEv+0x70>)
 8002bc6:	f7fd fdeb 	bl	80007a0 <__aeabi_ddiv>
 8002bca:	460b      	mov	r3, r1
 8002bcc:	4602      	mov	r2, r0
 8002bce:	4639      	mov	r1, r7
 8002bd0:	4630      	mov	r0, r6
 8002bd2:	f7fd fcbb 	bl	800054c <__aeabi_dmul>
 8002bd6:	f7fd fecb 	bl	8000970 <__aeabi_d2uiz>
 8002bda:	4b05      	ldr	r3, [pc, #20]	; (8002bf0 <_ZN10SpindlePWM6updateEv+0x74>)
 8002bdc:	66e0      	str	r0, [r4, #108]	; 0x6c
 8002bde:	b908      	cbnz	r0, 8002be4 <_ZN10SpindlePWM6updateEv+0x68>
 8002be0:	6358      	str	r0, [r3, #52]	; 0x34
 8002be2:	bdf8      	pop	{r3, r4, r5, r6, r7, pc}
 8002be4:	3801      	subs	r0, #1
 8002be6:	e7fb      	b.n	8002be0 <_ZN10SpindlePWM6updateEv+0x64>
 8002be8:	42c80000 	.word	0x42c80000
 8002bec:	40590000 	.word	0x40590000
 8002bf0:	40000c00 	.word	0x40000c00

08002bf4 <_ZN10SpindlePWMC1ERVf>:
 8002bf4:	e92d 41f0 	stmdb	sp!, {r4, r5, r6, r7, r8, lr}
 8002bf8:	4605      	mov	r5, r0
 8002bfa:	460c      	mov	r4, r1
 8002bfc:	b090      	sub	sp, #64	; 0x40
 8002bfe:	f7ff fe2d 	bl	800285c <_ZN6ModuleC1Ev>
 8002c02:	65ec      	str	r4, [r5, #92]	; 0x5c
 8002c04:	2400      	movs	r4, #0
 8002c06:	4b2e      	ldr	r3, [pc, #184]	; (8002cc0 <_ZN10SpindlePWMC1ERVf+0xcc>)
 8002c08:	4621      	mov	r1, r4
 8002c0a:	602b      	str	r3, [r5, #0]
 8002c0c:	221c      	movs	r2, #28
 8002c0e:	a809      	add	r0, sp, #36	; 0x24
 8002c10:	4e2c      	ldr	r6, [pc, #176]	; (8002cc4 <_ZN10SpindlePWMC1ERVf+0xd0>)
 8002c12:	e9cd 4402 	strd	r4, r4, [sp, #8]
 8002c16:	f007 fd81 	bl	800a71c <memset>
 8002c1a:	4621      	mov	r1, r4
 8002c1c:	2214      	movs	r2, #20
 8002c1e:	a804      	add	r0, sp, #16
 8002c20:	f007 fd7c 	bl	800a71c <memset>
 8002c24:	9400      	str	r4, [sp, #0]
 8002c26:	6c33      	ldr	r3, [r6, #64]	; 0x40
 8002c28:	223c      	movs	r2, #60	; 0x3c
 8002c2a:	f043 0308 	orr.w	r3, r3, #8
 8002c2e:	6433      	str	r3, [r6, #64]	; 0x40
 8002c30:	6c33      	ldr	r3, [r6, #64]	; 0x40
 8002c32:	f8df 8098 	ldr.w	r8, [pc, #152]	; 8002ccc <_ZN10SpindlePWMC1ERVf+0xd8>
 8002c36:	f003 0308 	and.w	r3, r3, #8
 8002c3a:	9300      	str	r3, [sp, #0]
 8002c3c:	9b00      	ldr	r3, [sp, #0]
 8002c3e:	f242 7310 	movw	r3, #10000	; 0x2710
 8002c42:	e9c5 2319 	strd	r2, r3, [r5, #100]	; 0x64
 8002c46:	233b      	movs	r3, #59	; 0x3b
 8002c48:	e9c5 8305 	strd	r8, r3, [r5, #20]
 8002c4c:	f242 730f 	movw	r3, #9999	; 0x270f
 8002c50:	f105 0714 	add.w	r7, r5, #20
 8002c54:	e9c5 3408 	strd	r3, r4, [r5, #32]
 8002c58:	4638      	mov	r0, r7
 8002c5a:	61ec      	str	r4, [r5, #28]
 8002c5c:	62ec      	str	r4, [r5, #44]	; 0x2c
 8002c5e:	f001 fd79 	bl	8004754 <HAL_TIM_PWM_Init>
 8002c62:	a902      	add	r1, sp, #8
 8002c64:	4638      	mov	r0, r7
 8002c66:	e9cd 4402 	strd	r4, r4, [sp, #8]
 8002c6a:	f001 fea7 	bl	80049bc <HAL_TIMEx_MasterConfigSynchronization>
 8002c6e:	2360      	movs	r3, #96	; 0x60
 8002c70:	4622      	mov	r2, r4
 8002c72:	a909      	add	r1, sp, #36	; 0x24
 8002c74:	4638      	mov	r0, r7
 8002c76:	9309      	str	r3, [sp, #36]	; 0x24
 8002c78:	940b      	str	r4, [sp, #44]	; 0x2c
 8002c7a:	940d      	str	r4, [sp, #52]	; 0x34
 8002c7c:	f001 fdcc 	bl	8004818 <HAL_TIM_PWM_ConfigChannel>
 8002c80:	9401      	str	r4, [sp, #4]
 8002c82:	6b33      	ldr	r3, [r6, #48]	; 0x30
 8002c84:	2101      	movs	r1, #1
 8002c86:	f043 0301 	orr.w	r3, r3, #1
 8002c8a:	6333      	str	r3, [r6, #48]	; 0x30
 8002c8c:	6b33      	ldr	r3, [r6, #48]	; 0x30
 8002c8e:	480e      	ldr	r0, [pc, #56]	; (8002cc8 <_ZN10SpindlePWMC1ERVf+0xd4>)
 8002c90:	f003 0301 	and.w	r3, r3, #1
 8002c94:	9301      	str	r3, [sp, #4]
 8002c96:	9b01      	ldr	r3, [sp, #4]
 8002c98:	2302      	movs	r3, #2
 8002c9a:	e9cd 1304 	strd	r1, r3, [sp, #16]
 8002c9e:	a904      	add	r1, sp, #16
 8002ca0:	9308      	str	r3, [sp, #32]
 8002ca2:	e9cd 4406 	strd	r4, r4, [sp, #24]
 8002ca6:	f001 f8d1 	bl	8003e4c <HAL_GPIO_Init>
 8002caa:	4621      	mov	r1, r4
 8002cac:	4638      	mov	r0, r7
 8002cae:	f001 fe83 	bl	80049b8 <HAL_TIM_PWM_Start>
 8002cb2:	4628      	mov	r0, r5
 8002cb4:	f8c8 4034 	str.w	r4, [r8, #52]	; 0x34
 8002cb8:	b010      	add	sp, #64	; 0x40
 8002cba:	e8bd 81f0 	ldmia.w	sp!, {r4, r5, r6, r7, r8, pc}
 8002cbe:	bf00      	nop
 8002cc0:	0800bbc8 	.word	0x0800bbc8
 8002cc4:	40023800 	.word	0x40023800
 8002cc8:	40020000 	.word	0x40020000
 8002ccc:	40000c00 	.word	0x40000c00

08002cd0 <_ZN7Stepgen10slowUpdateEv>:
 8002cd0:	4770      	bx	lr
	...

08002cd4 <_ZN7StepgenD1Ev>:
 8002cd4:	b510      	push	{r4, lr}
 8002cd6:	4604      	mov	r4, r0
 8002cd8:	4b06      	ldr	r3, [pc, #24]	; (8002cf4 <_ZN7StepgenD1Ev+0x20>)
 8002cda:	f840 3b34 	str.w	r3, [r0], #52
 8002cde:	f007 fc35 	bl	800a54c <_ZNSt7__cxx1112basic_stringIcSt11char_traitsIcESaIcEE10_M_disposeEv>
 8002ce2:	f104 001c 	add.w	r0, r4, #28
 8002ce6:	f007 fc31 	bl	800a54c <_ZNSt7__cxx1112basic_stringIcSt11char_traitsIcESaIcEE10_M_disposeEv>
 8002cea:	4620      	mov	r0, r4
 8002cec:	f7ff fdac 	bl	8002848 <_ZN6ModuleD1Ev>
 8002cf0:	4620      	mov	r0, r4
 8002cf2:	bd10      	pop	{r4, pc}
 8002cf4:	0800bbec 	.word	0x0800bbec

08002cf8 <_ZN7StepgenD0Ev>:
 8002cf8:	b510      	push	{r4, lr}
 8002cfa:	4604      	mov	r4, r0
 8002cfc:	f7ff ffea 	bl	8002cd4 <_ZN7StepgenD1Ev>
 8002d00:	4620      	mov	r0, r4
 8002d02:	217c      	movs	r1, #124	; 0x7c
 8002d04:	f007 fbdc 	bl	800a4c0 <_ZdlPvj>
 8002d08:	4620      	mov	r0, r4
 8002d0a:	bd10      	pop	{r4, pc}

08002d0c <_ZN7StepgenC1EliNSt7__cxx1112basic_stringIcSt11char_traitsIcESaIcEEES5_iRVlS7_RVh>:
 8002d0c:	e92d 41f0 	stmdb	sp!, {r4, r5, r6, r7, r8, lr}
 8002d10:	4604      	mov	r4, r0
 8002d12:	4616      	mov	r6, r2
 8002d14:	461d      	mov	r5, r3
 8002d16:	b086      	sub	sp, #24
 8002d18:	460f      	mov	r7, r1
 8002d1a:	f7ff fd9f 	bl	800285c <_ZN6ModuleC1Ev>
 8002d1e:	4b29      	ldr	r3, [pc, #164]	; (8002dc4 <_ZN7StepgenC1EliNSt7__cxx1112basic_stringIcSt11char_traitsIcESaIcEEES5_iRVlS7_RVh+0xb8>)
 8002d20:	f104 081c 	add.w	r8, r4, #28
 8002d24:	6023      	str	r3, [r4, #0]
 8002d26:	4629      	mov	r1, r5
 8002d28:	6166      	str	r6, [r4, #20]
 8002d2a:	4640      	mov	r0, r8
 8002d2c:	f104 0634 	add.w	r6, r4, #52	; 0x34
 8002d30:	f007 fc4c 	bl	800a5cc <_ZNSt7__cxx1112basic_stringIcSt11char_traitsIcESaIcEEC1ERKS4_>
 8002d34:	990c      	ldr	r1, [sp, #48]	; 0x30
 8002d36:	4630      	mov	r0, r6
 8002d38:	f007 fc48 	bl	800a5cc <_ZNSt7__cxx1112basic_stringIcSt11char_traitsIcESaIcEEC1ERKS4_>
 8002d3c:	9b0e      	ldr	r3, [sp, #56]	; 0x38
 8002d3e:	4641      	mov	r1, r8
 8002d40:	6563      	str	r3, [r4, #84]	; 0x54
 8002d42:	9b0f      	ldr	r3, [sp, #60]	; 0x3c
 8002d44:	4668      	mov	r0, sp
 8002d46:	65e3      	str	r3, [r4, #92]	; 0x5c
 8002d48:	9b10      	ldr	r3, [sp, #64]	; 0x40
 8002d4a:	f04f 0800 	mov.w	r8, #0
 8002d4e:	6623      	str	r3, [r4, #96]	; 0x60
 8002d50:	9b0d      	ldr	r3, [sp, #52]	; 0x34
 8002d52:	6723      	str	r3, [r4, #112]	; 0x70
 8002d54:	f007 fc3a 	bl	800a5cc <_ZNSt7__cxx1112basic_stringIcSt11char_traitsIcESaIcEEC1ERKS4_>
 8002d58:	2044      	movs	r0, #68	; 0x44
 8002d5a:	f007 fbb3 	bl	800a4c4 <_Znwj>
 8002d5e:	4605      	mov	r5, r0
 8002d60:	2201      	movs	r2, #1
 8002d62:	4669      	mov	r1, sp
 8002d64:	f7fe fb44 	bl	80013f0 <_ZN3PinC1ENSt7__cxx1112basic_stringIcSt11char_traitsIcESaIcEEEi>
 8002d68:	4668      	mov	r0, sp
 8002d6a:	6765      	str	r5, [r4, #116]	; 0x74
 8002d6c:	f007 fbee 	bl	800a54c <_ZNSt7__cxx1112basic_stringIcSt11char_traitsIcESaIcEE10_M_disposeEv>
 8002d70:	4631      	mov	r1, r6
 8002d72:	4668      	mov	r0, sp
 8002d74:	f007 fc2a 	bl	800a5cc <_ZNSt7__cxx1112basic_stringIcSt11char_traitsIcESaIcEEC1ERKS4_>
 8002d78:	2044      	movs	r0, #68	; 0x44
 8002d7a:	f007 fba3 	bl	800a4c4 <_Znwj>
 8002d7e:	4605      	mov	r5, r0
 8002d80:	2201      	movs	r2, #1
 8002d82:	4669      	mov	r1, sp
 8002d84:	f7fe fb34 	bl	80013f0 <_ZN3PinC1ENSt7__cxx1112basic_stringIcSt11char_traitsIcESaIcEEEi>
 8002d88:	67a5      	str	r5, [r4, #120]	; 0x78
 8002d8a:	2501      	movs	r5, #1
 8002d8c:	4668      	mov	r0, sp
 8002d8e:	f007 fbdd 	bl	800a54c <_ZNSt7__cxx1112basic_stringIcSt11char_traitsIcESaIcEE10_M_disposeEv>
 8002d92:	6f20      	ldr	r0, [r4, #112]	; 0x70
 8002d94:	f8c4 8064 	str.w	r8, [r4, #100]	; 0x64
 8002d98:	fa05 f000 	lsl.w	r0, r5, r0
 8002d9c:	f7fd fec2 	bl	8000b24 <__aeabi_i2f>
 8002da0:	4606      	mov	r6, r0
 8002da2:	4638      	mov	r0, r7
 8002da4:	f7fd febe 	bl	8000b24 <__aeabi_i2f>
 8002da8:	4601      	mov	r1, r0
 8002daa:	4630      	mov	r0, r6
 8002dac:	f7fd ffc2 	bl	8000d34 <__aeabi_fdiv>
 8002db0:	66a0      	str	r0, [r4, #104]	; 0x68
 8002db2:	4620      	mov	r0, r4
 8002db4:	6963      	ldr	r3, [r4, #20]
 8002db6:	f8a4 804c 	strh.w	r8, [r4, #76]	; 0x4c
 8002dba:	409d      	lsls	r5, r3
 8002dbc:	61a5      	str	r5, [r4, #24]
 8002dbe:	b006      	add	sp, #24
 8002dc0:	e8bd 81f0 	ldmia.w	sp!, {r4, r5, r6, r7, r8, pc}
 8002dc4:	0800bbec 	.word	0x0800bbec

08002dc8 <_ZN7Stepgen10makePulsesEv>:
 8002dc8:	b510      	push	{r4, lr}
 8002dca:	6e03      	ldr	r3, [r0, #96]	; 0x60
 8002dcc:	6982      	ldr	r2, [r0, #24]
 8002dce:	781b      	ldrb	r3, [r3, #0]
 8002dd0:	4604      	mov	r4, r0
 8002dd2:	4013      	ands	r3, r2
 8002dd4:	2b00      	cmp	r3, #0
 8002dd6:	bf14      	ite	ne
 8002dd8:	2301      	movne	r3, #1
 8002dda:	2300      	moveq	r3, #0
 8002ddc:	f880 304c 	strb.w	r3, [r0, #76]	; 0x4c
 8002de0:	d033      	beq.n	8002e4a <_ZN7Stepgen10makePulsesEv+0x82>
 8002de2:	6d43      	ldr	r3, [r0, #84]	; 0x54
 8002de4:	6818      	ldr	r0, [r3, #0]
 8002de6:	6520      	str	r0, [r4, #80]	; 0x50
 8002de8:	f7fd fe9c 	bl	8000b24 <__aeabi_i2f>
 8002dec:	6ea1      	ldr	r1, [r4, #104]	; 0x68
 8002dee:	f7fd feed 	bl	8000bcc <__aeabi_fmul>
 8002df2:	f7fe f8b1 	bl	8000f58 <__aeabi_f2iz>
 8002df6:	4603      	mov	r3, r0
 8002df8:	6e61      	ldr	r1, [r4, #100]	; 0x64
 8002dfa:	66e0      	str	r0, [r4, #108]	; 0x6c
 8002dfc:	1842      	adds	r2, r0, r1
 8002dfe:	6f20      	ldr	r0, [r4, #112]	; 0x70
 8002e00:	2b00      	cmp	r3, #0
 8002e02:	ea81 0102 	eor.w	r1, r1, r2
 8002e06:	6662      	str	r2, [r4, #100]	; 0x64
 8002e08:	fa42 f200 	asr.w	r2, r2, r0
 8002e0c:	65a2      	str	r2, [r4, #88]	; 0x58
 8002e0e:	bfd4      	ite	le
 8002e10:	2200      	movle	r2, #0
 8002e12:	2201      	movgt	r2, #1
 8002e14:	f884 204d 	strb.w	r2, [r4, #77]	; 0x4d
 8002e18:	2201      	movs	r2, #1
 8002e1a:	fa02 f000 	lsl.w	r0, r2, r0
 8002e1e:	4208      	tst	r0, r1
 8002e20:	d013      	beq.n	8002e4a <_ZN7Stepgen10makePulsesEv+0x82>
 8002e22:	6fa1      	ldr	r1, [r4, #120]	; 0x78
 8002e24:	2b00      	cmp	r3, #0
 8002e26:	bfd8      	it	le
 8002e28:	2200      	movle	r2, #0
 8002e2a:	6ac8      	ldr	r0, [r1, #44]	; 0x2c
 8002e2c:	8bc9      	ldrh	r1, [r1, #30]
 8002e2e:	f001 f8f9 	bl	8004024 <HAL_GPIO_WritePin>
 8002e32:	6f63      	ldr	r3, [r4, #116]	; 0x74
 8002e34:	2201      	movs	r2, #1
 8002e36:	8bd9      	ldrh	r1, [r3, #30]
 8002e38:	6ad8      	ldr	r0, [r3, #44]	; 0x2c
 8002e3a:	f001 f8f3 	bl	8004024 <HAL_GPIO_WritePin>
 8002e3e:	6de3      	ldr	r3, [r4, #92]	; 0x5c
 8002e40:	6e62      	ldr	r2, [r4, #100]	; 0x64
 8002e42:	601a      	str	r2, [r3, #0]
 8002e44:	2301      	movs	r3, #1
 8002e46:	f884 304e 	strb.w	r3, [r4, #78]	; 0x4e
 8002e4a:	bd10      	pop	{r4, pc}

08002e4c <_ZN7Stepgen6updateEv>:
 8002e4c:	f7ff bfbc 	b.w	8002dc8 <_ZN7Stepgen10makePulsesEv>

08002e50 <_ZN7Stepgen10stopPulsesEv>:
 8002e50:	6f43      	ldr	r3, [r0, #116]	; 0x74
 8002e52:	b510      	push	{r4, lr}
 8002e54:	8bd9      	ldrh	r1, [r3, #30]
 8002e56:	4604      	mov	r4, r0
 8002e58:	2200      	movs	r2, #0
 8002e5a:	6ad8      	ldr	r0, [r3, #44]	; 0x2c
 8002e5c:	f001 f8e2 	bl	8004024 <HAL_GPIO_WritePin>
 8002e60:	2300      	movs	r3, #0
 8002e62:	f884 304e 	strb.w	r3, [r4, #78]	; 0x4e
 8002e66:	bd10      	pop	{r4, pc}

08002e68 <_ZN7Stepgen10updatePostEv>:
 8002e68:	f7ff bff2 	b.w	8002e50 <_ZN7Stepgen10stopPulsesEv>

08002e6c <_ZN9pruThreadC1EP11TIM_TypeDef9IRQn_Typem>:
 8002e6c:	b510      	push	{r4, lr}
 8002e6e:	7202      	strb	r2, [r0, #8]
 8002e70:	2200      	movs	r2, #0
 8002e72:	4604      	mov	r4, r0
 8002e74:	e9c0 2205 	strd	r2, r2, [r0, #20]
 8002e78:	e9c0 2207 	strd	r2, r2, [r0, #28]
 8002e7c:	e9c0 2209 	strd	r2, r2, [r0, #36]	; 0x24
 8002e80:	6041      	str	r1, [r0, #4]
 8002e82:	60c3      	str	r3, [r0, #12]
 8002e84:	62c2      	str	r2, [r0, #44]	; 0x2c
 8002e86:	4619      	mov	r1, r3
 8002e88:	4802      	ldr	r0, [pc, #8]	; (8002e94 <_ZN9pruThreadC1EP11TIM_TypeDef9IRQn_Typem+0x28>)
 8002e8a:	f007 fcf5 	bl	800a878 <iprintf>
 8002e8e:	4620      	mov	r0, r4
 8002e90:	bd10      	pop	{r4, pc}
 8002e92:	bf00      	nop
 8002e94:	0800bc08 	.word	0x0800bc08

08002e98 <_ZN9pruThread11startThreadEv>:
 8002e98:	b537      	push	{r0, r1, r2, r4, r5, lr}
 8002e9a:	4604      	mov	r4, r0
 8002e9c:	2014      	movs	r0, #20
 8002e9e:	f007 fb11 	bl	800a4c4 <_Znwj>
 8002ea2:	68e3      	ldr	r3, [r4, #12]
 8002ea4:	f994 2008 	ldrsb.w	r2, [r4, #8]
 8002ea8:	6861      	ldr	r1, [r4, #4]
 8002eaa:	9400      	str	r4, [sp, #0]
 8002eac:	4605      	mov	r5, r0
 8002eae:	f000 f8f1 	bl	8003094 <_ZN8pruTimerC1EP11TIM_TypeDef9IRQn_TypemP9pruThread>
 8002eb2:	6025      	str	r5, [r4, #0]
 8002eb4:	b003      	add	sp, #12
 8002eb6:	bd30      	pop	{r4, r5, pc}

08002eb8 <_ZN9pruThread3runEv>:
 8002eb8:	b510      	push	{r4, lr}
 8002eba:	4604      	mov	r4, r0
 8002ebc:	6943      	ldr	r3, [r0, #20]
 8002ebe:	62e3      	str	r3, [r4, #44]	; 0x2c
 8002ec0:	6ae3      	ldr	r3, [r4, #44]	; 0x2c
 8002ec2:	69a2      	ldr	r2, [r4, #24]
 8002ec4:	4293      	cmp	r3, r2
 8002ec6:	d005      	beq.n	8002ed4 <_ZN9pruThread3runEv+0x1c>
 8002ec8:	6818      	ldr	r0, [r3, #0]
 8002eca:	f7ff fcd9 	bl	8002880 <_ZN6Module9runModuleEv>
 8002ece:	6ae3      	ldr	r3, [r4, #44]	; 0x2c
 8002ed0:	3304      	adds	r3, #4
 8002ed2:	e7f4      	b.n	8002ebe <_ZN9pruThread3runEv+0x6>
 8002ed4:	7c23      	ldrb	r3, [r4, #16]
 8002ed6:	b15b      	cbz	r3, 8002ef0 <_ZN9pruThread3runEv+0x38>
 8002ed8:	6a23      	ldr	r3, [r4, #32]
 8002eda:	62e3      	str	r3, [r4, #44]	; 0x2c
 8002edc:	6ae3      	ldr	r3, [r4, #44]	; 0x2c
 8002ede:	6a62      	ldr	r2, [r4, #36]	; 0x24
 8002ee0:	4293      	cmp	r3, r2
 8002ee2:	d005      	beq.n	8002ef0 <_ZN9pruThread3runEv+0x38>
 8002ee4:	6818      	ldr	r0, [r3, #0]
 8002ee6:	f7ff fcde 	bl	80028a6 <_ZN6Module13runModulePostEv>
 8002eea:	6ae3      	ldr	r3, [r4, #44]	; 0x2c
 8002eec:	3304      	adds	r3, #4
 8002eee:	e7f4      	b.n	8002eda <_ZN9pruThread3runEv+0x22>
 8002ef0:	bd10      	pop	{r4, pc}
	...

08002ef4 <_ZNSt6vectorIP6ModuleSaIS1_EE17_M_realloc_insertIJRKS1_EEEvN9__gnu_cxx17__normal_iteratorIPS1_S3_EEDpOT_>:
 8002ef4:	e92d 4ff8 	stmdb	sp!, {r3, r4, r5, r6, r7, r8, r9, sl, fp, lr}
 8002ef8:	e9d0 9800 	ldrd	r9, r8, [r0]
 8002efc:	f06f 4360 	mvn.w	r3, #3758096384	; 0xe0000000
 8002f00:	4693      	mov	fp, r2
 8002f02:	eba8 0209 	sub.w	r2, r8, r9
 8002f06:	ebb3 0fa2 	cmp.w	r3, r2, asr #2
 8002f0a:	4607      	mov	r7, r0
 8002f0c:	468a      	mov	sl, r1
 8002f0e:	ea4f 04a2 	mov.w	r4, r2, asr #2
 8002f12:	d102      	bne.n	8002f1a <_ZNSt6vectorIP6ModuleSaIS1_EE17_M_realloc_insertIJRKS1_EEEvN9__gnu_cxx17__normal_iteratorIPS1_S3_EEDpOT_+0x26>
 8002f14:	481d      	ldr	r0, [pc, #116]	; (8002f8c <_ZNSt6vectorIP6ModuleSaIS1_EE17_M_realloc_insertIJRKS1_EEEvN9__gnu_cxx17__normal_iteratorIPS1_S3_EEDpOT_+0x98>)
 8002f16:	f007 faef 	bl	800a4f8 <_ZSt20__throw_length_errorPKc>
 8002f1a:	2c01      	cmp	r4, #1
 8002f1c:	4622      	mov	r2, r4
 8002f1e:	bf38      	it	cc
 8002f20:	2201      	movcc	r2, #1
 8002f22:	18a4      	adds	r4, r4, r2
 8002f24:	eba1 0509 	sub.w	r5, r1, r9
 8002f28:	d22d      	bcs.n	8002f86 <_ZNSt6vectorIP6ModuleSaIS1_EE17_M_realloc_insertIJRKS1_EEEvN9__gnu_cxx17__normal_iteratorIPS1_S3_EEDpOT_+0x92>
 8002f2a:	b13c      	cbz	r4, 8002f3c <_ZNSt6vectorIP6ModuleSaIS1_EE17_M_realloc_insertIJRKS1_EEEvN9__gnu_cxx17__normal_iteratorIPS1_S3_EEDpOT_+0x48>
 8002f2c:	429c      	cmp	r4, r3
 8002f2e:	bf28      	it	cs
 8002f30:	461c      	movcs	r4, r3
 8002f32:	00a0      	lsls	r0, r4, #2
 8002f34:	f007 fac6 	bl	800a4c4 <_Znwj>
 8002f38:	4606      	mov	r6, r0
 8002f3a:	e000      	b.n	8002f3e <_ZNSt6vectorIP6ModuleSaIS1_EE17_M_realloc_insertIJRKS1_EEEvN9__gnu_cxx17__normal_iteratorIPS1_S3_EEDpOT_+0x4a>
 8002f3c:	4626      	mov	r6, r4
 8002f3e:	f8db 3000 	ldr.w	r3, [fp]
 8002f42:	2d00      	cmp	r5, #0
 8002f44:	5173      	str	r3, [r6, r5]
 8002f46:	dd04      	ble.n	8002f52 <_ZNSt6vectorIP6ModuleSaIS1_EE17_M_realloc_insertIJRKS1_EEEvN9__gnu_cxx17__normal_iteratorIPS1_S3_EEDpOT_+0x5e>
 8002f48:	462a      	mov	r2, r5
 8002f4a:	4649      	mov	r1, r9
 8002f4c:	4630      	mov	r0, r6
 8002f4e:	f007 fbcb 	bl	800a6e8 <memmove>
 8002f52:	eba8 080a 	sub.w	r8, r8, sl
 8002f56:	3504      	adds	r5, #4
 8002f58:	f1b8 0f00 	cmp.w	r8, #0
 8002f5c:	4435      	add	r5, r6
 8002f5e:	dd04      	ble.n	8002f6a <_ZNSt6vectorIP6ModuleSaIS1_EE17_M_realloc_insertIJRKS1_EEEvN9__gnu_cxx17__normal_iteratorIPS1_S3_EEDpOT_+0x76>
 8002f60:	4642      	mov	r2, r8
 8002f62:	4651      	mov	r1, sl
 8002f64:	4628      	mov	r0, r5
 8002f66:	f007 fbb1 	bl	800a6cc <memcpy>
 8002f6a:	4445      	add	r5, r8
 8002f6c:	f1b9 0f00 	cmp.w	r9, #0
 8002f70:	d002      	beq.n	8002f78 <_ZNSt6vectorIP6ModuleSaIS1_EE17_M_realloc_insertIJRKS1_EEEvN9__gnu_cxx17__normal_iteratorIPS1_S3_EEDpOT_+0x84>
 8002f72:	4648      	mov	r0, r9
 8002f74:	f007 faa2 	bl	800a4bc <_ZdlPv>
 8002f78:	eb06 0484 	add.w	r4, r6, r4, lsl #2
 8002f7c:	e9c7 6500 	strd	r6, r5, [r7]
 8002f80:	60bc      	str	r4, [r7, #8]
 8002f82:	e8bd 8ff8 	ldmia.w	sp!, {r3, r4, r5, r6, r7, r8, r9, sl, fp, pc}
 8002f86:	461c      	mov	r4, r3
 8002f88:	e7d3      	b.n	8002f32 <_ZNSt6vectorIP6ModuleSaIS1_EE17_M_realloc_insertIJRKS1_EEEvN9__gnu_cxx17__normal_iteratorIPS1_S3_EEDpOT_+0x3e>
 8002f8a:	bf00      	nop
 8002f8c:	0800bc1c 	.word	0x0800bc1c

08002f90 <_ZNSt6vectorIP6ModuleSaIS1_EE9push_backERKS1_>:
 8002f90:	460a      	mov	r2, r1
 8002f92:	b510      	push	{r4, lr}
 8002f94:	e9d0 1401 	ldrd	r1, r4, [r0, #4]
 8002f98:	42a1      	cmp	r1, r4
 8002f9a:	d004      	beq.n	8002fa6 <_ZNSt6vectorIP6ModuleSaIS1_EE9push_backERKS1_+0x16>
 8002f9c:	6812      	ldr	r2, [r2, #0]
 8002f9e:	f841 2b04 	str.w	r2, [r1], #4
 8002fa2:	6041      	str	r1, [r0, #4]
 8002fa4:	bd10      	pop	{r4, pc}
 8002fa6:	f7ff ffa5 	bl	8002ef4 <_ZNSt6vectorIP6ModuleSaIS1_EE17_M_realloc_insertIJRKS1_EEEvN9__gnu_cxx17__normal_iteratorIPS1_S3_EEDpOT_>
 8002faa:	e7fb      	b.n	8002fa4 <_ZNSt6vectorIP6ModuleSaIS1_EE9push_backERKS1_+0x14>

08002fac <_ZN9pruThread14registerModuleEP6Module>:
 8002fac:	b507      	push	{r0, r1, r2, lr}
 8002fae:	3014      	adds	r0, #20
 8002fb0:	9101      	str	r1, [sp, #4]
 8002fb2:	a901      	add	r1, sp, #4
 8002fb4:	f7ff ffec 	bl	8002f90 <_ZNSt6vectorIP6ModuleSaIS1_EE9push_backERKS1_>
 8002fb8:	b003      	add	sp, #12
 8002fba:	f85d fb04 	ldr.w	pc, [sp], #4

08002fbe <_ZN9pruThread18registerModulePostEP6Module>:
 8002fbe:	b513      	push	{r0, r1, r4, lr}
 8002fc0:	4604      	mov	r4, r0
 8002fc2:	9101      	str	r1, [sp, #4]
 8002fc4:	3020      	adds	r0, #32
 8002fc6:	a901      	add	r1, sp, #4
 8002fc8:	f7ff ffe2 	bl	8002f90 <_ZNSt6vectorIP6ModuleSaIS1_EE9push_backERKS1_>
 8002fcc:	2301      	movs	r3, #1
 8002fce:	7423      	strb	r3, [r4, #16]
 8002fd0:	b002      	add	sp, #8
 8002fd2:	bd10      	pop	{r4, pc}

08002fd4 <_ZN8pruTimer9timerTickEv>:
 8002fd4:	6900      	ldr	r0, [r0, #16]
 8002fd6:	f7ff bf6f 	b.w	8002eb8 <_ZN9pruThread3runEv>
	...

08002fdc <_ZN8pruTimer10startTimerEv>:
 8002fdc:	b513      	push	{r0, r1, r4, lr}
 8002fde:	6843      	ldr	r3, [r0, #4]
 8002fe0:	4925      	ldr	r1, [pc, #148]	; (8003078 <_ZN8pruTimer10startTimerEv+0x9c>)
 8002fe2:	4604      	mov	r4, r0
 8002fe4:	428b      	cmp	r3, r1
 8002fe6:	d131      	bne.n	800304c <_ZN8pruTimer10startTimerEv+0x70>
 8002fe8:	4824      	ldr	r0, [pc, #144]	; (800307c <_ZN8pruTimer10startTimerEv+0xa0>)
 8002fea:	f007 fc45 	bl	800a878 <iprintf>
 8002fee:	2300      	movs	r3, #0
 8002ff0:	9300      	str	r3, [sp, #0]
 8002ff2:	4b23      	ldr	r3, [pc, #140]	; (8003080 <_ZN8pruTimer10startTimerEv+0xa4>)
 8002ff4:	6c5a      	ldr	r2, [r3, #68]	; 0x44
 8002ff6:	f042 0201 	orr.w	r2, r2, #1
 8002ffa:	645a      	str	r2, [r3, #68]	; 0x44
 8002ffc:	6c5b      	ldr	r3, [r3, #68]	; 0x44
 8002ffe:	f003 0301 	and.w	r3, r3, #1
 8003002:	9300      	str	r3, [sp, #0]
 8003004:	9b00      	ldr	r3, [sp, #0]
 8003006:	4b1f      	ldr	r3, [pc, #124]	; (8003084 <_ZN8pruTimer10startTimerEv+0xa8>)
 8003008:	681a      	ldr	r2, [r3, #0]
 800300a:	6863      	ldr	r3, [r4, #4]
 800300c:	6859      	ldr	r1, [r3, #4]
 800300e:	2100      	movs	r1, #0
 8003010:	6059      	str	r1, [r3, #4]
 8003012:	6299      	str	r1, [r3, #40]	; 0x28
 8003014:	68e1      	ldr	r1, [r4, #12]
 8003016:	fbb2 f2f1 	udiv	r2, r2, r1
 800301a:	3a01      	subs	r2, #1
 800301c:	62da      	str	r2, [r3, #44]	; 0x2c
 800301e:	2201      	movs	r2, #1
 8003020:	615a      	str	r2, [r3, #20]
 8003022:	60da      	str	r2, [r3, #12]
 8003024:	6819      	ldr	r1, [r3, #0]
 8003026:	4311      	orrs	r1, r2
 8003028:	6019      	str	r1, [r3, #0]
 800302a:	f994 3008 	ldrsb.w	r3, [r4, #8]
 800302e:	2b00      	cmp	r3, #0
 8003030:	db06      	blt.n	8003040 <_ZN8pruTimer10startTimerEv+0x64>
 8003032:	0959      	lsrs	r1, r3, #5
 8003034:	f003 031f 	and.w	r3, r3, #31
 8003038:	409a      	lsls	r2, r3
 800303a:	4b13      	ldr	r3, [pc, #76]	; (8003088 <_ZN8pruTimer10startTimerEv+0xac>)
 800303c:	f843 2021 	str.w	r2, [r3, r1, lsl #2]
 8003040:	4812      	ldr	r0, [pc, #72]	; (800308c <_ZN8pruTimer10startTimerEv+0xb0>)
 8003042:	b002      	add	sp, #8
 8003044:	e8bd 4010 	ldmia.w	sp!, {r4, lr}
 8003048:	f007 bc9c 	b.w	800a984 <puts>
 800304c:	f1b3 4f80 	cmp.w	r3, #1073741824	; 0x40000000
 8003050:	d1db      	bne.n	800300a <_ZN8pruTimer10startTimerEv+0x2e>
 8003052:	480f      	ldr	r0, [pc, #60]	; (8003090 <_ZN8pruTimer10startTimerEv+0xb4>)
 8003054:	f007 fc10 	bl	800a878 <iprintf>
 8003058:	2300      	movs	r3, #0
 800305a:	9301      	str	r3, [sp, #4]
 800305c:	4b08      	ldr	r3, [pc, #32]	; (8003080 <_ZN8pruTimer10startTimerEv+0xa4>)
 800305e:	6c1a      	ldr	r2, [r3, #64]	; 0x40
 8003060:	f042 0201 	orr.w	r2, r2, #1
 8003064:	641a      	str	r2, [r3, #64]	; 0x40
 8003066:	6c1b      	ldr	r3, [r3, #64]	; 0x40
 8003068:	f003 0301 	and.w	r3, r3, #1
 800306c:	9301      	str	r3, [sp, #4]
 800306e:	9b01      	ldr	r3, [sp, #4]
 8003070:	4b04      	ldr	r3, [pc, #16]	; (8003084 <_ZN8pruTimer10startTimerEv+0xa8>)
 8003072:	681a      	ldr	r2, [r3, #0]
 8003074:	0852      	lsrs	r2, r2, #1
 8003076:	e7c8      	b.n	800300a <_ZN8pruTimer10startTimerEv+0x2e>
 8003078:	40010000 	.word	0x40010000
 800307c:	0800bc36 	.word	0x0800bc36
 8003080:	40023800 	.word	0x40023800
 8003084:	20000004 	.word	0x20000004
 8003088:	e000e100 	.word	0xe000e100
 800308c:	0800bc5e 	.word	0x0800bc5e
 8003090:	0800bc4a 	.word	0x0800bc4a

08003094 <_ZN8pruTimerC1EP11TIM_TypeDef9IRQn_TypemP9pruThread>:
 8003094:	b538      	push	{r3, r4, r5, lr}
 8003096:	60c3      	str	r3, [r0, #12]
 8003098:	9b04      	ldr	r3, [sp, #16]
 800309a:	4604      	mov	r4, r0
 800309c:	6103      	str	r3, [r0, #16]
 800309e:	6041      	str	r1, [r0, #4]
 80030a0:	7202      	strb	r2, [r0, #8]
 80030a2:	2008      	movs	r0, #8
 80030a4:	f007 fa0e 	bl	800a4c4 <_Znwj>
 80030a8:	4605      	mov	r5, r0
 80030aa:	4622      	mov	r2, r4
 80030ac:	f994 1008 	ldrsb.w	r1, [r4, #8]
 80030b0:	f000 f80a 	bl	80030c8 <_ZN14TimerInterruptC1EiP8pruTimer>
 80030b4:	4620      	mov	r0, r4
 80030b6:	6025      	str	r5, [r4, #0]
 80030b8:	f7ff ff90 	bl	8002fdc <_ZN8pruTimer10startTimerEv>
 80030bc:	4620      	mov	r0, r4
 80030be:	bd38      	pop	{r3, r4, r5, pc}

080030c0 <_ZN14TimerInterrupt11ISR_HandlerEv>:
 80030c0:	6840      	ldr	r0, [r0, #4]
 80030c2:	f7ff bf87 	b.w	8002fd4 <_ZN8pruTimer9timerTickEv>
	...

080030c8 <_ZN14TimerInterruptC1EiP8pruTimer>:
 80030c8:	b570      	push	{r4, r5, r6, lr}
 80030ca:	4604      	mov	r4, r0
 80030cc:	460d      	mov	r5, r1
 80030ce:	4616      	mov	r6, r2
 80030d0:	f7fe f9de 	bl	8001490 <_ZN9InterruptC1Ev>
 80030d4:	4b04      	ldr	r3, [pc, #16]	; (80030e8 <_ZN14TimerInterruptC1EiP8pruTimer+0x20>)
 80030d6:	4628      	mov	r0, r5
 80030d8:	4621      	mov	r1, r4
 80030da:	e9c4 3600 	strd	r3, r6, [r4]
 80030de:	f7fe f9dd 	bl	800149c <_ZN9Interrupt8RegisterEiPS_>
 80030e2:	4620      	mov	r0, r4
 80030e4:	bd70      	pop	{r4, r5, r6, pc}
 80030e6:	bf00      	nop
 80030e8:	0800bc78 	.word	0x0800bc78

080030ec <Reset_Handler>:
 80030ec:	f8df d034 	ldr.w	sp, [pc, #52]	; 8003124 <LoopFillZerobss+0x12>
 80030f0:	480d      	ldr	r0, [pc, #52]	; (8003128 <LoopFillZerobss+0x16>)
 80030f2:	490e      	ldr	r1, [pc, #56]	; (800312c <LoopFillZerobss+0x1a>)
 80030f4:	4a0e      	ldr	r2, [pc, #56]	; (8003130 <LoopFillZerobss+0x1e>)
 80030f6:	2300      	movs	r3, #0
 80030f8:	e002      	b.n	8003100 <LoopCopyDataInit>

080030fa <CopyDataInit>:
 80030fa:	58d4      	ldr	r4, [r2, r3]
 80030fc:	50c4      	str	r4, [r0, r3]
 80030fe:	3304      	adds	r3, #4

08003100 <LoopCopyDataInit>:
 8003100:	18c4      	adds	r4, r0, r3
 8003102:	428c      	cmp	r4, r1
 8003104:	d3f9      	bcc.n	80030fa <CopyDataInit>
 8003106:	4a0b      	ldr	r2, [pc, #44]	; (8003134 <LoopFillZerobss+0x22>)
 8003108:	4c0b      	ldr	r4, [pc, #44]	; (8003138 <LoopFillZerobss+0x26>)
 800310a:	2300      	movs	r3, #0
 800310c:	e001      	b.n	8003112 <LoopFillZerobss>

0800310e <FillZerobss>:
 800310e:	6013      	str	r3, [r2, #0]
 8003110:	3204      	adds	r2, #4

08003112 <LoopFillZerobss>:
 8003112:	42a2      	cmp	r2, r4
 8003114:	d3fb      	bcc.n	800310e <FillZerobss>
 8003116:	f7ff fadd 	bl	80026d4 <SystemInit>
 800311a:	f007 fa87 	bl	800a62c <__libc_init_array>
 800311e:	f7ff f941 	bl	80023a4 <main>
 8003122:	4770      	bx	lr
 8003124:	2001c000 	.word	0x2001c000
 8003128:	20000000 	.word	0x20000000
 800312c:	20000080 	.word	0x20000080
 8003130:	0800d234 	.word	0x0800d234
 8003134:	20000080 	.word	0x20000080
 8003138:	20006bb8 	.word	0x20006bb8

0800313c <ADC_IRQHandler>:
 800313c:	e7fe      	b.n	800313c <ADC_IRQHandler>
	...

08003140 <HAL_InitTick>:
 8003140:	b538      	push	{r3, r4, r5, lr}
 8003142:	4b0e      	ldr	r3, [pc, #56]	; (800317c <HAL_InitTick+0x3c>)
 8003144:	4605      	mov	r5, r0
 8003146:	7818      	ldrb	r0, [r3, #0]
 8003148:	f44f 737a 	mov.w	r3, #1000	; 0x3e8
 800314c:	fbb3 f3f0 	udiv	r3, r3, r0
 8003150:	4a0b      	ldr	r2, [pc, #44]	; (8003180 <HAL_InitTick+0x40>)
 8003152:	6810      	ldr	r0, [r2, #0]
 8003154:	fbb0 f0f3 	udiv	r0, r0, r3
 8003158:	f000 f8a8 	bl	80032ac <HAL_SYSTICK_Config>
 800315c:	4604      	mov	r4, r0
 800315e:	b958      	cbnz	r0, 8003178 <HAL_InitTick+0x38>
 8003160:	2d0f      	cmp	r5, #15
 8003162:	d809      	bhi.n	8003178 <HAL_InitTick+0x38>
 8003164:	4602      	mov	r2, r0
 8003166:	4629      	mov	r1, r5
 8003168:	f04f 30ff 	mov.w	r0, #4294967295
 800316c:	f000 f85e 	bl	800322c <HAL_NVIC_SetPriority>
 8003170:	4620      	mov	r0, r4
 8003172:	4b04      	ldr	r3, [pc, #16]	; (8003184 <HAL_InitTick+0x44>)
 8003174:	601d      	str	r5, [r3, #0]
 8003176:	bd38      	pop	{r3, r4, r5, pc}
 8003178:	2001      	movs	r0, #1
 800317a:	e7fc      	b.n	8003176 <HAL_InitTick+0x36>
 800317c:	20000008 	.word	0x20000008
 8003180:	20000004 	.word	0x20000004
 8003184:	2000000c 	.word	0x2000000c

08003188 <HAL_Init>:
 8003188:	b508      	push	{r3, lr}
 800318a:	4b0b      	ldr	r3, [pc, #44]	; (80031b8 <HAL_Init+0x30>)
 800318c:	2003      	movs	r0, #3
 800318e:	681a      	ldr	r2, [r3, #0]
 8003190:	f442 7200 	orr.w	r2, r2, #512	; 0x200
 8003194:	601a      	str	r2, [r3, #0]
 8003196:	681a      	ldr	r2, [r3, #0]
 8003198:	f442 6280 	orr.w	r2, r2, #1024	; 0x400
 800319c:	601a      	str	r2, [r3, #0]
 800319e:	681a      	ldr	r2, [r3, #0]
 80031a0:	f442 7280 	orr.w	r2, r2, #256	; 0x100
 80031a4:	601a      	str	r2, [r3, #0]
 80031a6:	f000 f82f 	bl	8003208 <HAL_NVIC_SetPriorityGrouping>
 80031aa:	200f      	movs	r0, #15
 80031ac:	f7ff ffc8 	bl	8003140 <HAL_InitTick>
 80031b0:	f7ff f9b0 	bl	8002514 <HAL_MspInit>
 80031b4:	2000      	movs	r0, #0
 80031b6:	bd08      	pop	{r3, pc}
 80031b8:	40023c00 	.word	0x40023c00

080031bc <HAL_IncTick>:
 80031bc:	4a03      	ldr	r2, [pc, #12]	; (80031cc <HAL_IncTick+0x10>)
 80031be:	4b04      	ldr	r3, [pc, #16]	; (80031d0 <HAL_IncTick+0x14>)
 80031c0:	6811      	ldr	r1, [r2, #0]
 80031c2:	781b      	ldrb	r3, [r3, #0]
 80031c4:	440b      	add	r3, r1
 80031c6:	6013      	str	r3, [r2, #0]
 80031c8:	4770      	bx	lr
 80031ca:	bf00      	nop
 80031cc:	20000560 	.word	0x20000560
 80031d0:	20000008 	.word	0x20000008

080031d4 <HAL_GetTick>:
 80031d4:	4b01      	ldr	r3, [pc, #4]	; (80031dc <HAL_GetTick+0x8>)
 80031d6:	6818      	ldr	r0, [r3, #0]
 80031d8:	4770      	bx	lr
 80031da:	bf00      	nop
 80031dc:	20000560 	.word	0x20000560

080031e0 <HAL_Delay>:
 80031e0:	b537      	push	{r0, r1, r2, r4, r5, lr}
 80031e2:	9001      	str	r0, [sp, #4]
 80031e4:	f7ff fff6 	bl	80031d4 <HAL_GetTick>
 80031e8:	4605      	mov	r5, r0
 80031ea:	9c01      	ldr	r4, [sp, #4]
 80031ec:	1c63      	adds	r3, r4, #1
 80031ee:	bf1e      	ittt	ne
 80031f0:	4b04      	ldrne	r3, [pc, #16]	; (8003204 <HAL_Delay+0x24>)
 80031f2:	781b      	ldrbne	r3, [r3, #0]
 80031f4:	18e4      	addne	r4, r4, r3
 80031f6:	f7ff ffed 	bl	80031d4 <HAL_GetTick>
 80031fa:	1b43      	subs	r3, r0, r5
 80031fc:	42a3      	cmp	r3, r4
 80031fe:	d3fa      	bcc.n	80031f6 <HAL_Delay+0x16>
 8003200:	b003      	add	sp, #12
 8003202:	bd30      	pop	{r4, r5, pc}
 8003204:	20000008 	.word	0x20000008

08003208 <HAL_NVIC_SetPriorityGrouping>:
 8003208:	4907      	ldr	r1, [pc, #28]	; (8003228 <HAL_NVIC_SetPriorityGrouping+0x20>)
 800320a:	0203      	lsls	r3, r0, #8
 800320c:	68ca      	ldr	r2, [r1, #12]
 800320e:	f403 63e0 	and.w	r3, r3, #1792	; 0x700
 8003212:	f422 62e0 	bic.w	r2, r2, #1792	; 0x700
 8003216:	0412      	lsls	r2, r2, #16
 8003218:	0c12      	lsrs	r2, r2, #16
 800321a:	4313      	orrs	r3, r2
 800321c:	f043 63bf 	orr.w	r3, r3, #100139008	; 0x5f80000
 8003220:	f443 3300 	orr.w	r3, r3, #131072	; 0x20000
 8003224:	60cb      	str	r3, [r1, #12]
 8003226:	4770      	bx	lr
 8003228:	e000ed00 	.word	0xe000ed00

0800322c <HAL_NVIC_SetPriority>:
 800322c:	4b16      	ldr	r3, [pc, #88]	; (8003288 <HAL_NVIC_SetPriority+0x5c>)
 800322e:	b530      	push	{r4, r5, lr}
 8003230:	68dc      	ldr	r4, [r3, #12]
 8003232:	f3c4 2402 	ubfx	r4, r4, #8, #3
 8003236:	f1c4 0307 	rsb	r3, r4, #7
 800323a:	1d25      	adds	r5, r4, #4
 800323c:	2b04      	cmp	r3, #4
 800323e:	bf28      	it	cs
 8003240:	2304      	movcs	r3, #4
 8003242:	2d06      	cmp	r5, #6
 8003244:	f04f 35ff 	mov.w	r5, #4294967295
 8003248:	bf98      	it	ls
 800324a:	2400      	movls	r4, #0
 800324c:	fa05 f303 	lsl.w	r3, r5, r3
 8003250:	bf88      	it	hi
 8003252:	3c03      	subhi	r4, #3
 8003254:	ea21 0303 	bic.w	r3, r1, r3
 8003258:	40a3      	lsls	r3, r4
 800325a:	fa05 f404 	lsl.w	r4, r5, r4
 800325e:	ea22 0204 	bic.w	r2, r2, r4
 8003262:	2800      	cmp	r0, #0
 8003264:	ea43 0302 	orr.w	r3, r3, r2
 8003268:	bfac      	ite	ge
 800326a:	f100 4060 	addge.w	r0, r0, #3758096384	; 0xe0000000
 800326e:	4a07      	ldrlt	r2, [pc, #28]	; (800328c <HAL_NVIC_SetPriority+0x60>)
 8003270:	ea4f 1303 	mov.w	r3, r3, lsl #4
 8003274:	b2db      	uxtb	r3, r3
 8003276:	bfab      	itete	ge
 8003278:	f500 4061 	addge.w	r0, r0, #57600	; 0xe100
 800327c:	f000 000f 	andlt.w	r0, r0, #15
 8003280:	f880 3300 	strbge.w	r3, [r0, #768]	; 0x300
 8003284:	5413      	strblt	r3, [r2, r0]
 8003286:	bd30      	pop	{r4, r5, pc}
 8003288:	e000ed00 	.word	0xe000ed00
 800328c:	e000ed14 	.word	0xe000ed14

08003290 <HAL_NVIC_EnableIRQ>:
 8003290:	2800      	cmp	r0, #0
 8003292:	db08      	blt.n	80032a6 <HAL_NVIC_EnableIRQ+0x16>
 8003294:	2301      	movs	r3, #1
 8003296:	0942      	lsrs	r2, r0, #5
 8003298:	f000 001f 	and.w	r0, r0, #31
 800329c:	fa03 f000 	lsl.w	r0, r3, r0
 80032a0:	4b01      	ldr	r3, [pc, #4]	; (80032a8 <HAL_NVIC_EnableIRQ+0x18>)
 80032a2:	f843 0022 	str.w	r0, [r3, r2, lsl #2]
 80032a6:	4770      	bx	lr
 80032a8:	e000e100 	.word	0xe000e100

080032ac <HAL_SYSTICK_Config>:
 80032ac:	3801      	subs	r0, #1
 80032ae:	f1b0 7f80 	cmp.w	r0, #16777216	; 0x1000000
 80032b2:	d20a      	bcs.n	80032ca <HAL_SYSTICK_Config+0x1e>
 80032b4:	21f0      	movs	r1, #240	; 0xf0
 80032b6:	4b06      	ldr	r3, [pc, #24]	; (80032d0 <HAL_SYSTICK_Config+0x24>)
 80032b8:	4a06      	ldr	r2, [pc, #24]	; (80032d4 <HAL_SYSTICK_Config+0x28>)
 80032ba:	6058      	str	r0, [r3, #4]
 80032bc:	f882 1023 	strb.w	r1, [r2, #35]	; 0x23
 80032c0:	2000      	movs	r0, #0
 80032c2:	2207      	movs	r2, #7
 80032c4:	6098      	str	r0, [r3, #8]
 80032c6:	601a      	str	r2, [r3, #0]
 80032c8:	4770      	bx	lr
 80032ca:	2001      	movs	r0, #1
 80032cc:	4770      	bx	lr
 80032ce:	bf00      	nop
 80032d0:	e000e010 	.word	0xe000e010
 80032d4:	e000ed00 	.word	0xe000ed00

080032d8 <DMA_CalcBaseAndBitshift>:
 80032d8:	6803      	ldr	r3, [r0, #0]
 80032da:	4602      	mov	r2, r0
 80032dc:	2018      	movs	r0, #24
 80032de:	b2d9      	uxtb	r1, r3
 80032e0:	3910      	subs	r1, #16
 80032e2:	fbb1 f0f0 	udiv	r0, r1, r0
 80032e6:	b510      	push	{r4, lr}
 80032e8:	4c05      	ldr	r4, [pc, #20]	; (8003300 <DMA_CalcBaseAndBitshift+0x28>)
 80032ea:	295f      	cmp	r1, #95	; 0x5f
 80032ec:	5c20      	ldrb	r0, [r4, r0]
 80032ee:	65d0      	str	r0, [r2, #92]	; 0x5c
 80032f0:	f423 707f 	bic.w	r0, r3, #1020	; 0x3fc
 80032f4:	f020 0003 	bic.w	r0, r0, #3
 80032f8:	bf88      	it	hi
 80032fa:	3004      	addhi	r0, #4
 80032fc:	6590      	str	r0, [r2, #88]	; 0x58
 80032fe:	bd10      	pop	{r4, pc}
 8003300:	0800bc7c 	.word	0x0800bc7c

08003304 <HAL_DMA_Init>:
 8003304:	b570      	push	{r4, r5, r6, lr}
 8003306:	4604      	mov	r4, r0
 8003308:	f7ff ff64 	bl	80031d4 <HAL_GetTick>
 800330c:	4605      	mov	r5, r0
 800330e:	2c00      	cmp	r4, #0
 8003310:	d071      	beq.n	80033f6 <HAL_DMA_Init+0xf2>
 8003312:	2302      	movs	r3, #2
 8003314:	f884 3035 	strb.w	r3, [r4, #53]	; 0x35
 8003318:	2300      	movs	r3, #0
 800331a:	6822      	ldr	r2, [r4, #0]
 800331c:	f884 3034 	strb.w	r3, [r4, #52]	; 0x34
 8003320:	6813      	ldr	r3, [r2, #0]
 8003322:	f023 0301 	bic.w	r3, r3, #1
 8003326:	6013      	str	r3, [r2, #0]
 8003328:	6821      	ldr	r1, [r4, #0]
 800332a:	680b      	ldr	r3, [r1, #0]
 800332c:	07d8      	lsls	r0, r3, #31
 800332e:	d42e      	bmi.n	800338e <HAL_DMA_Init+0x8a>
 8003330:	680b      	ldr	r3, [r1, #0]
 8003332:	4d32      	ldr	r5, [pc, #200]	; (80033fc <HAL_DMA_Init+0xf8>)
 8003334:	69a0      	ldr	r0, [r4, #24]
 8003336:	401d      	ands	r5, r3
 8003338:	e9d4 2301 	ldrd	r2, r3, [r4, #4]
 800333c:	4313      	orrs	r3, r2
 800333e:	68e2      	ldr	r2, [r4, #12]
 8003340:	4313      	orrs	r3, r2
 8003342:	6922      	ldr	r2, [r4, #16]
 8003344:	4313      	orrs	r3, r2
 8003346:	6962      	ldr	r2, [r4, #20]
 8003348:	4313      	orrs	r3, r2
 800334a:	69e2      	ldr	r2, [r4, #28]
 800334c:	4303      	orrs	r3, r0
 800334e:	4313      	orrs	r3, r2
 8003350:	6a22      	ldr	r2, [r4, #32]
 8003352:	4313      	orrs	r3, r2
 8003354:	6a62      	ldr	r2, [r4, #36]	; 0x24
 8003356:	432b      	orrs	r3, r5
 8003358:	2a04      	cmp	r2, #4
 800335a:	bf02      	ittt	eq
 800335c:	e9d4 560b 	ldrdeq	r5, r6, [r4, #44]	; 0x2c
 8003360:	4335      	orreq	r5, r6
 8003362:	432b      	orreq	r3, r5
 8003364:	600b      	str	r3, [r1, #0]
 8003366:	694b      	ldr	r3, [r1, #20]
 8003368:	2a04      	cmp	r2, #4
 800336a:	f023 0307 	bic.w	r3, r3, #7
 800336e:	ea43 0302 	orr.w	r3, r3, r2
 8003372:	d132      	bne.n	80033da <HAL_DMA_Init+0xd6>
 8003374:	6aa2      	ldr	r2, [r4, #40]	; 0x28
 8003376:	6ae5      	ldr	r5, [r4, #44]	; 0x2c
 8003378:	4313      	orrs	r3, r2
 800337a:	b375      	cbz	r5, 80033da <HAL_DMA_Init+0xd6>
 800337c:	b990      	cbnz	r0, 80033a4 <HAL_DMA_Init+0xa0>
 800337e:	2a01      	cmp	r2, #1
 8003380:	d020      	beq.n	80033c4 <HAL_DMA_Init+0xc0>
 8003382:	f032 0202 	bics.w	r2, r2, #2
 8003386:	d128      	bne.n	80033da <HAL_DMA_Init+0xd6>
 8003388:	01ea      	lsls	r2, r5, #7
 800338a:	d526      	bpl.n	80033da <HAL_DMA_Init+0xd6>
 800338c:	e01d      	b.n	80033ca <HAL_DMA_Init+0xc6>
 800338e:	f7ff ff21 	bl	80031d4 <HAL_GetTick>
 8003392:	1b40      	subs	r0, r0, r5
 8003394:	2805      	cmp	r0, #5
 8003396:	d9c7      	bls.n	8003328 <HAL_DMA_Init+0x24>
 8003398:	2320      	movs	r3, #32
 800339a:	2003      	movs	r0, #3
 800339c:	6563      	str	r3, [r4, #84]	; 0x54
 800339e:	f884 0035 	strb.w	r0, [r4, #53]	; 0x35
 80033a2:	bd70      	pop	{r4, r5, r6, pc}
 80033a4:	f5b0 5f00 	cmp.w	r0, #8192	; 0x2000
 80033a8:	d113      	bne.n	80033d2 <HAL_DMA_Init+0xce>
 80033aa:	2a03      	cmp	r2, #3
 80033ac:	d815      	bhi.n	80033da <HAL_DMA_Init+0xd6>
 80033ae:	a001      	add	r0, pc, #4	; (adr r0, 80033b4 <HAL_DMA_Init+0xb0>)
 80033b0:	f850 f022 	ldr.w	pc, [r0, r2, lsl #2]
 80033b4:	080033cb 	.word	0x080033cb
 80033b8:	08003389 	.word	0x08003389
 80033bc:	080033cb 	.word	0x080033cb
 80033c0:	080033c5 	.word	0x080033c5
 80033c4:	f1b5 7fc0 	cmp.w	r5, #25165824	; 0x1800000
 80033c8:	d107      	bne.n	80033da <HAL_DMA_Init+0xd6>
 80033ca:	2340      	movs	r3, #64	; 0x40
 80033cc:	2001      	movs	r0, #1
 80033ce:	6563      	str	r3, [r4, #84]	; 0x54
 80033d0:	e7e5      	b.n	800339e <HAL_DMA_Init+0x9a>
 80033d2:	2a02      	cmp	r2, #2
 80033d4:	d9f9      	bls.n	80033ca <HAL_DMA_Init+0xc6>
 80033d6:	2a03      	cmp	r2, #3
 80033d8:	d0d6      	beq.n	8003388 <HAL_DMA_Init+0x84>
 80033da:	614b      	str	r3, [r1, #20]
 80033dc:	4620      	mov	r0, r4
 80033de:	f7ff ff7b 	bl	80032d8 <DMA_CalcBaseAndBitshift>
 80033e2:	233f      	movs	r3, #63	; 0x3f
 80033e4:	6de2      	ldr	r2, [r4, #92]	; 0x5c
 80033e6:	4093      	lsls	r3, r2
 80033e8:	6083      	str	r3, [r0, #8]
 80033ea:	2000      	movs	r0, #0
 80033ec:	2301      	movs	r3, #1
 80033ee:	6560      	str	r0, [r4, #84]	; 0x54
 80033f0:	f884 3035 	strb.w	r3, [r4, #53]	; 0x35
 80033f4:	e7d5      	b.n	80033a2 <HAL_DMA_Init+0x9e>
 80033f6:	2001      	movs	r0, #1
 80033f8:	e7d3      	b.n	80033a2 <HAL_DMA_Init+0x9e>
 80033fa:	bf00      	nop
 80033fc:	f010803f 	.word	0xf010803f

08003400 <HAL_DMA_Start_IT>:
 8003400:	b570      	push	{r4, r5, r6, lr}
 8003402:	f890 4034 	ldrb.w	r4, [r0, #52]	; 0x34
 8003406:	6d86      	ldr	r6, [r0, #88]	; 0x58
 8003408:	2c01      	cmp	r4, #1
 800340a:	d031      	beq.n	8003470 <HAL_DMA_Start_IT+0x70>
 800340c:	2401      	movs	r4, #1
 800340e:	f880 4034 	strb.w	r4, [r0, #52]	; 0x34
 8003412:	f890 4035 	ldrb.w	r4, [r0, #53]	; 0x35
 8003416:	2500      	movs	r5, #0
 8003418:	2c01      	cmp	r4, #1
 800341a:	f04f 0402 	mov.w	r4, #2
 800341e:	d125      	bne.n	800346c <HAL_DMA_Start_IT+0x6c>
 8003420:	f880 4035 	strb.w	r4, [r0, #53]	; 0x35
 8003424:	6804      	ldr	r4, [r0, #0]
 8003426:	6545      	str	r5, [r0, #84]	; 0x54
 8003428:	6825      	ldr	r5, [r4, #0]
 800342a:	f425 2580 	bic.w	r5, r5, #262144	; 0x40000
 800342e:	6025      	str	r5, [r4, #0]
 8003430:	6063      	str	r3, [r4, #4]
 8003432:	6883      	ldr	r3, [r0, #8]
 8003434:	2b40      	cmp	r3, #64	; 0x40
 8003436:	f04f 033f 	mov.w	r3, #63	; 0x3f
 800343a:	bf0e      	itee	eq
 800343c:	60a2      	streq	r2, [r4, #8]
 800343e:	60a1      	strne	r1, [r4, #8]
 8003440:	60e2      	strne	r2, [r4, #12]
 8003442:	6dc2      	ldr	r2, [r0, #92]	; 0x5c
 8003444:	bf08      	it	eq
 8003446:	60e1      	streq	r1, [r4, #12]
 8003448:	4093      	lsls	r3, r2
 800344a:	60b3      	str	r3, [r6, #8]
 800344c:	6823      	ldr	r3, [r4, #0]
 800344e:	f043 0316 	orr.w	r3, r3, #22
 8003452:	6023      	str	r3, [r4, #0]
 8003454:	6c03      	ldr	r3, [r0, #64]	; 0x40
 8003456:	b11b      	cbz	r3, 8003460 <HAL_DMA_Start_IT+0x60>
 8003458:	6823      	ldr	r3, [r4, #0]
 800345a:	f043 0308 	orr.w	r3, r3, #8
 800345e:	6023      	str	r3, [r4, #0]
 8003460:	2000      	movs	r0, #0
 8003462:	6823      	ldr	r3, [r4, #0]
 8003464:	f043 0301 	orr.w	r3, r3, #1
 8003468:	6023      	str	r3, [r4, #0]
 800346a:	bd70      	pop	{r4, r5, r6, pc}
 800346c:	f880 5034 	strb.w	r5, [r0, #52]	; 0x34
 8003470:	2002      	movs	r0, #2
 8003472:	e7fa      	b.n	800346a <HAL_DMA_Start_IT+0x6a>

08003474 <HAL_DMA_IRQHandler>:
 8003474:	2300      	movs	r3, #0
 8003476:	b5f7      	push	{r0, r1, r2, r4, r5, r6, r7, lr}
 8003478:	2208      	movs	r2, #8
 800347a:	9301      	str	r3, [sp, #4]
 800347c:	4b5b      	ldr	r3, [pc, #364]	; (80035ec <HAL_DMA_IRQHandler+0x178>)
 800347e:	6d85      	ldr	r5, [r0, #88]	; 0x58
 8003480:	681f      	ldr	r7, [r3, #0]
 8003482:	6dc3      	ldr	r3, [r0, #92]	; 0x5c
 8003484:	682e      	ldr	r6, [r5, #0]
 8003486:	409a      	lsls	r2, r3
 8003488:	4232      	tst	r2, r6
 800348a:	4604      	mov	r4, r0
 800348c:	d00c      	beq.n	80034a8 <HAL_DMA_IRQHandler+0x34>
 800348e:	6801      	ldr	r1, [r0, #0]
 8003490:	6808      	ldr	r0, [r1, #0]
 8003492:	0740      	lsls	r0, r0, #29
 8003494:	d508      	bpl.n	80034a8 <HAL_DMA_IRQHandler+0x34>
 8003496:	6808      	ldr	r0, [r1, #0]
 8003498:	f020 0004 	bic.w	r0, r0, #4
 800349c:	6008      	str	r0, [r1, #0]
 800349e:	60aa      	str	r2, [r5, #8]
 80034a0:	6d62      	ldr	r2, [r4, #84]	; 0x54
 80034a2:	f042 0201 	orr.w	r2, r2, #1
 80034a6:	6562      	str	r2, [r4, #84]	; 0x54
 80034a8:	2201      	movs	r2, #1
 80034aa:	409a      	lsls	r2, r3
 80034ac:	4232      	tst	r2, r6
 80034ae:	d008      	beq.n	80034c2 <HAL_DMA_IRQHandler+0x4e>
 80034b0:	6821      	ldr	r1, [r4, #0]
 80034b2:	6949      	ldr	r1, [r1, #20]
 80034b4:	0609      	lsls	r1, r1, #24
 80034b6:	bf41      	itttt	mi
 80034b8:	60aa      	strmi	r2, [r5, #8]
 80034ba:	6d62      	ldrmi	r2, [r4, #84]	; 0x54
 80034bc:	f042 0202 	orrmi.w	r2, r2, #2
 80034c0:	6562      	strmi	r2, [r4, #84]	; 0x54
 80034c2:	2204      	movs	r2, #4
 80034c4:	409a      	lsls	r2, r3
 80034c6:	4232      	tst	r2, r6
 80034c8:	d008      	beq.n	80034dc <HAL_DMA_IRQHandler+0x68>
 80034ca:	6821      	ldr	r1, [r4, #0]
 80034cc:	6809      	ldr	r1, [r1, #0]
 80034ce:	0788      	lsls	r0, r1, #30
 80034d0:	bf41      	itttt	mi
 80034d2:	60aa      	strmi	r2, [r5, #8]
 80034d4:	6d62      	ldrmi	r2, [r4, #84]	; 0x54
 80034d6:	f042 0204 	orrmi.w	r2, r2, #4
 80034da:	6562      	strmi	r2, [r4, #84]	; 0x54
 80034dc:	2210      	movs	r2, #16
 80034de:	409a      	lsls	r2, r3
 80034e0:	4232      	tst	r2, r6
 80034e2:	d010      	beq.n	8003506 <HAL_DMA_IRQHandler+0x92>
 80034e4:	6823      	ldr	r3, [r4, #0]
 80034e6:	6819      	ldr	r1, [r3, #0]
 80034e8:	0709      	lsls	r1, r1, #28
 80034ea:	d50c      	bpl.n	8003506 <HAL_DMA_IRQHandler+0x92>
 80034ec:	60aa      	str	r2, [r5, #8]
 80034ee:	681a      	ldr	r2, [r3, #0]
 80034f0:	0350      	lsls	r0, r2, #13
 80034f2:	d537      	bpl.n	8003564 <HAL_DMA_IRQHandler+0xf0>
 80034f4:	681b      	ldr	r3, [r3, #0]
 80034f6:	0319      	lsls	r1, r3, #12
 80034f8:	d401      	bmi.n	80034fe <HAL_DMA_IRQHandler+0x8a>
 80034fa:	6c23      	ldr	r3, [r4, #64]	; 0x40
 80034fc:	e000      	b.n	8003500 <HAL_DMA_IRQHandler+0x8c>
 80034fe:	6ca3      	ldr	r3, [r4, #72]	; 0x48
 8003500:	b10b      	cbz	r3, 8003506 <HAL_DMA_IRQHandler+0x92>
 8003502:	4620      	mov	r0, r4
 8003504:	4798      	blx	r3
 8003506:	2220      	movs	r2, #32
 8003508:	6de1      	ldr	r1, [r4, #92]	; 0x5c
 800350a:	408a      	lsls	r2, r1
 800350c:	4232      	tst	r2, r6
 800350e:	d03a      	beq.n	8003586 <HAL_DMA_IRQHandler+0x112>
 8003510:	6823      	ldr	r3, [r4, #0]
 8003512:	6818      	ldr	r0, [r3, #0]
 8003514:	06c6      	lsls	r6, r0, #27
 8003516:	d536      	bpl.n	8003586 <HAL_DMA_IRQHandler+0x112>
 8003518:	60aa      	str	r2, [r5, #8]
 800351a:	f894 2035 	ldrb.w	r2, [r4, #53]	; 0x35
 800351e:	2a05      	cmp	r2, #5
 8003520:	681a      	ldr	r2, [r3, #0]
 8003522:	d127      	bne.n	8003574 <HAL_DMA_IRQHandler+0x100>
 8003524:	f022 0216 	bic.w	r2, r2, #22
 8003528:	601a      	str	r2, [r3, #0]
 800352a:	695a      	ldr	r2, [r3, #20]
 800352c:	f022 0280 	bic.w	r2, r2, #128	; 0x80
 8003530:	615a      	str	r2, [r3, #20]
 8003532:	6c22      	ldr	r2, [r4, #64]	; 0x40
 8003534:	b90a      	cbnz	r2, 800353a <HAL_DMA_IRQHandler+0xc6>
 8003536:	6ca2      	ldr	r2, [r4, #72]	; 0x48
 8003538:	b11a      	cbz	r2, 8003542 <HAL_DMA_IRQHandler+0xce>
 800353a:	681a      	ldr	r2, [r3, #0]
 800353c:	f022 0208 	bic.w	r2, r2, #8
 8003540:	601a      	str	r2, [r3, #0]
 8003542:	233f      	movs	r3, #63	; 0x3f
 8003544:	408b      	lsls	r3, r1
 8003546:	60ab      	str	r3, [r5, #8]
 8003548:	2301      	movs	r3, #1
 800354a:	f884 3035 	strb.w	r3, [r4, #53]	; 0x35
 800354e:	2300      	movs	r3, #0
 8003550:	f884 3034 	strb.w	r3, [r4, #52]	; 0x34
 8003554:	6d23      	ldr	r3, [r4, #80]	; 0x50
 8003556:	2b00      	cmp	r3, #0
 8003558:	d045      	beq.n	80035e6 <HAL_DMA_IRQHandler+0x172>
 800355a:	4620      	mov	r0, r4
 800355c:	b003      	add	sp, #12
 800355e:	e8bd 40f0 	ldmia.w	sp!, {r4, r5, r6, r7, lr}
 8003562:	4718      	bx	r3
 8003564:	681a      	ldr	r2, [r3, #0]
 8003566:	05d2      	lsls	r2, r2, #23
 8003568:	bf5e      	ittt	pl
 800356a:	681a      	ldrpl	r2, [r3, #0]
 800356c:	f022 0208 	bicpl.w	r2, r2, #8
 8003570:	601a      	strpl	r2, [r3, #0]
 8003572:	e7c2      	b.n	80034fa <HAL_DMA_IRQHandler+0x86>
 8003574:	0350      	lsls	r0, r2, #13
 8003576:	d527      	bpl.n	80035c8 <HAL_DMA_IRQHandler+0x154>
 8003578:	681b      	ldr	r3, [r3, #0]
 800357a:	0319      	lsls	r1, r3, #12
 800357c:	d431      	bmi.n	80035e2 <HAL_DMA_IRQHandler+0x16e>
 800357e:	6c63      	ldr	r3, [r4, #68]	; 0x44
 8003580:	b10b      	cbz	r3, 8003586 <HAL_DMA_IRQHandler+0x112>
 8003582:	4620      	mov	r0, r4
 8003584:	4798      	blx	r3
 8003586:	6d63      	ldr	r3, [r4, #84]	; 0x54
 8003588:	b36b      	cbz	r3, 80035e6 <HAL_DMA_IRQHandler+0x172>
 800358a:	6d63      	ldr	r3, [r4, #84]	; 0x54
 800358c:	07da      	lsls	r2, r3, #31
 800358e:	d519      	bpl.n	80035c4 <HAL_DMA_IRQHandler+0x150>
 8003590:	f44f 5316 	mov.w	r3, #9600	; 0x2580
 8003594:	fbb7 f7f3 	udiv	r7, r7, r3
 8003598:	2305      	movs	r3, #5
 800359a:	6822      	ldr	r2, [r4, #0]
 800359c:	f884 3035 	strb.w	r3, [r4, #53]	; 0x35
 80035a0:	6813      	ldr	r3, [r2, #0]
 80035a2:	f023 0301 	bic.w	r3, r3, #1
 80035a6:	6013      	str	r3, [r2, #0]
 80035a8:	9b01      	ldr	r3, [sp, #4]
 80035aa:	3301      	adds	r3, #1
 80035ac:	42bb      	cmp	r3, r7
 80035ae:	9301      	str	r3, [sp, #4]
 80035b0:	d802      	bhi.n	80035b8 <HAL_DMA_IRQHandler+0x144>
 80035b2:	6813      	ldr	r3, [r2, #0]
 80035b4:	07db      	lsls	r3, r3, #31
 80035b6:	d4f7      	bmi.n	80035a8 <HAL_DMA_IRQHandler+0x134>
 80035b8:	2301      	movs	r3, #1
 80035ba:	f884 3035 	strb.w	r3, [r4, #53]	; 0x35
 80035be:	2300      	movs	r3, #0
 80035c0:	f884 3034 	strb.w	r3, [r4, #52]	; 0x34
 80035c4:	6ce3      	ldr	r3, [r4, #76]	; 0x4c
 80035c6:	e7c6      	b.n	8003556 <HAL_DMA_IRQHandler+0xe2>
 80035c8:	681a      	ldr	r2, [r3, #0]
 80035ca:	f412 7280 	ands.w	r2, r2, #256	; 0x100
 80035ce:	d108      	bne.n	80035e2 <HAL_DMA_IRQHandler+0x16e>
 80035d0:	6819      	ldr	r1, [r3, #0]
 80035d2:	f021 0110 	bic.w	r1, r1, #16
 80035d6:	6019      	str	r1, [r3, #0]
 80035d8:	2301      	movs	r3, #1
 80035da:	f884 2034 	strb.w	r2, [r4, #52]	; 0x34
 80035de:	f884 3035 	strb.w	r3, [r4, #53]	; 0x35
 80035e2:	6be3      	ldr	r3, [r4, #60]	; 0x3c
 80035e4:	e7cc      	b.n	8003580 <HAL_DMA_IRQHandler+0x10c>
 80035e6:	b003      	add	sp, #12
 80035e8:	bdf0      	pop	{r4, r5, r6, r7, pc}
 80035ea:	bf00      	nop
 80035ec:	20000004 	.word	0x20000004

080035f0 <ETH_Delay.constprop.0>:
 80035f0:	f44f 52fa 	mov.w	r2, #8000	; 0x1f40
 80035f4:	4b06      	ldr	r3, [pc, #24]	; (8003610 <ETH_Delay.constprop.0+0x20>)
 80035f6:	b082      	sub	sp, #8
 80035f8:	681b      	ldr	r3, [r3, #0]
 80035fa:	fbb3 f3f2 	udiv	r3, r3, r2
 80035fe:	9301      	str	r3, [sp, #4]
 8003600:	bf00      	nop
 8003602:	9b01      	ldr	r3, [sp, #4]
 8003604:	1e5a      	subs	r2, r3, #1
 8003606:	9201      	str	r2, [sp, #4]
 8003608:	2b00      	cmp	r3, #0
 800360a:	d1f9      	bne.n	8003600 <ETH_Delay.constprop.0+0x10>
 800360c:	b002      	add	sp, #8
 800360e:	4770      	bx	lr
 8003610:	20000004 	.word	0x20000004

08003614 <ETH_FlushTransmitFIFO>:
 8003614:	2300      	movs	r3, #0
 8003616:	b507      	push	{r0, r1, r2, lr}
 8003618:	f241 0118 	movw	r1, #4120	; 0x1018
 800361c:	9301      	str	r3, [sp, #4]
 800361e:	6803      	ldr	r3, [r0, #0]
 8003620:	585a      	ldr	r2, [r3, r1]
 8003622:	f442 1280 	orr.w	r2, r2, #1048576	; 0x100000
 8003626:	505a      	str	r2, [r3, r1]
 8003628:	585b      	ldr	r3, [r3, r1]
 800362a:	9301      	str	r3, [sp, #4]
 800362c:	f7ff ffe0 	bl	80035f0 <ETH_Delay.constprop.0>
 8003630:	9a01      	ldr	r2, [sp, #4]
 8003632:	6803      	ldr	r3, [r0, #0]
 8003634:	505a      	str	r2, [r3, r1]
 8003636:	b003      	add	sp, #12
 8003638:	f85d fb04 	ldr.w	pc, [sp], #4

0800363c <ETH_MACDMAConfig>:
 800363c:	b570      	push	{r4, r5, r6, lr}
 800363e:	4604      	mov	r4, r0
 8003640:	b129      	cbz	r1, 800364e <ETH_MACDMAConfig+0x12>
 8003642:	f44f 4380 	mov.w	r3, #16384	; 0x4000
 8003646:	f44f 6200 	mov.w	r2, #2048	; 0x800
 800364a:	e9c0 3202 	strd	r3, r2, [r0, #8]
 800364e:	69e3      	ldr	r3, [r4, #28]
 8003650:	6822      	ldr	r2, [r4, #0]
 8003652:	2b00      	cmp	r3, #0
 8003654:	bf08      	it	eq
 8003656:	f44f 6180 	moveq.w	r1, #1024	; 0x400
 800365a:	e9d4 3502 	ldrd	r3, r5, [r4, #8]
 800365e:	bf18      	it	ne
 8003660:	2100      	movne	r1, #0
 8003662:	432b      	orrs	r3, r5
 8003664:	6810      	ldr	r0, [r2, #0]
 8003666:	430b      	orrs	r3, r1
 8003668:	492d      	ldr	r1, [pc, #180]	; (8003720 <ETH_MACDMAConfig+0xe4>)
 800366a:	4001      	ands	r1, r0
 800366c:	430b      	orrs	r3, r1
 800366e:	f443 7300 	orr.w	r3, r3, #512	; 0x200
 8003672:	6013      	str	r3, [r2, #0]
 8003674:	2001      	movs	r0, #1
 8003676:	6815      	ldr	r5, [r2, #0]
 8003678:	f7ff fdb2 	bl	80031e0 <HAL_Delay>
 800367c:	2240      	movs	r2, #64	; 0x40
 800367e:	6823      	ldr	r3, [r4, #0]
 8003680:	2001      	movs	r0, #1
 8003682:	601d      	str	r5, [r3, #0]
 8003684:	605a      	str	r2, [r3, #4]
 8003686:	685d      	ldr	r5, [r3, #4]
 8003688:	f7ff fdaa 	bl	80031e0 <HAL_Delay>
 800368c:	6823      	ldr	r3, [r4, #0]
 800368e:	2001      	movs	r0, #1
 8003690:	605d      	str	r5, [r3, #4]
 8003692:	2500      	movs	r5, #0
 8003694:	609d      	str	r5, [r3, #8]
 8003696:	60dd      	str	r5, [r3, #12]
 8003698:	699a      	ldr	r2, [r3, #24]
 800369a:	f022 02be 	bic.w	r2, r2, #190	; 0xbe
 800369e:	0412      	lsls	r2, r2, #16
 80036a0:	0c12      	lsrs	r2, r2, #16
 80036a2:	f042 0280 	orr.w	r2, r2, #128	; 0x80
 80036a6:	619a      	str	r2, [r3, #24]
 80036a8:	699e      	ldr	r6, [r3, #24]
 80036aa:	f7ff fd99 	bl	80031e0 <HAL_Delay>
 80036ae:	6823      	ldr	r3, [r4, #0]
 80036b0:	2001      	movs	r0, #1
 80036b2:	619e      	str	r6, [r3, #24]
 80036b4:	61dd      	str	r5, [r3, #28]
 80036b6:	69dd      	ldr	r5, [r3, #28]
 80036b8:	f7ff fd92 	bl	80031e0 <HAL_Delay>
 80036bc:	6822      	ldr	r2, [r4, #0]
 80036be:	4b19      	ldr	r3, [pc, #100]	; (8003724 <ETH_MACDMAConfig+0xe8>)
 80036c0:	61d5      	str	r5, [r2, #28]
 80036c2:	f241 0518 	movw	r5, #4120	; 0x1018
 80036c6:	5951      	ldr	r1, [r2, r5]
 80036c8:	2001      	movs	r0, #1
 80036ca:	400b      	ands	r3, r1
 80036cc:	f043 7308 	orr.w	r3, r3, #35651584	; 0x2200000
 80036d0:	f043 0304 	orr.w	r3, r3, #4
 80036d4:	5153      	str	r3, [r2, r5]
 80036d6:	5956      	ldr	r6, [r2, r5]
 80036d8:	f7ff fd82 	bl	80031e0 <HAL_Delay>
 80036dc:	6823      	ldr	r3, [r4, #0]
 80036de:	4a12      	ldr	r2, [pc, #72]	; (8003728 <ETH_MACDMAConfig+0xec>)
 80036e0:	515e      	str	r6, [r3, r5]
 80036e2:	f503 5380 	add.w	r3, r3, #4096	; 0x1000
 80036e6:	601a      	str	r2, [r3, #0]
 80036e8:	2001      	movs	r0, #1
 80036ea:	681d      	ldr	r5, [r3, #0]
 80036ec:	f7ff fd78 	bl	80031e0 <HAL_Delay>
 80036f0:	6822      	ldr	r2, [r4, #0]
 80036f2:	f502 5380 	add.w	r3, r2, #4096	; 0x1000
 80036f6:	601d      	str	r5, [r3, #0]
 80036f8:	69a3      	ldr	r3, [r4, #24]
 80036fa:	2b01      	cmp	r3, #1
 80036fc:	d107      	bne.n	800370e <ETH_MACDMAConfig+0xd2>
 80036fe:	f241 011c 	movw	r1, #4124	; 0x101c
 8003702:	5853      	ldr	r3, [r2, r1]
 8003704:	f443 3380 	orr.w	r3, r3, #65536	; 0x10000
 8003708:	f043 0340 	orr.w	r3, r3, #64	; 0x40
 800370c:	5053      	str	r3, [r2, r1]
 800370e:	6963      	ldr	r3, [r4, #20]
 8003710:	4a06      	ldr	r2, [pc, #24]	; (800372c <ETH_MACDMAConfig+0xf0>)
 8003712:	8899      	ldrh	r1, [r3, #4]
 8003714:	6011      	str	r1, [r2, #0]
 8003716:	681a      	ldr	r2, [r3, #0]
 8003718:	4b05      	ldr	r3, [pc, #20]	; (8003730 <ETH_MACDMAConfig+0xf4>)
 800371a:	601a      	str	r2, [r3, #0]
 800371c:	bd70      	pop	{r4, r5, r6, pc}
 800371e:	bf00      	nop
 8003720:	ff20810f 	.word	0xff20810f
 8003724:	f8de3f23 	.word	0xf8de3f23
 8003728:	02c12080 	.word	0x02c12080
 800372c:	40028040 	.word	0x40028040
 8003730:	40028044 	.word	0x40028044

08003734 <HAL_ETH_DMATxDescListInit>:
 8003734:	e92d 41f0 	stmdb	sp!, {r4, r5, r6, r7, r8, lr}
 8003738:	f890 4045 	ldrb.w	r4, [r0, #69]	; 0x45
 800373c:	2c01      	cmp	r4, #1
 800373e:	f04f 0402 	mov.w	r4, #2
 8003742:	d031      	beq.n	80037a8 <HAL_ETH_DMATxDescListInit+0x74>
 8003744:	2501      	movs	r5, #1
 8003746:	f880 4044 	strb.w	r4, [r0, #68]	; 0x44
 800374a:	f880 5045 	strb.w	r5, [r0, #69]	; 0x45
 800374e:	460c      	mov	r4, r1
 8003750:	2500      	movs	r5, #0
 8003752:	f44f 1780 	mov.w	r7, #1048576	; 0x100000
 8003756:	f240 5cf4 	movw	ip, #1524	; 0x5f4
 800375a:	62c1      	str	r1, [r0, #44]	; 0x2c
 800375c:	f103 3eff 	add.w	lr, r3, #4294967295
 8003760:	429d      	cmp	r5, r3
 8003762:	d10c      	bne.n	800377e <HAL_ETH_DMATxDescListInit+0x4a>
 8003764:	f241 0310 	movw	r3, #4112	; 0x1010
 8003768:	6802      	ldr	r2, [r0, #0]
 800376a:	50d1      	str	r1, [r2, r3]
 800376c:	2301      	movs	r3, #1
 800376e:	f880 3044 	strb.w	r3, [r0, #68]	; 0x44
 8003772:	2300      	movs	r3, #0
 8003774:	f880 3045 	strb.w	r3, [r0, #69]	; 0x45
 8003778:	4618      	mov	r0, r3
 800377a:	e8bd 81f0 	ldmia.w	sp!, {r4, r5, r6, r7, r8, pc}
 800377e:	fb0c 2605 	mla	r6, ip, r5, r2
 8003782:	60a6      	str	r6, [r4, #8]
 8003784:	69c6      	ldr	r6, [r0, #28]
 8003786:	6027      	str	r7, [r4, #0]
 8003788:	b91e      	cbnz	r6, 8003792 <HAL_ETH_DMATxDescListInit+0x5e>
 800378a:	6826      	ldr	r6, [r4, #0]
 800378c:	f446 0640 	orr.w	r6, r6, #12582912	; 0xc00000
 8003790:	6026      	str	r6, [r4, #0]
 8003792:	f104 0620 	add.w	r6, r4, #32
 8003796:	45ae      	cmp	lr, r5
 8003798:	bf94      	ite	ls
 800379a:	4688      	movls	r8, r1
 800379c:	46b0      	movhi	r8, r6
 800379e:	3501      	adds	r5, #1
 80037a0:	f8c4 800c 	str.w	r8, [r4, #12]
 80037a4:	4634      	mov	r4, r6
 80037a6:	e7db      	b.n	8003760 <HAL_ETH_DMATxDescListInit+0x2c>
 80037a8:	4620      	mov	r0, r4
 80037aa:	e7e6      	b.n	800377a <HAL_ETH_DMATxDescListInit+0x46>

080037ac <HAL_ETH_DMARxDescListInit>:
 80037ac:	e92d 43f0 	stmdb	sp!, {r4, r5, r6, r7, r8, r9, lr}
 80037b0:	f890 4045 	ldrb.w	r4, [r0, #69]	; 0x45
 80037b4:	2c01      	cmp	r4, #1
 80037b6:	f04f 0402 	mov.w	r4, #2
 80037ba:	d02f      	beq.n	800381c <HAL_ETH_DMARxDescListInit+0x70>
 80037bc:	2501      	movs	r5, #1
 80037be:	f880 4044 	strb.w	r4, [r0, #68]	; 0x44
 80037c2:	f880 5045 	strb.w	r5, [r0, #69]	; 0x45
 80037c6:	460c      	mov	r4, r1
 80037c8:	2500      	movs	r5, #0
 80037ca:	f04f 4700 	mov.w	r7, #2147483648	; 0x80000000
 80037ce:	f244 5cf4 	movw	ip, #17908	; 0x45f4
 80037d2:	f240 5ef4 	movw	lr, #1524	; 0x5f4
 80037d6:	6281      	str	r1, [r0, #40]	; 0x28
 80037d8:	f103 38ff 	add.w	r8, r3, #4294967295
 80037dc:	42ab      	cmp	r3, r5
 80037de:	d10c      	bne.n	80037fa <HAL_ETH_DMARxDescListInit+0x4e>
 80037e0:	f241 030c 	movw	r3, #4108	; 0x100c
 80037e4:	6802      	ldr	r2, [r0, #0]
 80037e6:	50d1      	str	r1, [r2, r3]
 80037e8:	2301      	movs	r3, #1
 80037ea:	f880 3044 	strb.w	r3, [r0, #68]	; 0x44
 80037ee:	2300      	movs	r3, #0
 80037f0:	f880 3045 	strb.w	r3, [r0, #69]	; 0x45
 80037f4:	4618      	mov	r0, r3
 80037f6:	e8bd 83f0 	ldmia.w	sp!, {r4, r5, r6, r7, r8, r9, pc}
 80037fa:	fb0e 2605 	mla	r6, lr, r5, r2
 80037fe:	60a6      	str	r6, [r4, #8]
 8003800:	f104 0620 	add.w	r6, r4, #32
 8003804:	45a8      	cmp	r8, r5
 8003806:	bf94      	ite	ls
 8003808:	4689      	movls	r9, r1
 800380a:	46b1      	movhi	r9, r6
 800380c:	6027      	str	r7, [r4, #0]
 800380e:	f8c4 c004 	str.w	ip, [r4, #4]
 8003812:	f8c4 900c 	str.w	r9, [r4, #12]
 8003816:	3501      	adds	r5, #1
 8003818:	4634      	mov	r4, r6
 800381a:	e7df      	b.n	80037dc <HAL_ETH_DMARxDescListInit+0x30>
 800381c:	4620      	mov	r0, r4
 800381e:	e7ea      	b.n	80037f6 <HAL_ETH_DMARxDescListInit+0x4a>

08003820 <HAL_ETH_TransmitFrame>:
 8003820:	b5f0      	push	{r4, r5, r6, r7, lr}
 8003822:	f890 3045 	ldrb.w	r3, [r0, #69]	; 0x45
 8003826:	4602      	mov	r2, r0
 8003828:	2b01      	cmp	r3, #1
 800382a:	f04f 0002 	mov.w	r0, #2
 800382e:	d00a      	beq.n	8003846 <HAL_ETH_TransmitFrame+0x26>
 8003830:	2401      	movs	r4, #1
 8003832:	f882 0044 	strb.w	r0, [r2, #68]	; 0x44
 8003836:	f882 4045 	strb.w	r4, [r2, #69]	; 0x45
 800383a:	b929      	cbnz	r1, 8003848 <HAL_ETH_TransmitFrame+0x28>
 800383c:	f882 4044 	strb.w	r4, [r2, #68]	; 0x44
 8003840:	f882 1045 	strb.w	r1, [r2, #69]	; 0x45
 8003844:	4620      	mov	r0, r4
 8003846:	bdf0      	pop	{r4, r5, r6, r7, pc}
 8003848:	6ad3      	ldr	r3, [r2, #44]	; 0x2c
 800384a:	6818      	ldr	r0, [r3, #0]
 800384c:	2800      	cmp	r0, #0
 800384e:	da06      	bge.n	800385e <HAL_ETH_TransmitFrame+0x3e>
 8003850:	2312      	movs	r3, #18
 8003852:	f882 3044 	strb.w	r3, [r2, #68]	; 0x44
 8003856:	2300      	movs	r3, #0
 8003858:	f882 3045 	strb.w	r3, [r2, #69]	; 0x45
 800385c:	e7f2      	b.n	8003844 <HAL_ETH_TransmitFrame+0x24>
 800385e:	f240 54f4 	movw	r4, #1524	; 0x5f4
 8003862:	42a1      	cmp	r1, r4
 8003864:	d92f      	bls.n	80038c6 <HAL_ETH_TransmitFrame+0xa6>
 8003866:	fbb1 f0f4 	udiv	r0, r1, r4
 800386a:	fb04 1410 	mls	r4, r4, r0, r1
 800386e:	b344      	cbz	r4, 80038c2 <HAL_ETH_TransmitFrame+0xa2>
 8003870:	3001      	adds	r0, #1
 8003872:	4c25      	ldr	r4, [pc, #148]	; (8003908 <HAL_ETH_TransmitFrame+0xe8>)
 8003874:	f201 51f4 	addw	r1, r1, #1524	; 0x5f4
 8003878:	fb04 1100 	mla	r1, r4, r0, r1
 800387c:	f240 56f4 	movw	r6, #1524	; 0x5f4
 8003880:	2400      	movs	r4, #0
 8003882:	f3c1 010c 	ubfx	r1, r1, #0, #13
 8003886:	1e47      	subs	r7, r0, #1
 8003888:	681d      	ldr	r5, [r3, #0]
 800388a:	f025 5540 	bic.w	r5, r5, #805306368	; 0x30000000
 800388e:	601d      	str	r5, [r3, #0]
 8003890:	b91c      	cbnz	r4, 800389a <HAL_ETH_TransmitFrame+0x7a>
 8003892:	681d      	ldr	r5, [r3, #0]
 8003894:	f045 5580 	orr.w	r5, r5, #268435456	; 0x10000000
 8003898:	601d      	str	r5, [r3, #0]
 800389a:	42a7      	cmp	r7, r4
 800389c:	bf08      	it	eq
 800389e:	681d      	ldreq	r5, [r3, #0]
 80038a0:	f104 0401 	add.w	r4, r4, #1
 80038a4:	bf04      	itt	eq
 80038a6:	f045 5500 	orreq.w	r5, r5, #536870912	; 0x20000000
 80038aa:	601d      	streq	r5, [r3, #0]
 80038ac:	681d      	ldr	r5, [r3, #0]
 80038ae:	605e      	str	r6, [r3, #4]
 80038b0:	f045 4500 	orr.w	r5, r5, #2147483648	; 0x80000000
 80038b4:	bf08      	it	eq
 80038b6:	6059      	streq	r1, [r3, #4]
 80038b8:	4284      	cmp	r4, r0
 80038ba:	601d      	str	r5, [r3, #0]
 80038bc:	68db      	ldr	r3, [r3, #12]
 80038be:	d1e3      	bne.n	8003888 <HAL_ETH_TransmitFrame+0x68>
 80038c0:	e00d      	b.n	80038de <HAL_ETH_TransmitFrame+0xbe>
 80038c2:	2801      	cmp	r0, #1
 80038c4:	d1d5      	bne.n	8003872 <HAL_ETH_TransmitFrame+0x52>
 80038c6:	6818      	ldr	r0, [r3, #0]
 80038c8:	f3c1 010c 	ubfx	r1, r1, #0, #13
 80038cc:	f040 5040 	orr.w	r0, r0, #805306368	; 0x30000000
 80038d0:	6018      	str	r0, [r3, #0]
 80038d2:	6059      	str	r1, [r3, #4]
 80038d4:	6819      	ldr	r1, [r3, #0]
 80038d6:	f041 4100 	orr.w	r1, r1, #2147483648	; 0x80000000
 80038da:	6019      	str	r1, [r3, #0]
 80038dc:	68db      	ldr	r3, [r3, #12]
 80038de:	f241 0114 	movw	r1, #4116	; 0x1014
 80038e2:	62d3      	str	r3, [r2, #44]	; 0x2c
 80038e4:	6813      	ldr	r3, [r2, #0]
 80038e6:	5858      	ldr	r0, [r3, r1]
 80038e8:	0740      	lsls	r0, r0, #29
 80038ea:	d505      	bpl.n	80038f8 <HAL_ETH_TransmitFrame+0xd8>
 80038ec:	2004      	movs	r0, #4
 80038ee:	5058      	str	r0, [r3, r1]
 80038f0:	f241 0104 	movw	r1, #4100	; 0x1004
 80038f4:	2000      	movs	r0, #0
 80038f6:	5058      	str	r0, [r3, r1]
 80038f8:	2301      	movs	r3, #1
 80038fa:	2000      	movs	r0, #0
 80038fc:	f882 3044 	strb.w	r3, [r2, #68]	; 0x44
 8003900:	f882 0045 	strb.w	r0, [r2, #69]	; 0x45
 8003904:	e79f      	b.n	8003846 <HAL_ETH_TransmitFrame+0x26>
 8003906:	bf00      	nop
 8003908:	fffffa0c 	.word	0xfffffa0c

0800390c <HAL_ETH_GetReceivedFrame>:
 800390c:	b530      	push	{r4, r5, lr}
 800390e:	f890 2045 	ldrb.w	r2, [r0, #69]	; 0x45
 8003912:	4603      	mov	r3, r0
 8003914:	2a01      	cmp	r2, #1
 8003916:	f04f 0002 	mov.w	r0, #2
 800391a:	d023      	beq.n	8003964 <HAL_ETH_GetReceivedFrame+0x58>
 800391c:	2401      	movs	r4, #1
 800391e:	6a9a      	ldr	r2, [r3, #40]	; 0x28
 8003920:	f883 4045 	strb.w	r4, [r3, #69]	; 0x45
 8003924:	f883 0044 	strb.w	r0, [r3, #68]	; 0x44
 8003928:	6811      	ldr	r1, [r2, #0]
 800392a:	2900      	cmp	r1, #0
 800392c:	db26      	blt.n	800397c <HAL_ETH_GetReceivedFrame+0x70>
 800392e:	6811      	ldr	r1, [r2, #0]
 8003930:	68d0      	ldr	r0, [r2, #12]
 8003932:	f411 7180 	ands.w	r1, r1, #256	; 0x100
 8003936:	d016      	beq.n	8003966 <HAL_ETH_GetReceivedFrame+0x5a>
 8003938:	6b99      	ldr	r1, [r3, #56]	; 0x38
 800393a:	635a      	str	r2, [r3, #52]	; 0x34
 800393c:	4421      	add	r1, r4
 800393e:	42a1      	cmp	r1, r4
 8003940:	bf08      	it	eq
 8003942:	631a      	streq	r2, [r3, #48]	; 0x30
 8003944:	6812      	ldr	r2, [r2, #0]
 8003946:	6399      	str	r1, [r3, #56]	; 0x38
 8003948:	f3c2 420d 	ubfx	r2, r2, #16, #14
 800394c:	3a04      	subs	r2, #4
 800394e:	63da      	str	r2, [r3, #60]	; 0x3c
 8003950:	6b1a      	ldr	r2, [r3, #48]	; 0x30
 8003952:	6892      	ldr	r2, [r2, #8]
 8003954:	6298      	str	r0, [r3, #40]	; 0x28
 8003956:	641a      	str	r2, [r3, #64]	; 0x40
 8003958:	2000      	movs	r0, #0
 800395a:	2201      	movs	r2, #1
 800395c:	f883 0045 	strb.w	r0, [r3, #69]	; 0x45
 8003960:	f883 2044 	strb.w	r2, [r3, #68]	; 0x44
 8003964:	bd30      	pop	{r4, r5, pc}
 8003966:	6815      	ldr	r5, [r2, #0]
 8003968:	6298      	str	r0, [r3, #40]	; 0x28
 800396a:	05ad      	lsls	r5, r5, #22
 800396c:	bf55      	itete	pl
 800396e:	6b9a      	ldrpl	r2, [r3, #56]	; 0x38
 8003970:	e9c3 210c 	strdmi	r2, r1, [r3, #48]	; 0x30
 8003974:	3201      	addpl	r2, #1
 8003976:	639c      	strmi	r4, [r3, #56]	; 0x38
 8003978:	bf58      	it	pl
 800397a:	639a      	strpl	r2, [r3, #56]	; 0x38
 800397c:	2001      	movs	r0, #1
 800397e:	2200      	movs	r2, #0
 8003980:	f883 0044 	strb.w	r0, [r3, #68]	; 0x44
 8003984:	f883 2045 	strb.w	r2, [r3, #69]	; 0x45
 8003988:	e7ec      	b.n	8003964 <HAL_ETH_GetReceivedFrame+0x58>

0800398a <HAL_ETH_ReadPHYRegister>:
 800398a:	b5f8      	push	{r3, r4, r5, r6, r7, lr}
 800398c:	f890 3044 	ldrb.w	r3, [r0, #68]	; 0x44
 8003990:	4606      	mov	r6, r0
 8003992:	2b82      	cmp	r3, #130	; 0x82
 8003994:	4615      	mov	r5, r2
 8003996:	d030      	beq.n	80039fa <HAL_ETH_ReadPHYRegister+0x70>
 8003998:	2382      	movs	r3, #130	; 0x82
 800399a:	f880 3044 	strb.w	r3, [r0, #68]	; 0x44
 800399e:	8a34      	ldrh	r4, [r6, #16]
 80039a0:	6803      	ldr	r3, [r0, #0]
 80039a2:	02e4      	lsls	r4, r4, #11
 80039a4:	6918      	ldr	r0, [r3, #16]
 80039a6:	0189      	lsls	r1, r1, #6
 80039a8:	f401 61f8 	and.w	r1, r1, #1984	; 0x7c0
 80039ac:	b2a4      	uxth	r4, r4
 80039ae:	f000 001c 	and.w	r0, r0, #28
 80039b2:	430c      	orrs	r4, r1
 80039b4:	4304      	orrs	r4, r0
 80039b6:	f044 0401 	orr.w	r4, r4, #1
 80039ba:	611c      	str	r4, [r3, #16]
 80039bc:	f7ff fc0a 	bl	80031d4 <HAL_GetTick>
 80039c0:	4607      	mov	r7, r0
 80039c2:	f014 0001 	ands.w	r0, r4, #1
 80039c6:	d107      	bne.n	80039d8 <HAL_ETH_ReadPHYRegister+0x4e>
 80039c8:	6833      	ldr	r3, [r6, #0]
 80039ca:	695b      	ldr	r3, [r3, #20]
 80039cc:	b29b      	uxth	r3, r3
 80039ce:	602b      	str	r3, [r5, #0]
 80039d0:	2301      	movs	r3, #1
 80039d2:	f886 3044 	strb.w	r3, [r6, #68]	; 0x44
 80039d6:	e00c      	b.n	80039f2 <HAL_ETH_ReadPHYRegister+0x68>
 80039d8:	f7ff fbfc 	bl	80031d4 <HAL_GetTick>
 80039dc:	1bc0      	subs	r0, r0, r7
 80039de:	f5b0 3f80 	cmp.w	r0, #65536	; 0x10000
 80039e2:	d307      	bcc.n	80039f4 <HAL_ETH_ReadPHYRegister+0x6a>
 80039e4:	2301      	movs	r3, #1
 80039e6:	f886 3044 	strb.w	r3, [r6, #68]	; 0x44
 80039ea:	2300      	movs	r3, #0
 80039ec:	2003      	movs	r0, #3
 80039ee:	f886 3045 	strb.w	r3, [r6, #69]	; 0x45
 80039f2:	bdf8      	pop	{r3, r4, r5, r6, r7, pc}
 80039f4:	6833      	ldr	r3, [r6, #0]
 80039f6:	691c      	ldr	r4, [r3, #16]
 80039f8:	e7e3      	b.n	80039c2 <HAL_ETH_ReadPHYRegister+0x38>
 80039fa:	2002      	movs	r0, #2
 80039fc:	e7f9      	b.n	80039f2 <HAL_ETH_ReadPHYRegister+0x68>

080039fe <HAL_ETH_WritePHYRegister>:
 80039fe:	b570      	push	{r4, r5, r6, lr}
 8003a00:	f890 3044 	ldrb.w	r3, [r0, #68]	; 0x44
 8003a04:	4605      	mov	r5, r0
 8003a06:	2b42      	cmp	r3, #66	; 0x42
 8003a08:	d02e      	beq.n	8003a68 <HAL_ETH_WritePHYRegister+0x6a>
 8003a0a:	2342      	movs	r3, #66	; 0x42
 8003a0c:	f880 3044 	strb.w	r3, [r0, #68]	; 0x44
 8003a10:	8a2c      	ldrh	r4, [r5, #16]
 8003a12:	6803      	ldr	r3, [r0, #0]
 8003a14:	02e4      	lsls	r4, r4, #11
 8003a16:	6918      	ldr	r0, [r3, #16]
 8003a18:	0189      	lsls	r1, r1, #6
 8003a1a:	f401 61f8 	and.w	r1, r1, #1984	; 0x7c0
 8003a1e:	b2a4      	uxth	r4, r4
 8003a20:	f000 001c 	and.w	r0, r0, #28
 8003a24:	430c      	orrs	r4, r1
 8003a26:	4304      	orrs	r4, r0
 8003a28:	b292      	uxth	r2, r2
 8003a2a:	f044 0403 	orr.w	r4, r4, #3
 8003a2e:	615a      	str	r2, [r3, #20]
 8003a30:	611c      	str	r4, [r3, #16]
 8003a32:	f7ff fbcf 	bl	80031d4 <HAL_GetTick>
 8003a36:	4606      	mov	r6, r0
 8003a38:	f014 0001 	ands.w	r0, r4, #1
 8003a3c:	d103      	bne.n	8003a46 <HAL_ETH_WritePHYRegister+0x48>
 8003a3e:	2301      	movs	r3, #1
 8003a40:	f885 3044 	strb.w	r3, [r5, #68]	; 0x44
 8003a44:	e00c      	b.n	8003a60 <HAL_ETH_WritePHYRegister+0x62>
 8003a46:	f7ff fbc5 	bl	80031d4 <HAL_GetTick>
 8003a4a:	1b80      	subs	r0, r0, r6
 8003a4c:	f5b0 3f80 	cmp.w	r0, #65536	; 0x10000
 8003a50:	d307      	bcc.n	8003a62 <HAL_ETH_WritePHYRegister+0x64>
 8003a52:	2301      	movs	r3, #1
 8003a54:	f885 3044 	strb.w	r3, [r5, #68]	; 0x44
 8003a58:	2300      	movs	r3, #0
 8003a5a:	2003      	movs	r0, #3
 8003a5c:	f885 3045 	strb.w	r3, [r5, #69]	; 0x45
 8003a60:	bd70      	pop	{r4, r5, r6, pc}
 8003a62:	682b      	ldr	r3, [r5, #0]
 8003a64:	691c      	ldr	r4, [r3, #16]
 8003a66:	e7e7      	b.n	8003a38 <HAL_ETH_WritePHYRegister+0x3a>
 8003a68:	2002      	movs	r0, #2
 8003a6a:	e7f9      	b.n	8003a60 <HAL_ETH_WritePHYRegister+0x62>

08003a6c <HAL_ETH_Init>:
 8003a6c:	2300      	movs	r3, #0
 8003a6e:	b5f7      	push	{r0, r1, r2, r4, r5, r6, r7, lr}
 8003a70:	4604      	mov	r4, r0
 8003a72:	9300      	str	r3, [sp, #0]
 8003a74:	2800      	cmp	r0, #0
 8003a76:	f000 80d8 	beq.w	8003c2a <HAL_ETH_Init+0x1be>
 8003a7a:	f890 3044 	ldrb.w	r3, [r0, #68]	; 0x44
 8003a7e:	f003 02ff 	and.w	r2, r3, #255	; 0xff
 8003a82:	b91b      	cbnz	r3, 8003a8c <HAL_ETH_Init+0x20>
 8003a84:	f880 2045 	strb.w	r2, [r0, #69]	; 0x45
 8003a88:	f001 fa98 	bl	8004fbc <HAL_ETH_MspInit>
 8003a8c:	2300      	movs	r3, #0
 8003a8e:	9301      	str	r3, [sp, #4]
 8003a90:	4b67      	ldr	r3, [pc, #412]	; (8003c30 <HAL_ETH_Init+0x1c4>)
 8003a92:	6c5a      	ldr	r2, [r3, #68]	; 0x44
 8003a94:	f442 4280 	orr.w	r2, r2, #16384	; 0x4000
 8003a98:	645a      	str	r2, [r3, #68]	; 0x44
 8003a9a:	6c5b      	ldr	r3, [r3, #68]	; 0x44
 8003a9c:	f403 4380 	and.w	r3, r3, #16384	; 0x4000
 8003aa0:	9301      	str	r3, [sp, #4]
 8003aa2:	9b01      	ldr	r3, [sp, #4]
 8003aa4:	4b63      	ldr	r3, [pc, #396]	; (8003c34 <HAL_ETH_Init+0x1c8>)
 8003aa6:	685a      	ldr	r2, [r3, #4]
 8003aa8:	f422 0200 	bic.w	r2, r2, #8388608	; 0x800000
 8003aac:	605a      	str	r2, [r3, #4]
 8003aae:	685a      	ldr	r2, [r3, #4]
 8003ab0:	6a21      	ldr	r1, [r4, #32]
 8003ab2:	430a      	orrs	r2, r1
 8003ab4:	605a      	str	r2, [r3, #4]
 8003ab6:	6823      	ldr	r3, [r4, #0]
 8003ab8:	f503 5380 	add.w	r3, r3, #4096	; 0x1000
 8003abc:	681a      	ldr	r2, [r3, #0]
 8003abe:	f042 0201 	orr.w	r2, r2, #1
 8003ac2:	601a      	str	r2, [r3, #0]
 8003ac4:	f7ff fb86 	bl	80031d4 <HAL_GetTick>
 8003ac8:	4605      	mov	r5, r0
 8003aca:	6823      	ldr	r3, [r4, #0]
 8003acc:	f503 5280 	add.w	r2, r3, #4096	; 0x1000
 8003ad0:	6812      	ldr	r2, [r2, #0]
 8003ad2:	07d0      	lsls	r0, r2, #31
 8003ad4:	d41d      	bmi.n	8003b12 <HAL_ETH_Init+0xa6>
 8003ad6:	691d      	ldr	r5, [r3, #16]
 8003ad8:	f000 fd10 	bl	80044fc <HAL_RCC_GetHCLKFreq>
 8003adc:	4b56      	ldr	r3, [pc, #344]	; (8003c38 <HAL_ETH_Init+0x1cc>)
 8003ade:	4a57      	ldr	r2, [pc, #348]	; (8003c3c <HAL_ETH_Init+0x1d0>)
 8003ae0:	4403      	add	r3, r0
 8003ae2:	4293      	cmp	r3, r2
 8003ae4:	f025 051c 	bic.w	r5, r5, #28
 8003ae8:	d222      	bcs.n	8003b30 <HAL_ETH_Init+0xc4>
 8003aea:	f045 0508 	orr.w	r5, r5, #8
 8003aee:	6823      	ldr	r3, [r4, #0]
 8003af0:	f44f 4200 	mov.w	r2, #32768	; 0x8000
 8003af4:	611d      	str	r5, [r3, #16]
 8003af6:	2100      	movs	r1, #0
 8003af8:	4620      	mov	r0, r4
 8003afa:	f7ff ff80 	bl	80039fe <HAL_ETH_WritePHYRegister>
 8003afe:	4605      	mov	r5, r0
 8003b00:	b330      	cbz	r0, 8003b50 <HAL_ETH_Init+0xe4>
 8003b02:	2501      	movs	r5, #1
 8003b04:	2101      	movs	r1, #1
 8003b06:	4620      	mov	r0, r4
 8003b08:	f7ff fd98 	bl	800363c <ETH_MACDMAConfig>
 8003b0c:	f884 5044 	strb.w	r5, [r4, #68]	; 0x44
 8003b10:	e00b      	b.n	8003b2a <HAL_ETH_Init+0xbe>
 8003b12:	f7ff fb5f 	bl	80031d4 <HAL_GetTick>
 8003b16:	1b40      	subs	r0, r0, r5
 8003b18:	f5b0 7ffa 	cmp.w	r0, #500	; 0x1f4
 8003b1c:	d9d5      	bls.n	8003aca <HAL_ETH_Init+0x5e>
 8003b1e:	2503      	movs	r5, #3
 8003b20:	2300      	movs	r3, #0
 8003b22:	f884 5044 	strb.w	r5, [r4, #68]	; 0x44
 8003b26:	f884 3045 	strb.w	r3, [r4, #69]	; 0x45
 8003b2a:	4628      	mov	r0, r5
 8003b2c:	b003      	add	sp, #12
 8003b2e:	bdf0      	pop	{r4, r5, r6, r7, pc}
 8003b30:	4b43      	ldr	r3, [pc, #268]	; (8003c40 <HAL_ETH_Init+0x1d4>)
 8003b32:	4a44      	ldr	r2, [pc, #272]	; (8003c44 <HAL_ETH_Init+0x1d8>)
 8003b34:	4403      	add	r3, r0
 8003b36:	4293      	cmp	r3, r2
 8003b38:	d802      	bhi.n	8003b40 <HAL_ETH_Init+0xd4>
 8003b3a:	f045 050c 	orr.w	r5, r5, #12
 8003b3e:	e7d6      	b.n	8003aee <HAL_ETH_Init+0x82>
 8003b40:	4b41      	ldr	r3, [pc, #260]	; (8003c48 <HAL_ETH_Init+0x1dc>)
 8003b42:	4a42      	ldr	r2, [pc, #264]	; (8003c4c <HAL_ETH_Init+0x1e0>)
 8003b44:	4403      	add	r3, r0
 8003b46:	4293      	cmp	r3, r2
 8003b48:	bf28      	it	cs
 8003b4a:	f045 0504 	orrcs.w	r5, r5, #4
 8003b4e:	e7ce      	b.n	8003aee <HAL_ETH_Init+0x82>
 8003b50:	20ff      	movs	r0, #255	; 0xff
 8003b52:	f7ff fb45 	bl	80031e0 <HAL_Delay>
 8003b56:	6863      	ldr	r3, [r4, #4]
 8003b58:	2b00      	cmp	r3, #0
 8003b5a:	d054      	beq.n	8003c06 <HAL_ETH_Init+0x19a>
 8003b5c:	f7ff fb3a 	bl	80031d4 <HAL_GetTick>
 8003b60:	f241 3788 	movw	r7, #5000	; 0x1388
 8003b64:	4606      	mov	r6, r0
 8003b66:	466a      	mov	r2, sp
 8003b68:	2101      	movs	r1, #1
 8003b6a:	4620      	mov	r0, r4
 8003b6c:	f7ff ff0d 	bl	800398a <HAL_ETH_ReadPHYRegister>
 8003b70:	f7ff fb30 	bl	80031d4 <HAL_GetTick>
 8003b74:	1b80      	subs	r0, r0, r6
 8003b76:	42b8      	cmp	r0, r7
 8003b78:	d90b      	bls.n	8003b92 <HAL_ETH_Init+0x126>
 8003b7a:	2101      	movs	r1, #1
 8003b7c:	4620      	mov	r0, r4
 8003b7e:	f7ff fd5d 	bl	800363c <ETH_MACDMAConfig>
 8003b82:	2301      	movs	r3, #1
 8003b84:	f884 3044 	strb.w	r3, [r4, #68]	; 0x44
 8003b88:	2300      	movs	r3, #0
 8003b8a:	2503      	movs	r5, #3
 8003b8c:	f884 3045 	strb.w	r3, [r4, #69]	; 0x45
 8003b90:	e7cb      	b.n	8003b2a <HAL_ETH_Init+0xbe>
 8003b92:	9b00      	ldr	r3, [sp, #0]
 8003b94:	0759      	lsls	r1, r3, #29
 8003b96:	d5e6      	bpl.n	8003b66 <HAL_ETH_Init+0xfa>
 8003b98:	f44f 5280 	mov.w	r2, #4096	; 0x1000
 8003b9c:	2100      	movs	r1, #0
 8003b9e:	4620      	mov	r0, r4
 8003ba0:	f7ff ff2d 	bl	80039fe <HAL_ETH_WritePHYRegister>
 8003ba4:	2800      	cmp	r0, #0
 8003ba6:	d1ac      	bne.n	8003b02 <HAL_ETH_Init+0x96>
 8003ba8:	f7ff fb14 	bl	80031d4 <HAL_GetTick>
 8003bac:	f241 3788 	movw	r7, #5000	; 0x1388
 8003bb0:	4606      	mov	r6, r0
 8003bb2:	466a      	mov	r2, sp
 8003bb4:	2101      	movs	r1, #1
 8003bb6:	4620      	mov	r0, r4
 8003bb8:	f7ff fee7 	bl	800398a <HAL_ETH_ReadPHYRegister>
 8003bbc:	f7ff fb0a 	bl	80031d4 <HAL_GetTick>
 8003bc0:	1b80      	subs	r0, r0, r6
 8003bc2:	42b8      	cmp	r0, r7
 8003bc4:	d8d9      	bhi.n	8003b7a <HAL_ETH_Init+0x10e>
 8003bc6:	9b00      	ldr	r3, [sp, #0]
 8003bc8:	069a      	lsls	r2, r3, #26
 8003bca:	d5f2      	bpl.n	8003bb2 <HAL_ETH_Init+0x146>
 8003bcc:	466a      	mov	r2, sp
 8003bce:	2110      	movs	r1, #16
 8003bd0:	4620      	mov	r0, r4
 8003bd2:	f7ff feda 	bl	800398a <HAL_ETH_ReadPHYRegister>
 8003bd6:	2800      	cmp	r0, #0
 8003bd8:	d193      	bne.n	8003b02 <HAL_ETH_Init+0x96>
 8003bda:	9b00      	ldr	r3, [sp, #0]
 8003bdc:	f013 0204 	ands.w	r2, r3, #4
 8003be0:	bf18      	it	ne
 8003be2:	f44f 6200 	movne.w	r2, #2048	; 0x800
 8003be6:	079b      	lsls	r3, r3, #30
 8003be8:	bf58      	it	pl
 8003bea:	f44f 4380 	movpl.w	r3, #16384	; 0x4000
 8003bee:	60e2      	str	r2, [r4, #12]
 8003bf0:	bf4c      	ite	mi
 8003bf2:	60a0      	strmi	r0, [r4, #8]
 8003bf4:	60a3      	strpl	r3, [r4, #8]
 8003bf6:	2100      	movs	r1, #0
 8003bf8:	4620      	mov	r0, r4
 8003bfa:	f7ff fd1f 	bl	800363c <ETH_MACDMAConfig>
 8003bfe:	2301      	movs	r3, #1
 8003c00:	f884 3044 	strb.w	r3, [r4, #68]	; 0x44
 8003c04:	e791      	b.n	8003b2a <HAL_ETH_Init+0xbe>
 8003c06:	e9d4 3202 	ldrd	r3, r2, [r4, #8]
 8003c0a:	085b      	lsrs	r3, r3, #1
 8003c0c:	ea43 02d2 	orr.w	r2, r3, r2, lsr #3
 8003c10:	4629      	mov	r1, r5
 8003c12:	4620      	mov	r0, r4
 8003c14:	b292      	uxth	r2, r2
 8003c16:	f7ff fef2 	bl	80039fe <HAL_ETH_WritePHYRegister>
 8003c1a:	2800      	cmp	r0, #0
 8003c1c:	f47f af71 	bne.w	8003b02 <HAL_ETH_Init+0x96>
 8003c20:	f640 70ff 	movw	r0, #4095	; 0xfff
 8003c24:	f7ff fadc 	bl	80031e0 <HAL_Delay>
 8003c28:	e7e5      	b.n	8003bf6 <HAL_ETH_Init+0x18a>
 8003c2a:	2501      	movs	r5, #1
 8003c2c:	e77d      	b.n	8003b2a <HAL_ETH_Init+0xbe>
 8003c2e:	bf00      	nop
 8003c30:	40023800 	.word	0x40023800
 8003c34:	40013800 	.word	0x40013800
 8003c38:	feced300 	.word	0xfeced300
 8003c3c:	00e4e1c0 	.word	0x00e4e1c0
 8003c40:	fde9f140 	.word	0xfde9f140
 8003c44:	017d783f 	.word	0x017d783f
 8003c48:	fc6c7900 	.word	0xfc6c7900
 8003c4c:	02625a00 	.word	0x02625a00

08003c50 <HAL_ETH_Start>:
 8003c50:	b537      	push	{r0, r1, r2, r4, r5, lr}
 8003c52:	f890 3045 	ldrb.w	r3, [r0, #69]	; 0x45
 8003c56:	2402      	movs	r4, #2
 8003c58:	2b01      	cmp	r3, #1
 8003c5a:	d02f      	beq.n	8003cbc <HAL_ETH_Start+0x6c>
 8003c5c:	f880 4044 	strb.w	r4, [r0, #68]	; 0x44
 8003c60:	2501      	movs	r5, #1
 8003c62:	2400      	movs	r4, #0
 8003c64:	6803      	ldr	r3, [r0, #0]
 8003c66:	f880 5045 	strb.w	r5, [r0, #69]	; 0x45
 8003c6a:	9401      	str	r4, [sp, #4]
 8003c6c:	681a      	ldr	r2, [r3, #0]
 8003c6e:	f042 0208 	orr.w	r2, r2, #8
 8003c72:	601a      	str	r2, [r3, #0]
 8003c74:	681b      	ldr	r3, [r3, #0]
 8003c76:	9301      	str	r3, [sp, #4]
 8003c78:	f7ff fcba 	bl	80035f0 <ETH_Delay.constprop.0>
 8003c7c:	9a01      	ldr	r2, [sp, #4]
 8003c7e:	6803      	ldr	r3, [r0, #0]
 8003c80:	601a      	str	r2, [r3, #0]
 8003c82:	9400      	str	r4, [sp, #0]
 8003c84:	681a      	ldr	r2, [r3, #0]
 8003c86:	f042 0204 	orr.w	r2, r2, #4
 8003c8a:	601a      	str	r2, [r3, #0]
 8003c8c:	681b      	ldr	r3, [r3, #0]
 8003c8e:	9300      	str	r3, [sp, #0]
 8003c90:	f7ff fcae 	bl	80035f0 <ETH_Delay.constprop.0>
 8003c94:	9a00      	ldr	r2, [sp, #0]
 8003c96:	6803      	ldr	r3, [r0, #0]
 8003c98:	601a      	str	r2, [r3, #0]
 8003c9a:	f7ff fcbb 	bl	8003614 <ETH_FlushTransmitFIFO>
 8003c9e:	f241 0318 	movw	r3, #4120	; 0x1018
 8003ca2:	6802      	ldr	r2, [r0, #0]
 8003ca4:	58d1      	ldr	r1, [r2, r3]
 8003ca6:	f441 5100 	orr.w	r1, r1, #8192	; 0x2000
 8003caa:	50d1      	str	r1, [r2, r3]
 8003cac:	58d1      	ldr	r1, [r2, r3]
 8003cae:	f041 0102 	orr.w	r1, r1, #2
 8003cb2:	50d1      	str	r1, [r2, r3]
 8003cb4:	f880 5044 	strb.w	r5, [r0, #68]	; 0x44
 8003cb8:	f880 4045 	strb.w	r4, [r0, #69]	; 0x45
 8003cbc:	4620      	mov	r0, r4
 8003cbe:	b003      	add	sp, #12
 8003cc0:	bd30      	pop	{r4, r5, pc}

08003cc2 <HAL_ETH_Stop>:
 8003cc2:	b537      	push	{r0, r1, r2, r4, r5, lr}
 8003cc4:	f890 3045 	ldrb.w	r3, [r0, #69]	; 0x45
 8003cc8:	2402      	movs	r4, #2
 8003cca:	2b01      	cmp	r3, #1
 8003ccc:	d02f      	beq.n	8003d2e <HAL_ETH_Stop+0x6c>
 8003cce:	2501      	movs	r5, #1
 8003cd0:	f241 0218 	movw	r2, #4120	; 0x1018
 8003cd4:	f880 4044 	strb.w	r4, [r0, #68]	; 0x44
 8003cd8:	2400      	movs	r4, #0
 8003cda:	6803      	ldr	r3, [r0, #0]
 8003cdc:	f880 5045 	strb.w	r5, [r0, #69]	; 0x45
 8003ce0:	5899      	ldr	r1, [r3, r2]
 8003ce2:	f421 5100 	bic.w	r1, r1, #8192	; 0x2000
 8003ce6:	5099      	str	r1, [r3, r2]
 8003ce8:	5899      	ldr	r1, [r3, r2]
 8003cea:	f021 0102 	bic.w	r1, r1, #2
 8003cee:	5099      	str	r1, [r3, r2]
 8003cf0:	9401      	str	r4, [sp, #4]
 8003cf2:	681a      	ldr	r2, [r3, #0]
 8003cf4:	f022 0204 	bic.w	r2, r2, #4
 8003cf8:	601a      	str	r2, [r3, #0]
 8003cfa:	681b      	ldr	r3, [r3, #0]
 8003cfc:	9301      	str	r3, [sp, #4]
 8003cfe:	f7ff fc77 	bl	80035f0 <ETH_Delay.constprop.0>
 8003d02:	9a01      	ldr	r2, [sp, #4]
 8003d04:	6803      	ldr	r3, [r0, #0]
 8003d06:	601a      	str	r2, [r3, #0]
 8003d08:	f7ff fc84 	bl	8003614 <ETH_FlushTransmitFIFO>
 8003d0c:	6803      	ldr	r3, [r0, #0]
 8003d0e:	9400      	str	r4, [sp, #0]
 8003d10:	681a      	ldr	r2, [r3, #0]
 8003d12:	f022 0208 	bic.w	r2, r2, #8
 8003d16:	601a      	str	r2, [r3, #0]
 8003d18:	681b      	ldr	r3, [r3, #0]
 8003d1a:	9300      	str	r3, [sp, #0]
 8003d1c:	f7ff fc68 	bl	80035f0 <ETH_Delay.constprop.0>
 8003d20:	9a00      	ldr	r2, [sp, #0]
 8003d22:	6803      	ldr	r3, [r0, #0]
 8003d24:	601a      	str	r2, [r3, #0]
 8003d26:	f880 5044 	strb.w	r5, [r0, #68]	; 0x44
 8003d2a:	f880 4045 	strb.w	r4, [r0, #69]	; 0x45
 8003d2e:	4620      	mov	r0, r4
 8003d30:	b003      	add	sp, #12
 8003d32:	bd30      	pop	{r4, r5, pc}

08003d34 <HAL_ETH_ConfigMAC>:
 8003d34:	b5f8      	push	{r3, r4, r5, r6, r7, lr}
 8003d36:	f890 3045 	ldrb.w	r3, [r0, #69]	; 0x45
 8003d3a:	4605      	mov	r5, r0
 8003d3c:	2b01      	cmp	r3, #1
 8003d3e:	460c      	mov	r4, r1
 8003d40:	f04f 0002 	mov.w	r0, #2
 8003d44:	d071      	beq.n	8003e2a <HAL_ETH_ConfigMAC+0xf6>
 8003d46:	2601      	movs	r6, #1
 8003d48:	f885 0044 	strb.w	r0, [r5, #68]	; 0x44
 8003d4c:	682a      	ldr	r2, [r5, #0]
 8003d4e:	f885 6045 	strb.w	r6, [r5, #69]	; 0x45
 8003d52:	e9d5 7002 	ldrd	r7, r0, [r5, #8]
 8003d56:	2900      	cmp	r1, #0
 8003d58:	d068      	beq.n	8003e2c <HAL_ETH_ConfigMAC+0xf8>
 8003d5a:	6813      	ldr	r3, [r2, #0]
 8003d5c:	f8df c0e8 	ldr.w	ip, [pc, #232]	; 8003e48 <HAL_ETH_ConfigMAC+0x114>
 8003d60:	ea0c 0c03 	and.w	ip, ip, r3
 8003d64:	e9d1 3100 	ldrd	r3, r1, [r1]
 8003d68:	430b      	orrs	r3, r1
 8003d6a:	68a1      	ldr	r1, [r4, #8]
 8003d6c:	430b      	orrs	r3, r1
 8003d6e:	68e1      	ldr	r1, [r4, #12]
 8003d70:	430b      	orrs	r3, r1
 8003d72:	6921      	ldr	r1, [r4, #16]
 8003d74:	430b      	orrs	r3, r1
 8003d76:	6961      	ldr	r1, [r4, #20]
 8003d78:	430b      	orrs	r3, r1
 8003d7a:	69a1      	ldr	r1, [r4, #24]
 8003d7c:	430b      	orrs	r3, r1
 8003d7e:	69e1      	ldr	r1, [r4, #28]
 8003d80:	430b      	orrs	r3, r1
 8003d82:	6a21      	ldr	r1, [r4, #32]
 8003d84:	430b      	orrs	r3, r1
 8003d86:	6a61      	ldr	r1, [r4, #36]	; 0x24
 8003d88:	430b      	orrs	r3, r1
 8003d8a:	6aa1      	ldr	r1, [r4, #40]	; 0x28
 8003d8c:	430b      	orrs	r3, r1
 8003d8e:	433b      	orrs	r3, r7
 8003d90:	4303      	orrs	r3, r0
 8003d92:	ea43 030c 	orr.w	r3, r3, ip
 8003d96:	6013      	str	r3, [r2, #0]
 8003d98:	4630      	mov	r0, r6
 8003d9a:	6817      	ldr	r7, [r2, #0]
 8003d9c:	f7ff fa20 	bl	80031e0 <HAL_Delay>
 8003da0:	e9d4 310b 	ldrd	r3, r1, [r4, #44]	; 0x2c
 8003da4:	430b      	orrs	r3, r1
 8003da6:	6b61      	ldr	r1, [r4, #52]	; 0x34
 8003da8:	682a      	ldr	r2, [r5, #0]
 8003daa:	430b      	orrs	r3, r1
 8003dac:	6ba1      	ldr	r1, [r4, #56]	; 0x38
 8003dae:	6017      	str	r7, [r2, #0]
 8003db0:	430b      	orrs	r3, r1
 8003db2:	6be1      	ldr	r1, [r4, #60]	; 0x3c
 8003db4:	4630      	mov	r0, r6
 8003db6:	430b      	orrs	r3, r1
 8003db8:	6c21      	ldr	r1, [r4, #64]	; 0x40
 8003dba:	430b      	orrs	r3, r1
 8003dbc:	6c61      	ldr	r1, [r4, #68]	; 0x44
 8003dbe:	430b      	orrs	r3, r1
 8003dc0:	6ca1      	ldr	r1, [r4, #72]	; 0x48
 8003dc2:	430b      	orrs	r3, r1
 8003dc4:	6053      	str	r3, [r2, #4]
 8003dc6:	6857      	ldr	r7, [r2, #4]
 8003dc8:	f7ff fa0a 	bl	80031e0 <HAL_Delay>
 8003dcc:	682a      	ldr	r2, [r5, #0]
 8003dce:	6ce3      	ldr	r3, [r4, #76]	; 0x4c
 8003dd0:	6057      	str	r7, [r2, #4]
 8003dd2:	6093      	str	r3, [r2, #8]
 8003dd4:	6d23      	ldr	r3, [r4, #80]	; 0x50
 8003dd6:	60d3      	str	r3, [r2, #12]
 8003dd8:	e9d4 3016 	ldrd	r3, r0, [r4, #88]	; 0x58
 8003ddc:	4303      	orrs	r3, r0
 8003dde:	6e20      	ldr	r0, [r4, #96]	; 0x60
 8003de0:	6991      	ldr	r1, [r2, #24]
 8003de2:	4303      	orrs	r3, r0
 8003de4:	6e60      	ldr	r0, [r4, #100]	; 0x64
 8003de6:	f021 01be 	bic.w	r1, r1, #190	; 0xbe
 8003dea:	4303      	orrs	r3, r0
 8003dec:	6ea0      	ldr	r0, [r4, #104]	; 0x68
 8003dee:	0409      	lsls	r1, r1, #16
 8003df0:	4303      	orrs	r3, r0
 8003df2:	6d60      	ldr	r0, [r4, #84]	; 0x54
 8003df4:	0c09      	lsrs	r1, r1, #16
 8003df6:	ea43 4300 	orr.w	r3, r3, r0, lsl #16
 8003dfa:	430b      	orrs	r3, r1
 8003dfc:	6193      	str	r3, [r2, #24]
 8003dfe:	4630      	mov	r0, r6
 8003e00:	6997      	ldr	r7, [r2, #24]
 8003e02:	f7ff f9ed 	bl	80031e0 <HAL_Delay>
 8003e06:	e9d4 211b 	ldrd	r2, r1, [r4, #108]	; 0x6c
 8003e0a:	682b      	ldr	r3, [r5, #0]
 8003e0c:	430a      	orrs	r2, r1
 8003e0e:	619f      	str	r7, [r3, #24]
 8003e10:	4630      	mov	r0, r6
 8003e12:	61da      	str	r2, [r3, #28]
 8003e14:	69dc      	ldr	r4, [r3, #28]
 8003e16:	f7ff f9e3 	bl	80031e0 <HAL_Delay>
 8003e1a:	682b      	ldr	r3, [r5, #0]
 8003e1c:	61dc      	str	r4, [r3, #28]
 8003e1e:	2301      	movs	r3, #1
 8003e20:	2000      	movs	r0, #0
 8003e22:	f885 3044 	strb.w	r3, [r5, #68]	; 0x44
 8003e26:	f885 0045 	strb.w	r0, [r5, #69]	; 0x45
 8003e2a:	bdf8      	pop	{r3, r4, r5, r6, r7, pc}
 8003e2c:	6811      	ldr	r1, [r2, #0]
 8003e2e:	ea47 0300 	orr.w	r3, r7, r0
 8003e32:	f421 4190 	bic.w	r1, r1, #18432	; 0x4800
 8003e36:	430b      	orrs	r3, r1
 8003e38:	6013      	str	r3, [r2, #0]
 8003e3a:	4630      	mov	r0, r6
 8003e3c:	6814      	ldr	r4, [r2, #0]
 8003e3e:	f7ff f9cf 	bl	80031e0 <HAL_Delay>
 8003e42:	682b      	ldr	r3, [r5, #0]
 8003e44:	601c      	str	r4, [r3, #0]
 8003e46:	e7ea      	b.n	8003e1e <HAL_ETH_ConfigMAC+0xea>
 8003e48:	ff20810f 	.word	0xff20810f

08003e4c <HAL_GPIO_Init>:
 8003e4c:	2300      	movs	r3, #0
 8003e4e:	e92d 4ff7 	stmdb	sp!, {r0, r1, r2, r4, r5, r6, r7, r8, r9, sl, fp, lr}
 8003e52:	f8df 91c0 	ldr.w	r9, [pc, #448]	; 8004014 <HAL_GPIO_Init+0x1c8>
 8003e56:	4c6d      	ldr	r4, [pc, #436]	; (800400c <HAL_GPIO_Init+0x1c0>)
 8003e58:	680a      	ldr	r2, [r1, #0]
 8003e5a:	fa32 f503 	lsrs.w	r5, r2, r3
 8003e5e:	d102      	bne.n	8003e66 <HAL_GPIO_Init+0x1a>
 8003e60:	b003      	add	sp, #12
 8003e62:	e8bd 8ff0 	ldmia.w	sp!, {r4, r5, r6, r7, r8, r9, sl, fp, pc}
 8003e66:	f04f 0e01 	mov.w	lr, #1
 8003e6a:	fa0e fe03 	lsl.w	lr, lr, r3
 8003e6e:	ea1e 0202 	ands.w	r2, lr, r2
 8003e72:	f000 80b8 	beq.w	8003fe6 <HAL_GPIO_Init+0x19a>
 8003e76:	f04f 0c03 	mov.w	ip, #3
 8003e7a:	684e      	ldr	r6, [r1, #4]
 8003e7c:	ea4f 0843 	mov.w	r8, r3, lsl #1
 8003e80:	f006 0503 	and.w	r5, r6, #3
 8003e84:	1e6f      	subs	r7, r5, #1
 8003e86:	fa0c fc08 	lsl.w	ip, ip, r8
 8003e8a:	2f01      	cmp	r7, #1
 8003e8c:	ea6f 0c0c 	mvn.w	ip, ip
 8003e90:	d834      	bhi.n	8003efc <HAL_GPIO_Init+0xb0>
 8003e92:	6887      	ldr	r7, [r0, #8]
 8003e94:	ea07 0a0c 	and.w	sl, r7, ip
 8003e98:	68cf      	ldr	r7, [r1, #12]
 8003e9a:	fa07 f708 	lsl.w	r7, r7, r8
 8003e9e:	ea47 070a 	orr.w	r7, r7, sl
 8003ea2:	6087      	str	r7, [r0, #8]
 8003ea4:	6847      	ldr	r7, [r0, #4]
 8003ea6:	ea27 0e0e 	bic.w	lr, r7, lr
 8003eaa:	f3c6 1700 	ubfx	r7, r6, #4, #1
 8003eae:	409f      	lsls	r7, r3
 8003eb0:	ea47 070e 	orr.w	r7, r7, lr
 8003eb4:	6047      	str	r7, [r0, #4]
 8003eb6:	68c7      	ldr	r7, [r0, #12]
 8003eb8:	2d02      	cmp	r5, #2
 8003eba:	ea07 0e0c 	and.w	lr, r7, ip
 8003ebe:	688f      	ldr	r7, [r1, #8]
 8003ec0:	fa07 f708 	lsl.w	r7, r7, r8
 8003ec4:	ea47 070e 	orr.w	r7, r7, lr
 8003ec8:	60c7      	str	r7, [r0, #12]
 8003eca:	d119      	bne.n	8003f00 <HAL_GPIO_Init+0xb4>
 8003ecc:	f04f 0e0f 	mov.w	lr, #15
 8003ed0:	ea4f 0ad3 	mov.w	sl, r3, lsr #3
 8003ed4:	eb00 0a8a 	add.w	sl, r0, sl, lsl #2
 8003ed8:	f003 0b07 	and.w	fp, r3, #7
 8003edc:	f8da 7020 	ldr.w	r7, [sl, #32]
 8003ee0:	ea4f 0b8b 	mov.w	fp, fp, lsl #2
 8003ee4:	fa0e fe0b 	lsl.w	lr, lr, fp
 8003ee8:	ea27 0e0e 	bic.w	lr, r7, lr
 8003eec:	690f      	ldr	r7, [r1, #16]
 8003eee:	fa07 f70b 	lsl.w	r7, r7, fp
 8003ef2:	ea47 070e 	orr.w	r7, r7, lr
 8003ef6:	f8ca 7020 	str.w	r7, [sl, #32]
 8003efa:	e001      	b.n	8003f00 <HAL_GPIO_Init+0xb4>
 8003efc:	2d03      	cmp	r5, #3
 8003efe:	d1da      	bne.n	8003eb6 <HAL_GPIO_Init+0x6a>
 8003f00:	6807      	ldr	r7, [r0, #0]
 8003f02:	fa05 f508 	lsl.w	r5, r5, r8
 8003f06:	ea07 0c0c 	and.w	ip, r7, ip
 8003f0a:	ea45 050c 	orr.w	r5, r5, ip
 8003f0e:	f416 3f40 	tst.w	r6, #196608	; 0x30000
 8003f12:	6005      	str	r5, [r0, #0]
 8003f14:	d067      	beq.n	8003fe6 <HAL_GPIO_Init+0x19a>
 8003f16:	f04f 0a00 	mov.w	sl, #0
 8003f1a:	f04f 0c0f 	mov.w	ip, #15
 8003f1e:	f8cd a004 	str.w	sl, [sp, #4]
 8003f22:	f8d9 7044 	ldr.w	r7, [r9, #68]	; 0x44
 8003f26:	4d3a      	ldr	r5, [pc, #232]	; (8004010 <HAL_GPIO_Init+0x1c4>)
 8003f28:	f447 4780 	orr.w	r7, r7, #16384	; 0x4000
 8003f2c:	f8c9 7044 	str.w	r7, [r9, #68]	; 0x44
 8003f30:	f8d9 7044 	ldr.w	r7, [r9, #68]	; 0x44
 8003f34:	f003 0e03 	and.w	lr, r3, #3
 8003f38:	f407 4780 	and.w	r7, r7, #16384	; 0x4000
 8003f3c:	9701      	str	r7, [sp, #4]
 8003f3e:	9f01      	ldr	r7, [sp, #4]
 8003f40:	f023 0703 	bic.w	r7, r3, #3
 8003f44:	f107 4780 	add.w	r7, r7, #1073741824	; 0x40000000
 8003f48:	f507 379c 	add.w	r7, r7, #79872	; 0x13800
 8003f4c:	f8d7 8008 	ldr.w	r8, [r7, #8]
 8003f50:	ea4f 0e8e 	mov.w	lr, lr, lsl #2
 8003f54:	fa0c fc0e 	lsl.w	ip, ip, lr
 8003f58:	42a8      	cmp	r0, r5
 8003f5a:	ea28 0c0c 	bic.w	ip, r8, ip
 8003f5e:	d044      	beq.n	8003fea <HAL_GPIO_Init+0x19e>
 8003f60:	f505 6580 	add.w	r5, r5, #1024	; 0x400
 8003f64:	42a8      	cmp	r0, r5
 8003f66:	d042      	beq.n	8003fee <HAL_GPIO_Init+0x1a2>
 8003f68:	f505 6580 	add.w	r5, r5, #1024	; 0x400
 8003f6c:	42a8      	cmp	r0, r5
 8003f6e:	d040      	beq.n	8003ff2 <HAL_GPIO_Init+0x1a6>
 8003f70:	f505 6580 	add.w	r5, r5, #1024	; 0x400
 8003f74:	42a8      	cmp	r0, r5
 8003f76:	d03e      	beq.n	8003ff6 <HAL_GPIO_Init+0x1aa>
 8003f78:	f505 6580 	add.w	r5, r5, #1024	; 0x400
 8003f7c:	42a8      	cmp	r0, r5
 8003f7e:	d03c      	beq.n	8003ffa <HAL_GPIO_Init+0x1ae>
 8003f80:	f505 6580 	add.w	r5, r5, #1024	; 0x400
 8003f84:	42a8      	cmp	r0, r5
 8003f86:	d03a      	beq.n	8003ffe <HAL_GPIO_Init+0x1b2>
 8003f88:	f505 6580 	add.w	r5, r5, #1024	; 0x400
 8003f8c:	42a8      	cmp	r0, r5
 8003f8e:	d038      	beq.n	8004002 <HAL_GPIO_Init+0x1b6>
 8003f90:	f505 6580 	add.w	r5, r5, #1024	; 0x400
 8003f94:	42a8      	cmp	r0, r5
 8003f96:	d036      	beq.n	8004006 <HAL_GPIO_Init+0x1ba>
 8003f98:	f505 6580 	add.w	r5, r5, #1024	; 0x400
 8003f9c:	42a8      	cmp	r0, r5
 8003f9e:	bf0c      	ite	eq
 8003fa0:	2508      	moveq	r5, #8
 8003fa2:	2509      	movne	r5, #9
 8003fa4:	fa05 f50e 	lsl.w	r5, r5, lr
 8003fa8:	ea45 050c 	orr.w	r5, r5, ip
 8003fac:	60bd      	str	r5, [r7, #8]
 8003fae:	43d7      	mvns	r7, r2
 8003fb0:	6825      	ldr	r5, [r4, #0]
 8003fb2:	f416 3f80 	tst.w	r6, #65536	; 0x10000
 8003fb6:	bf0c      	ite	eq
 8003fb8:	403d      	andeq	r5, r7
 8003fba:	4315      	orrne	r5, r2
 8003fbc:	6025      	str	r5, [r4, #0]
 8003fbe:	6865      	ldr	r5, [r4, #4]
 8003fc0:	f416 3f00 	tst.w	r6, #131072	; 0x20000
 8003fc4:	bf0c      	ite	eq
 8003fc6:	403d      	andeq	r5, r7
 8003fc8:	4315      	orrne	r5, r2
 8003fca:	6065      	str	r5, [r4, #4]
 8003fcc:	68a5      	ldr	r5, [r4, #8]
 8003fce:	f416 1f80 	tst.w	r6, #1048576	; 0x100000
 8003fd2:	bf0c      	ite	eq
 8003fd4:	403d      	andeq	r5, r7
 8003fd6:	4315      	orrne	r5, r2
 8003fd8:	60a5      	str	r5, [r4, #8]
 8003fda:	68e5      	ldr	r5, [r4, #12]
 8003fdc:	02b6      	lsls	r6, r6, #10
 8003fde:	bf54      	ite	pl
 8003fe0:	403d      	andpl	r5, r7
 8003fe2:	4315      	orrmi	r5, r2
 8003fe4:	60e5      	str	r5, [r4, #12]
 8003fe6:	3301      	adds	r3, #1
 8003fe8:	e736      	b.n	8003e58 <HAL_GPIO_Init+0xc>
 8003fea:	4655      	mov	r5, sl
 8003fec:	e7da      	b.n	8003fa4 <HAL_GPIO_Init+0x158>
 8003fee:	2501      	movs	r5, #1
 8003ff0:	e7d8      	b.n	8003fa4 <HAL_GPIO_Init+0x158>
 8003ff2:	2502      	movs	r5, #2
 8003ff4:	e7d6      	b.n	8003fa4 <HAL_GPIO_Init+0x158>
 8003ff6:	2503      	movs	r5, #3
 8003ff8:	e7d4      	b.n	8003fa4 <HAL_GPIO_Init+0x158>
 8003ffa:	2504      	movs	r5, #4
 8003ffc:	e7d2      	b.n	8003fa4 <HAL_GPIO_Init+0x158>
 8003ffe:	2505      	movs	r5, #5
 8004000:	e7d0      	b.n	8003fa4 <HAL_GPIO_Init+0x158>
 8004002:	2506      	movs	r5, #6
 8004004:	e7ce      	b.n	8003fa4 <HAL_GPIO_Init+0x158>
 8004006:	2507      	movs	r5, #7
 8004008:	e7cc      	b.n	8003fa4 <HAL_GPIO_Init+0x158>
 800400a:	bf00      	nop
 800400c:	40013c00 	.word	0x40013c00
 8004010:	40020000 	.word	0x40020000
 8004014:	40023800 	.word	0x40023800

08004018 <HAL_GPIO_ReadPin>:
 8004018:	6903      	ldr	r3, [r0, #16]
 800401a:	4219      	tst	r1, r3
 800401c:	bf14      	ite	ne
 800401e:	2001      	movne	r0, #1
 8004020:	2000      	moveq	r0, #0
 8004022:	4770      	bx	lr

08004024 <HAL_GPIO_WritePin>:
 8004024:	b10a      	cbz	r2, 800402a <HAL_GPIO_WritePin+0x6>
 8004026:	6181      	str	r1, [r0, #24]
 8004028:	4770      	bx	lr
 800402a:	0409      	lsls	r1, r1, #16
 800402c:	e7fb      	b.n	8004026 <HAL_GPIO_WritePin+0x2>
	...

08004030 <HAL_RCC_OscConfig>:
 8004030:	e92d 41f3 	stmdb	sp!, {r0, r1, r4, r5, r6, r7, r8, lr}
 8004034:	4604      	mov	r4, r0
 8004036:	b340      	cbz	r0, 800408a <HAL_RCC_OscConfig+0x5a>
 8004038:	6803      	ldr	r3, [r0, #0]
 800403a:	07dd      	lsls	r5, r3, #31
 800403c:	d410      	bmi.n	8004060 <HAL_RCC_OscConfig+0x30>
 800403e:	6823      	ldr	r3, [r4, #0]
 8004040:	0798      	lsls	r0, r3, #30
 8004042:	d446      	bmi.n	80040d2 <HAL_RCC_OscConfig+0xa2>
 8004044:	6823      	ldr	r3, [r4, #0]
 8004046:	071a      	lsls	r2, r3, #28
 8004048:	f100 8092 	bmi.w	8004170 <HAL_RCC_OscConfig+0x140>
 800404c:	6823      	ldr	r3, [r4, #0]
 800404e:	075b      	lsls	r3, r3, #29
 8004050:	f100 80b0 	bmi.w	80041b4 <HAL_RCC_OscConfig+0x184>
 8004054:	69a0      	ldr	r0, [r4, #24]
 8004056:	2800      	cmp	r0, #0
 8004058:	f040 8102 	bne.w	8004260 <HAL_RCC_OscConfig+0x230>
 800405c:	2000      	movs	r0, #0
 800405e:	e028      	b.n	80040b2 <HAL_RCC_OscConfig+0x82>
 8004060:	4ba6      	ldr	r3, [pc, #664]	; (80042fc <HAL_RCC_OscConfig+0x2cc>)
 8004062:	689a      	ldr	r2, [r3, #8]
 8004064:	f002 020c 	and.w	r2, r2, #12
 8004068:	2a04      	cmp	r2, #4
 800406a:	d007      	beq.n	800407c <HAL_RCC_OscConfig+0x4c>
 800406c:	689a      	ldr	r2, [r3, #8]
 800406e:	f002 020c 	and.w	r2, r2, #12
 8004072:	2a08      	cmp	r2, #8
 8004074:	d10b      	bne.n	800408e <HAL_RCC_OscConfig+0x5e>
 8004076:	685b      	ldr	r3, [r3, #4]
 8004078:	0259      	lsls	r1, r3, #9
 800407a:	d508      	bpl.n	800408e <HAL_RCC_OscConfig+0x5e>
 800407c:	4b9f      	ldr	r3, [pc, #636]	; (80042fc <HAL_RCC_OscConfig+0x2cc>)
 800407e:	681b      	ldr	r3, [r3, #0]
 8004080:	039a      	lsls	r2, r3, #14
 8004082:	d5dc      	bpl.n	800403e <HAL_RCC_OscConfig+0xe>
 8004084:	6863      	ldr	r3, [r4, #4]
 8004086:	2b00      	cmp	r3, #0
 8004088:	d1d9      	bne.n	800403e <HAL_RCC_OscConfig+0xe>
 800408a:	2001      	movs	r0, #1
 800408c:	e011      	b.n	80040b2 <HAL_RCC_OscConfig+0x82>
 800408e:	4b9c      	ldr	r3, [pc, #624]	; (8004300 <HAL_RCC_OscConfig+0x2d0>)
 8004090:	7922      	ldrb	r2, [r4, #4]
 8004092:	701a      	strb	r2, [r3, #0]
 8004094:	6863      	ldr	r3, [r4, #4]
 8004096:	b17b      	cbz	r3, 80040b8 <HAL_RCC_OscConfig+0x88>
 8004098:	f7ff f89c 	bl	80031d4 <HAL_GetTick>
 800409c:	4605      	mov	r5, r0
 800409e:	4e97      	ldr	r6, [pc, #604]	; (80042fc <HAL_RCC_OscConfig+0x2cc>)
 80040a0:	6833      	ldr	r3, [r6, #0]
 80040a2:	039b      	lsls	r3, r3, #14
 80040a4:	d4cb      	bmi.n	800403e <HAL_RCC_OscConfig+0xe>
 80040a6:	f7ff f895 	bl	80031d4 <HAL_GetTick>
 80040aa:	1b40      	subs	r0, r0, r5
 80040ac:	2864      	cmp	r0, #100	; 0x64
 80040ae:	d9f7      	bls.n	80040a0 <HAL_RCC_OscConfig+0x70>
 80040b0:	2003      	movs	r0, #3
 80040b2:	b002      	add	sp, #8
 80040b4:	e8bd 81f0 	ldmia.w	sp!, {r4, r5, r6, r7, r8, pc}
 80040b8:	f7ff f88c 	bl	80031d4 <HAL_GetTick>
 80040bc:	4605      	mov	r5, r0
 80040be:	4e8f      	ldr	r6, [pc, #572]	; (80042fc <HAL_RCC_OscConfig+0x2cc>)
 80040c0:	6833      	ldr	r3, [r6, #0]
 80040c2:	039f      	lsls	r7, r3, #14
 80040c4:	d5bb      	bpl.n	800403e <HAL_RCC_OscConfig+0xe>
 80040c6:	f7ff f885 	bl	80031d4 <HAL_GetTick>
 80040ca:	1b40      	subs	r0, r0, r5
 80040cc:	2864      	cmp	r0, #100	; 0x64
 80040ce:	d9f7      	bls.n	80040c0 <HAL_RCC_OscConfig+0x90>
 80040d0:	e7ee      	b.n	80040b0 <HAL_RCC_OscConfig+0x80>
 80040d2:	4b8a      	ldr	r3, [pc, #552]	; (80042fc <HAL_RCC_OscConfig+0x2cc>)
 80040d4:	689a      	ldr	r2, [r3, #8]
 80040d6:	f012 0f0c 	tst.w	r2, #12
 80040da:	d007      	beq.n	80040ec <HAL_RCC_OscConfig+0xbc>
 80040dc:	689a      	ldr	r2, [r3, #8]
 80040de:	f002 020c 	and.w	r2, r2, #12
 80040e2:	2a08      	cmp	r2, #8
 80040e4:	d116      	bne.n	8004114 <HAL_RCC_OscConfig+0xe4>
 80040e6:	685b      	ldr	r3, [r3, #4]
 80040e8:	025e      	lsls	r6, r3, #9
 80040ea:	d413      	bmi.n	8004114 <HAL_RCC_OscConfig+0xe4>
 80040ec:	4b83      	ldr	r3, [pc, #524]	; (80042fc <HAL_RCC_OscConfig+0x2cc>)
 80040ee:	681a      	ldr	r2, [r3, #0]
 80040f0:	0795      	lsls	r5, r2, #30
 80040f2:	d502      	bpl.n	80040fa <HAL_RCC_OscConfig+0xca>
 80040f4:	68e2      	ldr	r2, [r4, #12]
 80040f6:	2a01      	cmp	r2, #1
 80040f8:	d1c7      	bne.n	800408a <HAL_RCC_OscConfig+0x5a>
 80040fa:	22f8      	movs	r2, #248	; 0xf8
 80040fc:	6818      	ldr	r0, [r3, #0]
 80040fe:	fa92 f2a2 	rbit	r2, r2
 8004102:	fab2 f182 	clz	r1, r2
 8004106:	6922      	ldr	r2, [r4, #16]
 8004108:	408a      	lsls	r2, r1
 800410a:	f020 01f8 	bic.w	r1, r0, #248	; 0xf8
 800410e:	430a      	orrs	r2, r1
 8004110:	601a      	str	r2, [r3, #0]
 8004112:	e797      	b.n	8004044 <HAL_RCC_OscConfig+0x14>
 8004114:	68e2      	ldr	r2, [r4, #12]
 8004116:	4b7b      	ldr	r3, [pc, #492]	; (8004304 <HAL_RCC_OscConfig+0x2d4>)
 8004118:	b1da      	cbz	r2, 8004152 <HAL_RCC_OscConfig+0x122>
 800411a:	2201      	movs	r2, #1
 800411c:	601a      	str	r2, [r3, #0]
 800411e:	f7ff f859 	bl	80031d4 <HAL_GetTick>
 8004122:	4606      	mov	r6, r0
 8004124:	4d75      	ldr	r5, [pc, #468]	; (80042fc <HAL_RCC_OscConfig+0x2cc>)
 8004126:	682b      	ldr	r3, [r5, #0]
 8004128:	0798      	lsls	r0, r3, #30
 800412a:	d50c      	bpl.n	8004146 <HAL_RCC_OscConfig+0x116>
 800412c:	23f8      	movs	r3, #248	; 0xf8
 800412e:	6829      	ldr	r1, [r5, #0]
 8004130:	fa93 f3a3 	rbit	r3, r3
 8004134:	fab3 f283 	clz	r2, r3
 8004138:	6923      	ldr	r3, [r4, #16]
 800413a:	4093      	lsls	r3, r2
 800413c:	f021 02f8 	bic.w	r2, r1, #248	; 0xf8
 8004140:	4313      	orrs	r3, r2
 8004142:	602b      	str	r3, [r5, #0]
 8004144:	e77e      	b.n	8004044 <HAL_RCC_OscConfig+0x14>
 8004146:	f7ff f845 	bl	80031d4 <HAL_GetTick>
 800414a:	1b80      	subs	r0, r0, r6
 800414c:	2802      	cmp	r0, #2
 800414e:	d9ea      	bls.n	8004126 <HAL_RCC_OscConfig+0xf6>
 8004150:	e7ae      	b.n	80040b0 <HAL_RCC_OscConfig+0x80>
 8004152:	601a      	str	r2, [r3, #0]
 8004154:	f7ff f83e 	bl	80031d4 <HAL_GetTick>
 8004158:	4605      	mov	r5, r0
 800415a:	4e68      	ldr	r6, [pc, #416]	; (80042fc <HAL_RCC_OscConfig+0x2cc>)
 800415c:	6833      	ldr	r3, [r6, #0]
 800415e:	0799      	lsls	r1, r3, #30
 8004160:	f57f af70 	bpl.w	8004044 <HAL_RCC_OscConfig+0x14>
 8004164:	f7ff f836 	bl	80031d4 <HAL_GetTick>
 8004168:	1b40      	subs	r0, r0, r5
 800416a:	2802      	cmp	r0, #2
 800416c:	d9f6      	bls.n	800415c <HAL_RCC_OscConfig+0x12c>
 800416e:	e79f      	b.n	80040b0 <HAL_RCC_OscConfig+0x80>
 8004170:	6962      	ldr	r2, [r4, #20]
 8004172:	4b65      	ldr	r3, [pc, #404]	; (8004308 <HAL_RCC_OscConfig+0x2d8>)
 8004174:	b17a      	cbz	r2, 8004196 <HAL_RCC_OscConfig+0x166>
 8004176:	2201      	movs	r2, #1
 8004178:	601a      	str	r2, [r3, #0]
 800417a:	f7ff f82b 	bl	80031d4 <HAL_GetTick>
 800417e:	4605      	mov	r5, r0
 8004180:	4e5e      	ldr	r6, [pc, #376]	; (80042fc <HAL_RCC_OscConfig+0x2cc>)
 8004182:	6f73      	ldr	r3, [r6, #116]	; 0x74
 8004184:	079f      	lsls	r7, r3, #30
 8004186:	f53f af61 	bmi.w	800404c <HAL_RCC_OscConfig+0x1c>
 800418a:	f7ff f823 	bl	80031d4 <HAL_GetTick>
 800418e:	1b40      	subs	r0, r0, r5
 8004190:	2802      	cmp	r0, #2
 8004192:	d9f6      	bls.n	8004182 <HAL_RCC_OscConfig+0x152>
 8004194:	e78c      	b.n	80040b0 <HAL_RCC_OscConfig+0x80>
 8004196:	601a      	str	r2, [r3, #0]
 8004198:	f7ff f81c 	bl	80031d4 <HAL_GetTick>
 800419c:	4605      	mov	r5, r0
 800419e:	4e57      	ldr	r6, [pc, #348]	; (80042fc <HAL_RCC_OscConfig+0x2cc>)
 80041a0:	6f73      	ldr	r3, [r6, #116]	; 0x74
 80041a2:	0798      	lsls	r0, r3, #30
 80041a4:	f57f af52 	bpl.w	800404c <HAL_RCC_OscConfig+0x1c>
 80041a8:	f7ff f814 	bl	80031d4 <HAL_GetTick>
 80041ac:	1b40      	subs	r0, r0, r5
 80041ae:	2802      	cmp	r0, #2
 80041b0:	d9f6      	bls.n	80041a0 <HAL_RCC_OscConfig+0x170>
 80041b2:	e77d      	b.n	80040b0 <HAL_RCC_OscConfig+0x80>
 80041b4:	4b51      	ldr	r3, [pc, #324]	; (80042fc <HAL_RCC_OscConfig+0x2cc>)
 80041b6:	6c1a      	ldr	r2, [r3, #64]	; 0x40
 80041b8:	f012 5280 	ands.w	r2, r2, #268435456	; 0x10000000
 80041bc:	d126      	bne.n	800420c <HAL_RCC_OscConfig+0x1dc>
 80041be:	2601      	movs	r6, #1
 80041c0:	9201      	str	r2, [sp, #4]
 80041c2:	6c1a      	ldr	r2, [r3, #64]	; 0x40
 80041c4:	f042 5280 	orr.w	r2, r2, #268435456	; 0x10000000
 80041c8:	641a      	str	r2, [r3, #64]	; 0x40
 80041ca:	6c1b      	ldr	r3, [r3, #64]	; 0x40
 80041cc:	f003 5380 	and.w	r3, r3, #268435456	; 0x10000000
 80041d0:	9301      	str	r3, [sp, #4]
 80041d2:	9b01      	ldr	r3, [sp, #4]
 80041d4:	4d4d      	ldr	r5, [pc, #308]	; (800430c <HAL_RCC_OscConfig+0x2dc>)
 80041d6:	682b      	ldr	r3, [r5, #0]
 80041d8:	f443 7380 	orr.w	r3, r3, #256	; 0x100
 80041dc:	602b      	str	r3, [r5, #0]
 80041de:	682b      	ldr	r3, [r5, #0]
 80041e0:	05d9      	lsls	r1, r3, #23
 80041e2:	d515      	bpl.n	8004210 <HAL_RCC_OscConfig+0x1e0>
 80041e4:	4b4a      	ldr	r3, [pc, #296]	; (8004310 <HAL_RCC_OscConfig+0x2e0>)
 80041e6:	7a22      	ldrb	r2, [r4, #8]
 80041e8:	701a      	strb	r2, [r3, #0]
 80041ea:	68a3      	ldr	r3, [r4, #8]
 80041ec:	bb03      	cbnz	r3, 8004230 <HAL_RCC_OscConfig+0x200>
 80041ee:	f7fe fff1 	bl	80031d4 <HAL_GetTick>
 80041f2:	f241 3888 	movw	r8, #5000	; 0x1388
 80041f6:	4605      	mov	r5, r0
 80041f8:	4f40      	ldr	r7, [pc, #256]	; (80042fc <HAL_RCC_OscConfig+0x2cc>)
 80041fa:	6f3b      	ldr	r3, [r7, #112]	; 0x70
 80041fc:	0798      	lsls	r0, r3, #30
 80041fe:	d520      	bpl.n	8004242 <HAL_RCC_OscConfig+0x212>
 8004200:	f7fe ffe8 	bl	80031d4 <HAL_GetTick>
 8004204:	1b40      	subs	r0, r0, r5
 8004206:	4540      	cmp	r0, r8
 8004208:	d9f7      	bls.n	80041fa <HAL_RCC_OscConfig+0x1ca>
 800420a:	e751      	b.n	80040b0 <HAL_RCC_OscConfig+0x80>
 800420c:	2600      	movs	r6, #0
 800420e:	e7e1      	b.n	80041d4 <HAL_RCC_OscConfig+0x1a4>
 8004210:	682b      	ldr	r3, [r5, #0]
 8004212:	f443 7380 	orr.w	r3, r3, #256	; 0x100
 8004216:	602b      	str	r3, [r5, #0]
 8004218:	f7fe ffdc 	bl	80031d4 <HAL_GetTick>
 800421c:	4607      	mov	r7, r0
 800421e:	682b      	ldr	r3, [r5, #0]
 8004220:	05da      	lsls	r2, r3, #23
 8004222:	d4df      	bmi.n	80041e4 <HAL_RCC_OscConfig+0x1b4>
 8004224:	f7fe ffd6 	bl	80031d4 <HAL_GetTick>
 8004228:	1bc0      	subs	r0, r0, r7
 800422a:	2802      	cmp	r0, #2
 800422c:	d9f7      	bls.n	800421e <HAL_RCC_OscConfig+0x1ee>
 800422e:	e73f      	b.n	80040b0 <HAL_RCC_OscConfig+0x80>
 8004230:	f7fe ffd0 	bl	80031d4 <HAL_GetTick>
 8004234:	f241 3888 	movw	r8, #5000	; 0x1388
 8004238:	4605      	mov	r5, r0
 800423a:	4f30      	ldr	r7, [pc, #192]	; (80042fc <HAL_RCC_OscConfig+0x2cc>)
 800423c:	6f3b      	ldr	r3, [r7, #112]	; 0x70
 800423e:	079b      	lsls	r3, r3, #30
 8004240:	d508      	bpl.n	8004254 <HAL_RCC_OscConfig+0x224>
 8004242:	2e00      	cmp	r6, #0
 8004244:	f43f af06 	beq.w	8004054 <HAL_RCC_OscConfig+0x24>
 8004248:	4a2c      	ldr	r2, [pc, #176]	; (80042fc <HAL_RCC_OscConfig+0x2cc>)
 800424a:	6c13      	ldr	r3, [r2, #64]	; 0x40
 800424c:	f023 5380 	bic.w	r3, r3, #268435456	; 0x10000000
 8004250:	6413      	str	r3, [r2, #64]	; 0x40
 8004252:	e6ff      	b.n	8004054 <HAL_RCC_OscConfig+0x24>
 8004254:	f7fe ffbe 	bl	80031d4 <HAL_GetTick>
 8004258:	1b40      	subs	r0, r0, r5
 800425a:	4540      	cmp	r0, r8
 800425c:	d9ee      	bls.n	800423c <HAL_RCC_OscConfig+0x20c>
 800425e:	e727      	b.n	80040b0 <HAL_RCC_OscConfig+0x80>
 8004260:	4d26      	ldr	r5, [pc, #152]	; (80042fc <HAL_RCC_OscConfig+0x2cc>)
 8004262:	68ab      	ldr	r3, [r5, #8]
 8004264:	f003 030c 	and.w	r3, r3, #12
 8004268:	2b08      	cmp	r3, #8
 800426a:	d055      	beq.n	8004318 <HAL_RCC_OscConfig+0x2e8>
 800426c:	2300      	movs	r3, #0
 800426e:	4e29      	ldr	r6, [pc, #164]	; (8004314 <HAL_RCC_OscConfig+0x2e4>)
 8004270:	2802      	cmp	r0, #2
 8004272:	6033      	str	r3, [r6, #0]
 8004274:	d134      	bne.n	80042e0 <HAL_RCC_OscConfig+0x2b0>
 8004276:	f7fe ffad 	bl	80031d4 <HAL_GetTick>
 800427a:	4607      	mov	r7, r0
 800427c:	682b      	ldr	r3, [r5, #0]
 800427e:	0199      	lsls	r1, r3, #6
 8004280:	d428      	bmi.n	80042d4 <HAL_RCC_OscConfig+0x2a4>
 8004282:	686a      	ldr	r2, [r5, #4]
 8004284:	e9d4 3107 	ldrd	r3, r1, [r4, #28]
 8004288:	f022 6274 	bic.w	r2, r2, #255852544	; 0xf400000
 800428c:	f422 325f 	bic.w	r2, r2, #228352	; 0x37c00
 8004290:	f422 727f 	bic.w	r2, r2, #1020	; 0x3fc
 8004294:	430b      	orrs	r3, r1
 8004296:	f022 0203 	bic.w	r2, r2, #3
 800429a:	4313      	orrs	r3, r2
 800429c:	6a62      	ldr	r2, [r4, #36]	; 0x24
 800429e:	ea43 1382 	orr.w	r3, r3, r2, lsl #6
 80042a2:	6ae2      	ldr	r2, [r4, #44]	; 0x2c
 80042a4:	ea43 6302 	orr.w	r3, r3, r2, lsl #24
 80042a8:	6aa2      	ldr	r2, [r4, #40]	; 0x28
 80042aa:	0852      	lsrs	r2, r2, #1
 80042ac:	3a01      	subs	r2, #1
 80042ae:	ea43 4302 	orr.w	r3, r3, r2, lsl #16
 80042b2:	606b      	str	r3, [r5, #4]
 80042b4:	2301      	movs	r3, #1
 80042b6:	6033      	str	r3, [r6, #0]
 80042b8:	f7fe ff8c 	bl	80031d4 <HAL_GetTick>
 80042bc:	4604      	mov	r4, r0
 80042be:	4d0f      	ldr	r5, [pc, #60]	; (80042fc <HAL_RCC_OscConfig+0x2cc>)
 80042c0:	682b      	ldr	r3, [r5, #0]
 80042c2:	019a      	lsls	r2, r3, #6
 80042c4:	f53f aeca 	bmi.w	800405c <HAL_RCC_OscConfig+0x2c>
 80042c8:	f7fe ff84 	bl	80031d4 <HAL_GetTick>
 80042cc:	1b00      	subs	r0, r0, r4
 80042ce:	2864      	cmp	r0, #100	; 0x64
 80042d0:	d9f6      	bls.n	80042c0 <HAL_RCC_OscConfig+0x290>
 80042d2:	e6ed      	b.n	80040b0 <HAL_RCC_OscConfig+0x80>
 80042d4:	f7fe ff7e 	bl	80031d4 <HAL_GetTick>
 80042d8:	1bc0      	subs	r0, r0, r7
 80042da:	2864      	cmp	r0, #100	; 0x64
 80042dc:	d9ce      	bls.n	800427c <HAL_RCC_OscConfig+0x24c>
 80042de:	e6e7      	b.n	80040b0 <HAL_RCC_OscConfig+0x80>
 80042e0:	f7fe ff78 	bl	80031d4 <HAL_GetTick>
 80042e4:	4604      	mov	r4, r0
 80042e6:	682b      	ldr	r3, [r5, #0]
 80042e8:	019b      	lsls	r3, r3, #6
 80042ea:	f57f aeb7 	bpl.w	800405c <HAL_RCC_OscConfig+0x2c>
 80042ee:	f7fe ff71 	bl	80031d4 <HAL_GetTick>
 80042f2:	1b00      	subs	r0, r0, r4
 80042f4:	2864      	cmp	r0, #100	; 0x64
 80042f6:	d9f6      	bls.n	80042e6 <HAL_RCC_OscConfig+0x2b6>
 80042f8:	e6da      	b.n	80040b0 <HAL_RCC_OscConfig+0x80>
 80042fa:	bf00      	nop
 80042fc:	40023800 	.word	0x40023800
 8004300:	40023802 	.word	0x40023802
 8004304:	42470000 	.word	0x42470000
 8004308:	42470e80 	.word	0x42470e80
 800430c:	40007000 	.word	0x40007000
 8004310:	40023870 	.word	0x40023870
 8004314:	42470060 	.word	0x42470060
 8004318:	2801      	cmp	r0, #1
 800431a:	f43f aeca 	beq.w	80040b2 <HAL_RCC_OscConfig+0x82>
 800431e:	686b      	ldr	r3, [r5, #4]
 8004320:	69e2      	ldr	r2, [r4, #28]
 8004322:	f403 0180 	and.w	r1, r3, #4194304	; 0x400000
 8004326:	4291      	cmp	r1, r2
 8004328:	f47f aeaf 	bne.w	800408a <HAL_RCC_OscConfig+0x5a>
 800432c:	6a21      	ldr	r1, [r4, #32]
 800432e:	f003 023f 	and.w	r2, r3, #63	; 0x3f
 8004332:	428a      	cmp	r2, r1
 8004334:	f47f aea9 	bne.w	800408a <HAL_RCC_OscConfig+0x5a>
 8004338:	6a61      	ldr	r1, [r4, #36]	; 0x24
 800433a:	f3c3 1288 	ubfx	r2, r3, #6, #9
 800433e:	428a      	cmp	r2, r1
 8004340:	f47f aea3 	bne.w	800408a <HAL_RCC_OscConfig+0x5a>
 8004344:	6aa1      	ldr	r1, [r4, #40]	; 0x28
 8004346:	f403 3240 	and.w	r2, r3, #196608	; 0x30000
 800434a:	428a      	cmp	r2, r1
 800434c:	f47f ae9d 	bne.w	800408a <HAL_RCC_OscConfig+0x5a>
 8004350:	6ae2      	ldr	r2, [r4, #44]	; 0x2c
 8004352:	f003 6370 	and.w	r3, r3, #251658240	; 0xf000000
 8004356:	4293      	cmp	r3, r2
 8004358:	f43f ae80 	beq.w	800405c <HAL_RCC_OscConfig+0x2c>
 800435c:	e695      	b.n	800408a <HAL_RCC_OscConfig+0x5a>
 800435e:	bf00      	nop

08004360 <HAL_RCC_GetSysClockFreq>:
 8004360:	4913      	ldr	r1, [pc, #76]	; (80043b0 <HAL_RCC_GetSysClockFreq+0x50>)
 8004362:	b508      	push	{r3, lr}
 8004364:	688b      	ldr	r3, [r1, #8]
 8004366:	f003 030c 	and.w	r3, r3, #12
 800436a:	2b04      	cmp	r3, #4
 800436c:	d01c      	beq.n	80043a8 <HAL_RCC_GetSysClockFreq+0x48>
 800436e:	2b08      	cmp	r3, #8
 8004370:	d11c      	bne.n	80043ac <HAL_RCC_GetSysClockFreq+0x4c>
 8004372:	684a      	ldr	r2, [r1, #4]
 8004374:	684b      	ldr	r3, [r1, #4]
 8004376:	6849      	ldr	r1, [r1, #4]
 8004378:	f413 0380 	ands.w	r3, r3, #4194304	; 0x400000
 800437c:	bf14      	ite	ne
 800437e:	480d      	ldrne	r0, [pc, #52]	; (80043b4 <HAL_RCC_GetSysClockFreq+0x54>)
 8004380:	480d      	ldreq	r0, [pc, #52]	; (80043b8 <HAL_RCC_GetSysClockFreq+0x58>)
 8004382:	f3c1 1188 	ubfx	r1, r1, #6, #9
 8004386:	bf18      	it	ne
 8004388:	2300      	movne	r3, #0
 800438a:	fba1 0100 	umull	r0, r1, r1, r0
 800438e:	f002 023f 	and.w	r2, r2, #63	; 0x3f
 8004392:	f7fc fe07 	bl	8000fa4 <__aeabi_uldivmod>
 8004396:	4b06      	ldr	r3, [pc, #24]	; (80043b0 <HAL_RCC_GetSysClockFreq+0x50>)
 8004398:	685b      	ldr	r3, [r3, #4]
 800439a:	f3c3 4301 	ubfx	r3, r3, #16, #2
 800439e:	3301      	adds	r3, #1
 80043a0:	005b      	lsls	r3, r3, #1
 80043a2:	fbb0 f0f3 	udiv	r0, r0, r3
 80043a6:	bd08      	pop	{r3, pc}
 80043a8:	4802      	ldr	r0, [pc, #8]	; (80043b4 <HAL_RCC_GetSysClockFreq+0x54>)
 80043aa:	e7fc      	b.n	80043a6 <HAL_RCC_GetSysClockFreq+0x46>
 80043ac:	4802      	ldr	r0, [pc, #8]	; (80043b8 <HAL_RCC_GetSysClockFreq+0x58>)
 80043ae:	e7fa      	b.n	80043a6 <HAL_RCC_GetSysClockFreq+0x46>
 80043b0:	40023800 	.word	0x40023800
 80043b4:	017d7840 	.word	0x017d7840
 80043b8:	00f42400 	.word	0x00f42400

080043bc <HAL_RCC_ClockConfig>:
 80043bc:	e92d 41f0 	stmdb	sp!, {r4, r5, r6, r7, r8, lr}
 80043c0:	460d      	mov	r5, r1
 80043c2:	4604      	mov	r4, r0
 80043c4:	b910      	cbnz	r0, 80043cc <HAL_RCC_ClockConfig+0x10>
 80043c6:	2001      	movs	r0, #1
 80043c8:	e8bd 81f0 	ldmia.w	sp!, {r4, r5, r6, r7, r8, pc}
 80043cc:	4b46      	ldr	r3, [pc, #280]	; (80044e8 <HAL_RCC_ClockConfig+0x12c>)
 80043ce:	681a      	ldr	r2, [r3, #0]
 80043d0:	f002 020f 	and.w	r2, r2, #15
 80043d4:	428a      	cmp	r2, r1
 80043d6:	d32e      	bcc.n	8004436 <HAL_RCC_ClockConfig+0x7a>
 80043d8:	6822      	ldr	r2, [r4, #0]
 80043da:	0797      	lsls	r7, r2, #30
 80043dc:	d433      	bmi.n	8004446 <HAL_RCC_ClockConfig+0x8a>
 80043de:	07d0      	lsls	r0, r2, #31
 80043e0:	d447      	bmi.n	8004472 <HAL_RCC_ClockConfig+0xb6>
 80043e2:	4b41      	ldr	r3, [pc, #260]	; (80044e8 <HAL_RCC_ClockConfig+0x12c>)
 80043e4:	681a      	ldr	r2, [r3, #0]
 80043e6:	f002 020f 	and.w	r2, r2, #15
 80043ea:	42aa      	cmp	r2, r5
 80043ec:	d86a      	bhi.n	80044c4 <HAL_RCC_ClockConfig+0x108>
 80043ee:	6822      	ldr	r2, [r4, #0]
 80043f0:	0751      	lsls	r1, r2, #29
 80043f2:	d470      	bmi.n	80044d6 <HAL_RCC_ClockConfig+0x11a>
 80043f4:	0713      	lsls	r3, r2, #28
 80043f6:	d507      	bpl.n	8004408 <HAL_RCC_ClockConfig+0x4c>
 80043f8:	4a3c      	ldr	r2, [pc, #240]	; (80044ec <HAL_RCC_ClockConfig+0x130>)
 80043fa:	6921      	ldr	r1, [r4, #16]
 80043fc:	6893      	ldr	r3, [r2, #8]
 80043fe:	f423 4360 	bic.w	r3, r3, #57344	; 0xe000
 8004402:	ea43 03c1 	orr.w	r3, r3, r1, lsl #3
 8004406:	6093      	str	r3, [r2, #8]
 8004408:	f7ff ffaa 	bl	8004360 <HAL_RCC_GetSysClockFreq>
 800440c:	4b37      	ldr	r3, [pc, #220]	; (80044ec <HAL_RCC_ClockConfig+0x130>)
 800440e:	22f0      	movs	r2, #240	; 0xf0
 8004410:	689b      	ldr	r3, [r3, #8]
 8004412:	fa92 f2a2 	rbit	r2, r2
 8004416:	fab2 f282 	clz	r2, r2
 800441a:	f003 03f0 	and.w	r3, r3, #240	; 0xf0
 800441e:	40d3      	lsrs	r3, r2
 8004420:	4a33      	ldr	r2, [pc, #204]	; (80044f0 <HAL_RCC_ClockConfig+0x134>)
 8004422:	5cd3      	ldrb	r3, [r2, r3]
 8004424:	40d8      	lsrs	r0, r3
 8004426:	4b33      	ldr	r3, [pc, #204]	; (80044f4 <HAL_RCC_ClockConfig+0x138>)
 8004428:	6018      	str	r0, [r3, #0]
 800442a:	4b33      	ldr	r3, [pc, #204]	; (80044f8 <HAL_RCC_ClockConfig+0x13c>)
 800442c:	6818      	ldr	r0, [r3, #0]
 800442e:	f7fe fe87 	bl	8003140 <HAL_InitTick>
 8004432:	2000      	movs	r0, #0
 8004434:	e7c8      	b.n	80043c8 <HAL_RCC_ClockConfig+0xc>
 8004436:	b2ca      	uxtb	r2, r1
 8004438:	701a      	strb	r2, [r3, #0]
 800443a:	681b      	ldr	r3, [r3, #0]
 800443c:	f003 030f 	and.w	r3, r3, #15
 8004440:	428b      	cmp	r3, r1
 8004442:	d1c0      	bne.n	80043c6 <HAL_RCC_ClockConfig+0xa>
 8004444:	e7c8      	b.n	80043d8 <HAL_RCC_ClockConfig+0x1c>
 8004446:	4b29      	ldr	r3, [pc, #164]	; (80044ec <HAL_RCC_ClockConfig+0x130>)
 8004448:	f012 0f04 	tst.w	r2, #4
 800444c:	bf1e      	ittt	ne
 800444e:	6899      	ldrne	r1, [r3, #8]
 8004450:	f441 51e0 	orrne.w	r1, r1, #7168	; 0x1c00
 8004454:	6099      	strne	r1, [r3, #8]
 8004456:	0716      	lsls	r6, r2, #28
 8004458:	bf42      	ittt	mi
 800445a:	6899      	ldrmi	r1, [r3, #8]
 800445c:	f441 4160 	orrmi.w	r1, r1, #57344	; 0xe000
 8004460:	6099      	strmi	r1, [r3, #8]
 8004462:	4922      	ldr	r1, [pc, #136]	; (80044ec <HAL_RCC_ClockConfig+0x130>)
 8004464:	68a0      	ldr	r0, [r4, #8]
 8004466:	688b      	ldr	r3, [r1, #8]
 8004468:	f023 03f0 	bic.w	r3, r3, #240	; 0xf0
 800446c:	4303      	orrs	r3, r0
 800446e:	608b      	str	r3, [r1, #8]
 8004470:	e7b5      	b.n	80043de <HAL_RCC_ClockConfig+0x22>
 8004472:	6861      	ldr	r1, [r4, #4]
 8004474:	4b1d      	ldr	r3, [pc, #116]	; (80044ec <HAL_RCC_ClockConfig+0x130>)
 8004476:	2901      	cmp	r1, #1
 8004478:	681a      	ldr	r2, [r3, #0]
 800447a:	d11b      	bne.n	80044b4 <HAL_RCC_ClockConfig+0xf8>
 800447c:	f412 3f00 	tst.w	r2, #131072	; 0x20000
 8004480:	d0a1      	beq.n	80043c6 <HAL_RCC_ClockConfig+0xa>
 8004482:	689a      	ldr	r2, [r3, #8]
 8004484:	f241 3888 	movw	r8, #5000	; 0x1388
 8004488:	f022 0203 	bic.w	r2, r2, #3
 800448c:	430a      	orrs	r2, r1
 800448e:	609a      	str	r2, [r3, #8]
 8004490:	f7fe fea0 	bl	80031d4 <HAL_GetTick>
 8004494:	4606      	mov	r6, r0
 8004496:	4f15      	ldr	r7, [pc, #84]	; (80044ec <HAL_RCC_ClockConfig+0x130>)
 8004498:	68bb      	ldr	r3, [r7, #8]
 800449a:	6862      	ldr	r2, [r4, #4]
 800449c:	f003 030c 	and.w	r3, r3, #12
 80044a0:	ebb3 0f82 	cmp.w	r3, r2, lsl #2
 80044a4:	d09d      	beq.n	80043e2 <HAL_RCC_ClockConfig+0x26>
 80044a6:	f7fe fe95 	bl	80031d4 <HAL_GetTick>
 80044aa:	1b80      	subs	r0, r0, r6
 80044ac:	4540      	cmp	r0, r8
 80044ae:	d9f3      	bls.n	8004498 <HAL_RCC_ClockConfig+0xdc>
 80044b0:	2003      	movs	r0, #3
 80044b2:	e789      	b.n	80043c8 <HAL_RCC_ClockConfig+0xc>
 80044b4:	2902      	cmp	r1, #2
 80044b6:	d102      	bne.n	80044be <HAL_RCC_ClockConfig+0x102>
 80044b8:	f012 7f00 	tst.w	r2, #33554432	; 0x2000000
 80044bc:	e7e0      	b.n	8004480 <HAL_RCC_ClockConfig+0xc4>
 80044be:	f012 0f02 	tst.w	r2, #2
 80044c2:	e7dd      	b.n	8004480 <HAL_RCC_ClockConfig+0xc4>
 80044c4:	b2ea      	uxtb	r2, r5
 80044c6:	701a      	strb	r2, [r3, #0]
 80044c8:	681b      	ldr	r3, [r3, #0]
 80044ca:	f003 030f 	and.w	r3, r3, #15
 80044ce:	42ab      	cmp	r3, r5
 80044d0:	f47f af79 	bne.w	80043c6 <HAL_RCC_ClockConfig+0xa>
 80044d4:	e78b      	b.n	80043ee <HAL_RCC_ClockConfig+0x32>
 80044d6:	4905      	ldr	r1, [pc, #20]	; (80044ec <HAL_RCC_ClockConfig+0x130>)
 80044d8:	68e0      	ldr	r0, [r4, #12]
 80044da:	688b      	ldr	r3, [r1, #8]
 80044dc:	f423 53e0 	bic.w	r3, r3, #7168	; 0x1c00
 80044e0:	4303      	orrs	r3, r0
 80044e2:	608b      	str	r3, [r1, #8]
 80044e4:	e786      	b.n	80043f4 <HAL_RCC_ClockConfig+0x38>
 80044e6:	bf00      	nop
 80044e8:	40023c00 	.word	0x40023c00
 80044ec:	40023800 	.word	0x40023800
 80044f0:	0800ba8f 	.word	0x0800ba8f
 80044f4:	20000004 	.word	0x20000004
 80044f8:	2000000c 	.word	0x2000000c

080044fc <HAL_RCC_GetHCLKFreq>:
 80044fc:	4b01      	ldr	r3, [pc, #4]	; (8004504 <HAL_RCC_GetHCLKFreq+0x8>)
 80044fe:	6818      	ldr	r0, [r3, #0]
 8004500:	4770      	bx	lr
 8004502:	bf00      	nop
 8004504:	20000004 	.word	0x20000004

08004508 <HAL_RCC_GetPCLK1Freq>:
 8004508:	4b08      	ldr	r3, [pc, #32]	; (800452c <HAL_RCC_GetPCLK1Freq+0x24>)
 800450a:	f44f 52e0 	mov.w	r2, #7168	; 0x1c00
 800450e:	689b      	ldr	r3, [r3, #8]
 8004510:	fa92 f2a2 	rbit	r2, r2
 8004514:	fab2 f282 	clz	r2, r2
 8004518:	f403 53e0 	and.w	r3, r3, #7168	; 0x1c00
 800451c:	40d3      	lsrs	r3, r2
 800451e:	4a04      	ldr	r2, [pc, #16]	; (8004530 <HAL_RCC_GetPCLK1Freq+0x28>)
 8004520:	5cd3      	ldrb	r3, [r2, r3]
 8004522:	4a04      	ldr	r2, [pc, #16]	; (8004534 <HAL_RCC_GetPCLK1Freq+0x2c>)
 8004524:	6810      	ldr	r0, [r2, #0]
 8004526:	40d8      	lsrs	r0, r3
 8004528:	4770      	bx	lr
 800452a:	bf00      	nop
 800452c:	40023800 	.word	0x40023800
 8004530:	0800ba9f 	.word	0x0800ba9f
 8004534:	20000004 	.word	0x20000004

08004538 <HAL_RCC_GetPCLK2Freq>:
 8004538:	4b08      	ldr	r3, [pc, #32]	; (800455c <HAL_RCC_GetPCLK2Freq+0x24>)
 800453a:	f44f 4260 	mov.w	r2, #57344	; 0xe000
 800453e:	689b      	ldr	r3, [r3, #8]
 8004540:	fa92 f2a2 	rbit	r2, r2
 8004544:	fab2 f282 	clz	r2, r2
 8004548:	f403 4360 	and.w	r3, r3, #57344	; 0xe000
 800454c:	40d3      	lsrs	r3, r2
 800454e:	4a04      	ldr	r2, [pc, #16]	; (8004560 <HAL_RCC_GetPCLK2Freq+0x28>)
 8004550:	5cd3      	ldrb	r3, [r2, r3]
 8004552:	4a04      	ldr	r2, [pc, #16]	; (8004564 <HAL_RCC_GetPCLK2Freq+0x2c>)
 8004554:	6810      	ldr	r0, [r2, #0]
 8004556:	40d8      	lsrs	r0, r3
 8004558:	4770      	bx	lr
 800455a:	bf00      	nop
 800455c:	40023800 	.word	0x40023800
 8004560:	0800ba9f 	.word	0x0800ba9f
 8004564:	20000004 	.word	0x20000004

08004568 <TIM_OC1_SetConfig>:
 8004568:	6a03      	ldr	r3, [r0, #32]
 800456a:	b570      	push	{r4, r5, r6, lr}
 800456c:	f023 0301 	bic.w	r3, r3, #1
 8004570:	6203      	str	r3, [r0, #32]
 8004572:	6a03      	ldr	r3, [r0, #32]
 8004574:	6844      	ldr	r4, [r0, #4]
 8004576:	6982      	ldr	r2, [r0, #24]
 8004578:	680d      	ldr	r5, [r1, #0]
 800457a:	f022 0273 	bic.w	r2, r2, #115	; 0x73
 800457e:	432a      	orrs	r2, r5
 8004580:	688d      	ldr	r5, [r1, #8]
 8004582:	f023 0302 	bic.w	r3, r3, #2
 8004586:	432b      	orrs	r3, r5
 8004588:	4d0e      	ldr	r5, [pc, #56]	; (80045c4 <TIM_OC1_SetConfig+0x5c>)
 800458a:	42a8      	cmp	r0, r5
 800458c:	d002      	beq.n	8004594 <TIM_OC1_SetConfig+0x2c>
 800458e:	4e0e      	ldr	r6, [pc, #56]	; (80045c8 <TIM_OC1_SetConfig+0x60>)
 8004590:	42b0      	cmp	r0, r6
 8004592:	d110      	bne.n	80045b6 <TIM_OC1_SetConfig+0x4e>
 8004594:	68ce      	ldr	r6, [r1, #12]
 8004596:	f023 0308 	bic.w	r3, r3, #8
 800459a:	4333      	orrs	r3, r6
 800459c:	42a8      	cmp	r0, r5
 800459e:	f023 0304 	bic.w	r3, r3, #4
 80045a2:	d002      	beq.n	80045aa <TIM_OC1_SetConfig+0x42>
 80045a4:	4d08      	ldr	r5, [pc, #32]	; (80045c8 <TIM_OC1_SetConfig+0x60>)
 80045a6:	42a8      	cmp	r0, r5
 80045a8:	d105      	bne.n	80045b6 <TIM_OC1_SetConfig+0x4e>
 80045aa:	e9d1 5605 	ldrd	r5, r6, [r1, #20]
 80045ae:	f424 7440 	bic.w	r4, r4, #768	; 0x300
 80045b2:	4335      	orrs	r5, r6
 80045b4:	432c      	orrs	r4, r5
 80045b6:	6044      	str	r4, [r0, #4]
 80045b8:	6182      	str	r2, [r0, #24]
 80045ba:	684a      	ldr	r2, [r1, #4]
 80045bc:	6342      	str	r2, [r0, #52]	; 0x34
 80045be:	6203      	str	r3, [r0, #32]
 80045c0:	bd70      	pop	{r4, r5, r6, pc}
 80045c2:	bf00      	nop
 80045c4:	40010000 	.word	0x40010000
 80045c8:	40010400 	.word	0x40010400

080045cc <TIM_OC3_SetConfig>:
 80045cc:	6a03      	ldr	r3, [r0, #32]
 80045ce:	b570      	push	{r4, r5, r6, lr}
 80045d0:	f423 7380 	bic.w	r3, r3, #256	; 0x100
 80045d4:	6203      	str	r3, [r0, #32]
 80045d6:	6a03      	ldr	r3, [r0, #32]
 80045d8:	6844      	ldr	r4, [r0, #4]
 80045da:	69c2      	ldr	r2, [r0, #28]
 80045dc:	680d      	ldr	r5, [r1, #0]
 80045de:	f022 0273 	bic.w	r2, r2, #115	; 0x73
 80045e2:	432a      	orrs	r2, r5
 80045e4:	688d      	ldr	r5, [r1, #8]
 80045e6:	f423 7300 	bic.w	r3, r3, #512	; 0x200
 80045ea:	ea43 2305 	orr.w	r3, r3, r5, lsl #8
 80045ee:	4d11      	ldr	r5, [pc, #68]	; (8004634 <TIM_OC3_SetConfig+0x68>)
 80045f0:	42a8      	cmp	r0, r5
 80045f2:	d003      	beq.n	80045fc <TIM_OC3_SetConfig+0x30>
 80045f4:	f505 6580 	add.w	r5, r5, #1024	; 0x400
 80045f8:	42a8      	cmp	r0, r5
 80045fa:	d114      	bne.n	8004626 <TIM_OC3_SetConfig+0x5a>
 80045fc:	68cd      	ldr	r5, [r1, #12]
 80045fe:	f423 6300 	bic.w	r3, r3, #2048	; 0x800
 8004602:	ea43 2305 	orr.w	r3, r3, r5, lsl #8
 8004606:	4d0b      	ldr	r5, [pc, #44]	; (8004634 <TIM_OC3_SetConfig+0x68>)
 8004608:	f423 6380 	bic.w	r3, r3, #1024	; 0x400
 800460c:	42a8      	cmp	r0, r5
 800460e:	d003      	beq.n	8004618 <TIM_OC3_SetConfig+0x4c>
 8004610:	f505 6580 	add.w	r5, r5, #1024	; 0x400
 8004614:	42a8      	cmp	r0, r5
 8004616:	d106      	bne.n	8004626 <TIM_OC3_SetConfig+0x5a>
 8004618:	e9d1 5605 	ldrd	r5, r6, [r1, #20]
 800461c:	f424 5440 	bic.w	r4, r4, #12288	; 0x3000
 8004620:	4335      	orrs	r5, r6
 8004622:	ea44 1405 	orr.w	r4, r4, r5, lsl #4
 8004626:	6044      	str	r4, [r0, #4]
 8004628:	61c2      	str	r2, [r0, #28]
 800462a:	684a      	ldr	r2, [r1, #4]
 800462c:	63c2      	str	r2, [r0, #60]	; 0x3c
 800462e:	6203      	str	r3, [r0, #32]
 8004630:	bd70      	pop	{r4, r5, r6, pc}
 8004632:	bf00      	nop
 8004634:	40010000 	.word	0x40010000

08004638 <TIM_OC4_SetConfig>:
 8004638:	6a03      	ldr	r3, [r0, #32]
 800463a:	b530      	push	{r4, r5, lr}
 800463c:	f423 5380 	bic.w	r3, r3, #4096	; 0x1000
 8004640:	6203      	str	r3, [r0, #32]
 8004642:	6a03      	ldr	r3, [r0, #32]
 8004644:	6844      	ldr	r4, [r0, #4]
 8004646:	69c2      	ldr	r2, [r0, #28]
 8004648:	680d      	ldr	r5, [r1, #0]
 800464a:	f422 42e6 	bic.w	r2, r2, #29440	; 0x7300
 800464e:	ea42 2205 	orr.w	r2, r2, r5, lsl #8
 8004652:	688d      	ldr	r5, [r1, #8]
 8004654:	f423 5300 	bic.w	r3, r3, #8192	; 0x2000
 8004658:	ea43 3305 	orr.w	r3, r3, r5, lsl #12
 800465c:	4d08      	ldr	r5, [pc, #32]	; (8004680 <TIM_OC4_SetConfig+0x48>)
 800465e:	42a8      	cmp	r0, r5
 8004660:	d003      	beq.n	800466a <TIM_OC4_SetConfig+0x32>
 8004662:	f505 6580 	add.w	r5, r5, #1024	; 0x400
 8004666:	42a8      	cmp	r0, r5
 8004668:	d104      	bne.n	8004674 <TIM_OC4_SetConfig+0x3c>
 800466a:	694d      	ldr	r5, [r1, #20]
 800466c:	f424 4480 	bic.w	r4, r4, #16384	; 0x4000
 8004670:	ea44 1485 	orr.w	r4, r4, r5, lsl #6
 8004674:	6044      	str	r4, [r0, #4]
 8004676:	61c2      	str	r2, [r0, #28]
 8004678:	684a      	ldr	r2, [r1, #4]
 800467a:	6402      	str	r2, [r0, #64]	; 0x40
 800467c:	6203      	str	r3, [r0, #32]
 800467e:	bd30      	pop	{r4, r5, pc}
 8004680:	40010000 	.word	0x40010000

08004684 <HAL_TIM_PWM_MspInit>:
 8004684:	4770      	bx	lr
	...

08004688 <TIM_Base_SetConfig>:
 8004688:	4a30      	ldr	r2, [pc, #192]	; (800474c <TIM_Base_SetConfig+0xc4>)
 800468a:	6803      	ldr	r3, [r0, #0]
 800468c:	4290      	cmp	r0, r2
 800468e:	d012      	beq.n	80046b6 <TIM_Base_SetConfig+0x2e>
 8004690:	f1b0 4f80 	cmp.w	r0, #1073741824	; 0x40000000
 8004694:	d00f      	beq.n	80046b6 <TIM_Base_SetConfig+0x2e>
 8004696:	f5a2 427c 	sub.w	r2, r2, #64512	; 0xfc00
 800469a:	4290      	cmp	r0, r2
 800469c:	d00b      	beq.n	80046b6 <TIM_Base_SetConfig+0x2e>
 800469e:	f502 6280 	add.w	r2, r2, #1024	; 0x400
 80046a2:	4290      	cmp	r0, r2
 80046a4:	d007      	beq.n	80046b6 <TIM_Base_SetConfig+0x2e>
 80046a6:	f502 6280 	add.w	r2, r2, #1024	; 0x400
 80046aa:	4290      	cmp	r0, r2
 80046ac:	d003      	beq.n	80046b6 <TIM_Base_SetConfig+0x2e>
 80046ae:	f502 4278 	add.w	r2, r2, #63488	; 0xf800
 80046b2:	4290      	cmp	r0, r2
 80046b4:	d119      	bne.n	80046ea <TIM_Base_SetConfig+0x62>
 80046b6:	684a      	ldr	r2, [r1, #4]
 80046b8:	f023 0370 	bic.w	r3, r3, #112	; 0x70
 80046bc:	4313      	orrs	r3, r2
 80046be:	4a23      	ldr	r2, [pc, #140]	; (800474c <TIM_Base_SetConfig+0xc4>)
 80046c0:	4290      	cmp	r0, r2
 80046c2:	d029      	beq.n	8004718 <TIM_Base_SetConfig+0x90>
 80046c4:	f1b0 4f80 	cmp.w	r0, #1073741824	; 0x40000000
 80046c8:	d026      	beq.n	8004718 <TIM_Base_SetConfig+0x90>
 80046ca:	f5a2 427c 	sub.w	r2, r2, #64512	; 0xfc00
 80046ce:	4290      	cmp	r0, r2
 80046d0:	d022      	beq.n	8004718 <TIM_Base_SetConfig+0x90>
 80046d2:	f502 6280 	add.w	r2, r2, #1024	; 0x400
 80046d6:	4290      	cmp	r0, r2
 80046d8:	d01e      	beq.n	8004718 <TIM_Base_SetConfig+0x90>
 80046da:	f502 6280 	add.w	r2, r2, #1024	; 0x400
 80046de:	4290      	cmp	r0, r2
 80046e0:	d01a      	beq.n	8004718 <TIM_Base_SetConfig+0x90>
 80046e2:	f502 4278 	add.w	r2, r2, #63488	; 0xf800
 80046e6:	4290      	cmp	r0, r2
 80046e8:	d016      	beq.n	8004718 <TIM_Base_SetConfig+0x90>
 80046ea:	4a19      	ldr	r2, [pc, #100]	; (8004750 <TIM_Base_SetConfig+0xc8>)
 80046ec:	4290      	cmp	r0, r2
 80046ee:	d013      	beq.n	8004718 <TIM_Base_SetConfig+0x90>
 80046f0:	f502 6280 	add.w	r2, r2, #1024	; 0x400
 80046f4:	4290      	cmp	r0, r2
 80046f6:	d00f      	beq.n	8004718 <TIM_Base_SetConfig+0x90>
 80046f8:	f502 6280 	add.w	r2, r2, #1024	; 0x400
 80046fc:	4290      	cmp	r0, r2
 80046fe:	d00b      	beq.n	8004718 <TIM_Base_SetConfig+0x90>
 8004700:	f5a2 3298 	sub.w	r2, r2, #77824	; 0x13000
 8004704:	4290      	cmp	r0, r2
 8004706:	d007      	beq.n	8004718 <TIM_Base_SetConfig+0x90>
 8004708:	f502 6280 	add.w	r2, r2, #1024	; 0x400
 800470c:	4290      	cmp	r0, r2
 800470e:	d003      	beq.n	8004718 <TIM_Base_SetConfig+0x90>
 8004710:	f502 6280 	add.w	r2, r2, #1024	; 0x400
 8004714:	4290      	cmp	r0, r2
 8004716:	d103      	bne.n	8004720 <TIM_Base_SetConfig+0x98>
 8004718:	68ca      	ldr	r2, [r1, #12]
 800471a:	f423 7340 	bic.w	r3, r3, #768	; 0x300
 800471e:	4313      	orrs	r3, r2
 8004720:	694a      	ldr	r2, [r1, #20]
 8004722:	f023 0380 	bic.w	r3, r3, #128	; 0x80
 8004726:	4313      	orrs	r3, r2
 8004728:	6003      	str	r3, [r0, #0]
 800472a:	688b      	ldr	r3, [r1, #8]
 800472c:	62c3      	str	r3, [r0, #44]	; 0x2c
 800472e:	680b      	ldr	r3, [r1, #0]
 8004730:	6283      	str	r3, [r0, #40]	; 0x28
 8004732:	4b06      	ldr	r3, [pc, #24]	; (800474c <TIM_Base_SetConfig+0xc4>)
 8004734:	4298      	cmp	r0, r3
 8004736:	d003      	beq.n	8004740 <TIM_Base_SetConfig+0xb8>
 8004738:	f503 6380 	add.w	r3, r3, #1024	; 0x400
 800473c:	4298      	cmp	r0, r3
 800473e:	d101      	bne.n	8004744 <TIM_Base_SetConfig+0xbc>
 8004740:	690b      	ldr	r3, [r1, #16]
 8004742:	6303      	str	r3, [r0, #48]	; 0x30
 8004744:	2301      	movs	r3, #1
 8004746:	6143      	str	r3, [r0, #20]
 8004748:	4770      	bx	lr
 800474a:	bf00      	nop
 800474c:	40010000 	.word	0x40010000
 8004750:	40014000 	.word	0x40014000

08004754 <HAL_TIM_PWM_Init>:
 8004754:	b510      	push	{r4, lr}
 8004756:	4604      	mov	r4, r0
 8004758:	b330      	cbz	r0, 80047a8 <HAL_TIM_PWM_Init+0x54>
 800475a:	f890 303d 	ldrb.w	r3, [r0, #61]	; 0x3d
 800475e:	f003 02ff 	and.w	r2, r3, #255	; 0xff
 8004762:	b91b      	cbnz	r3, 800476c <HAL_TIM_PWM_Init+0x18>
 8004764:	f880 203c 	strb.w	r2, [r0, #60]	; 0x3c
 8004768:	f7ff ff8c 	bl	8004684 <HAL_TIM_PWM_MspInit>
 800476c:	2302      	movs	r3, #2
 800476e:	6820      	ldr	r0, [r4, #0]
 8004770:	f884 303d 	strb.w	r3, [r4, #61]	; 0x3d
 8004774:	1d21      	adds	r1, r4, #4
 8004776:	f7ff ff87 	bl	8004688 <TIM_Base_SetConfig>
 800477a:	2301      	movs	r3, #1
 800477c:	2000      	movs	r0, #0
 800477e:	f884 3046 	strb.w	r3, [r4, #70]	; 0x46
 8004782:	f884 303e 	strb.w	r3, [r4, #62]	; 0x3e
 8004786:	f884 303f 	strb.w	r3, [r4, #63]	; 0x3f
 800478a:	f884 3040 	strb.w	r3, [r4, #64]	; 0x40
 800478e:	f884 3041 	strb.w	r3, [r4, #65]	; 0x41
 8004792:	f884 3042 	strb.w	r3, [r4, #66]	; 0x42
 8004796:	f884 3043 	strb.w	r3, [r4, #67]	; 0x43
 800479a:	f884 3044 	strb.w	r3, [r4, #68]	; 0x44
 800479e:	f884 3045 	strb.w	r3, [r4, #69]	; 0x45
 80047a2:	f884 303d 	strb.w	r3, [r4, #61]	; 0x3d
 80047a6:	bd10      	pop	{r4, pc}
 80047a8:	2001      	movs	r0, #1
 80047aa:	e7fc      	b.n	80047a6 <HAL_TIM_PWM_Init+0x52>

080047ac <TIM_OC2_SetConfig>:
 80047ac:	6a03      	ldr	r3, [r0, #32]
 80047ae:	b570      	push	{r4, r5, r6, lr}
 80047b0:	f023 0310 	bic.w	r3, r3, #16
 80047b4:	6203      	str	r3, [r0, #32]
 80047b6:	6a03      	ldr	r3, [r0, #32]
 80047b8:	6844      	ldr	r4, [r0, #4]
 80047ba:	6982      	ldr	r2, [r0, #24]
 80047bc:	680d      	ldr	r5, [r1, #0]
 80047be:	f422 42e6 	bic.w	r2, r2, #29440	; 0x7300
 80047c2:	ea42 2205 	orr.w	r2, r2, r5, lsl #8
 80047c6:	688d      	ldr	r5, [r1, #8]
 80047c8:	f023 0320 	bic.w	r3, r3, #32
 80047cc:	ea43 1305 	orr.w	r3, r3, r5, lsl #4
 80047d0:	4d10      	ldr	r5, [pc, #64]	; (8004814 <TIM_OC2_SetConfig+0x68>)
 80047d2:	42a8      	cmp	r0, r5
 80047d4:	d003      	beq.n	80047de <TIM_OC2_SetConfig+0x32>
 80047d6:	f505 6580 	add.w	r5, r5, #1024	; 0x400
 80047da:	42a8      	cmp	r0, r5
 80047dc:	d114      	bne.n	8004808 <TIM_OC2_SetConfig+0x5c>
 80047de:	68cd      	ldr	r5, [r1, #12]
 80047e0:	f023 0380 	bic.w	r3, r3, #128	; 0x80
 80047e4:	ea43 1305 	orr.w	r3, r3, r5, lsl #4
 80047e8:	4d0a      	ldr	r5, [pc, #40]	; (8004814 <TIM_OC2_SetConfig+0x68>)
 80047ea:	f023 0340 	bic.w	r3, r3, #64	; 0x40
 80047ee:	42a8      	cmp	r0, r5
 80047f0:	d003      	beq.n	80047fa <TIM_OC2_SetConfig+0x4e>
 80047f2:	f505 6580 	add.w	r5, r5, #1024	; 0x400
 80047f6:	42a8      	cmp	r0, r5
 80047f8:	d106      	bne.n	8004808 <TIM_OC2_SetConfig+0x5c>
 80047fa:	e9d1 5605 	ldrd	r5, r6, [r1, #20]
 80047fe:	f424 6440 	bic.w	r4, r4, #3072	; 0xc00
 8004802:	4335      	orrs	r5, r6
 8004804:	ea44 0485 	orr.w	r4, r4, r5, lsl #2
 8004808:	6044      	str	r4, [r0, #4]
 800480a:	6182      	str	r2, [r0, #24]
 800480c:	684a      	ldr	r2, [r1, #4]
 800480e:	6382      	str	r2, [r0, #56]	; 0x38
 8004810:	6203      	str	r3, [r0, #32]
 8004812:	bd70      	pop	{r4, r5, r6, pc}
 8004814:	40010000 	.word	0x40010000

08004818 <HAL_TIM_PWM_ConfigChannel>:
 8004818:	b538      	push	{r3, r4, r5, lr}
 800481a:	f890 303c 	ldrb.w	r3, [r0, #60]	; 0x3c
 800481e:	4604      	mov	r4, r0
 8004820:	2b01      	cmp	r3, #1
 8004822:	d052      	beq.n	80048ca <HAL_TIM_PWM_ConfigChannel+0xb2>
 8004824:	2301      	movs	r3, #1
 8004826:	2a08      	cmp	r2, #8
 8004828:	f880 303c 	strb.w	r3, [r0, #60]	; 0x3c
 800482c:	d03c      	beq.n	80048a8 <HAL_TIM_PWM_ConfigChannel+0x90>
 800482e:	d806      	bhi.n	800483e <HAL_TIM_PWM_ConfigChannel+0x26>
 8004830:	b1c2      	cbz	r2, 8004864 <HAL_TIM_PWM_ConfigChannel+0x4c>
 8004832:	2a04      	cmp	r2, #4
 8004834:	d027      	beq.n	8004886 <HAL_TIM_PWM_ConfigChannel+0x6e>
 8004836:	2000      	movs	r0, #0
 8004838:	f884 003c 	strb.w	r0, [r4, #60]	; 0x3c
 800483c:	bd38      	pop	{r3, r4, r5, pc}
 800483e:	2a0c      	cmp	r2, #12
 8004840:	d1f9      	bne.n	8004836 <HAL_TIM_PWM_ConfigChannel+0x1e>
 8004842:	6800      	ldr	r0, [r0, #0]
 8004844:	f7ff fef8 	bl	8004638 <TIM_OC4_SetConfig>
 8004848:	6823      	ldr	r3, [r4, #0]
 800484a:	6909      	ldr	r1, [r1, #16]
 800484c:	69da      	ldr	r2, [r3, #28]
 800484e:	f442 6200 	orr.w	r2, r2, #2048	; 0x800
 8004852:	61da      	str	r2, [r3, #28]
 8004854:	69da      	ldr	r2, [r3, #28]
 8004856:	f422 6280 	bic.w	r2, r2, #1024	; 0x400
 800485a:	61da      	str	r2, [r3, #28]
 800485c:	69da      	ldr	r2, [r3, #28]
 800485e:	ea42 2201 	orr.w	r2, r2, r1, lsl #8
 8004862:	e030      	b.n	80048c6 <HAL_TIM_PWM_ConfigChannel+0xae>
 8004864:	6800      	ldr	r0, [r0, #0]
 8004866:	f7ff fe7f 	bl	8004568 <TIM_OC1_SetConfig>
 800486a:	6823      	ldr	r3, [r4, #0]
 800486c:	6909      	ldr	r1, [r1, #16]
 800486e:	699a      	ldr	r2, [r3, #24]
 8004870:	f042 0208 	orr.w	r2, r2, #8
 8004874:	619a      	str	r2, [r3, #24]
 8004876:	699a      	ldr	r2, [r3, #24]
 8004878:	f022 0204 	bic.w	r2, r2, #4
 800487c:	619a      	str	r2, [r3, #24]
 800487e:	699a      	ldr	r2, [r3, #24]
 8004880:	430a      	orrs	r2, r1
 8004882:	619a      	str	r2, [r3, #24]
 8004884:	e7d7      	b.n	8004836 <HAL_TIM_PWM_ConfigChannel+0x1e>
 8004886:	6800      	ldr	r0, [r0, #0]
 8004888:	f7ff ff90 	bl	80047ac <TIM_OC2_SetConfig>
 800488c:	6823      	ldr	r3, [r4, #0]
 800488e:	6909      	ldr	r1, [r1, #16]
 8004890:	699a      	ldr	r2, [r3, #24]
 8004892:	f442 6200 	orr.w	r2, r2, #2048	; 0x800
 8004896:	619a      	str	r2, [r3, #24]
 8004898:	699a      	ldr	r2, [r3, #24]
 800489a:	f422 6280 	bic.w	r2, r2, #1024	; 0x400
 800489e:	619a      	str	r2, [r3, #24]
 80048a0:	699a      	ldr	r2, [r3, #24]
 80048a2:	ea42 2201 	orr.w	r2, r2, r1, lsl #8
 80048a6:	e7ec      	b.n	8004882 <HAL_TIM_PWM_ConfigChannel+0x6a>
 80048a8:	6800      	ldr	r0, [r0, #0]
 80048aa:	f7ff fe8f 	bl	80045cc <TIM_OC3_SetConfig>
 80048ae:	6823      	ldr	r3, [r4, #0]
 80048b0:	6909      	ldr	r1, [r1, #16]
 80048b2:	69da      	ldr	r2, [r3, #28]
 80048b4:	f042 0208 	orr.w	r2, r2, #8
 80048b8:	61da      	str	r2, [r3, #28]
 80048ba:	69da      	ldr	r2, [r3, #28]
 80048bc:	f022 0204 	bic.w	r2, r2, #4
 80048c0:	61da      	str	r2, [r3, #28]
 80048c2:	69da      	ldr	r2, [r3, #28]
 80048c4:	430a      	orrs	r2, r1
 80048c6:	61da      	str	r2, [r3, #28]
 80048c8:	e7b5      	b.n	8004836 <HAL_TIM_PWM_ConfigChannel+0x1e>
 80048ca:	2002      	movs	r0, #2
 80048cc:	e7b6      	b.n	800483c <HAL_TIM_PWM_ConfigChannel+0x24>

080048ce <TIM_CCxChannelCmd>:
 80048ce:	b510      	push	{r4, lr}
 80048d0:	2401      	movs	r4, #1
 80048d2:	6a03      	ldr	r3, [r0, #32]
 80048d4:	f001 011f 	and.w	r1, r1, #31
 80048d8:	408c      	lsls	r4, r1
 80048da:	ea23 0304 	bic.w	r3, r3, r4
 80048de:	6203      	str	r3, [r0, #32]
 80048e0:	6a03      	ldr	r3, [r0, #32]
 80048e2:	408a      	lsls	r2, r1
 80048e4:	431a      	orrs	r2, r3
 80048e6:	6202      	str	r2, [r0, #32]
 80048e8:	bd10      	pop	{r4, pc}
	...

080048ec <HAL_TIM_OC_Start>:
 80048ec:	b510      	push	{r4, lr}
 80048ee:	4604      	mov	r4, r0
 80048f0:	b929      	cbnz	r1, 80048fe <HAL_TIM_OC_Start+0x12>
 80048f2:	f890 303e 	ldrb.w	r3, [r0, #62]	; 0x3e
 80048f6:	2b01      	cmp	r3, #1
 80048f8:	d01d      	beq.n	8004936 <HAL_TIM_OC_Start+0x4a>
 80048fa:	2001      	movs	r0, #1
 80048fc:	e032      	b.n	8004964 <HAL_TIM_OC_Start+0x78>
 80048fe:	2904      	cmp	r1, #4
 8004900:	d107      	bne.n	8004912 <HAL_TIM_OC_Start+0x26>
 8004902:	f890 303f 	ldrb.w	r3, [r0, #63]	; 0x3f
 8004906:	2b01      	cmp	r3, #1
 8004908:	d1f7      	bne.n	80048fa <HAL_TIM_OC_Start+0xe>
 800490a:	2302      	movs	r3, #2
 800490c:	f880 303f 	strb.w	r3, [r0, #63]	; 0x3f
 8004910:	e014      	b.n	800493c <HAL_TIM_OC_Start+0x50>
 8004912:	2908      	cmp	r1, #8
 8004914:	d107      	bne.n	8004926 <HAL_TIM_OC_Start+0x3a>
 8004916:	f890 3040 	ldrb.w	r3, [r0, #64]	; 0x40
 800491a:	2b01      	cmp	r3, #1
 800491c:	d1ed      	bne.n	80048fa <HAL_TIM_OC_Start+0xe>
 800491e:	2302      	movs	r3, #2
 8004920:	f880 3040 	strb.w	r3, [r0, #64]	; 0x40
 8004924:	e00a      	b.n	800493c <HAL_TIM_OC_Start+0x50>
 8004926:	f890 3041 	ldrb.w	r3, [r0, #65]	; 0x41
 800492a:	2b01      	cmp	r3, #1
 800492c:	d1e5      	bne.n	80048fa <HAL_TIM_OC_Start+0xe>
 800492e:	2302      	movs	r3, #2
 8004930:	f880 3041 	strb.w	r3, [r0, #65]	; 0x41
 8004934:	e002      	b.n	800493c <HAL_TIM_OC_Start+0x50>
 8004936:	2302      	movs	r3, #2
 8004938:	f880 303e 	strb.w	r3, [r0, #62]	; 0x3e
 800493c:	2201      	movs	r2, #1
 800493e:	6820      	ldr	r0, [r4, #0]
 8004940:	f7ff ffc5 	bl	80048ce <TIM_CCxChannelCmd>
 8004944:	6823      	ldr	r3, [r4, #0]
 8004946:	4a19      	ldr	r2, [pc, #100]	; (80049ac <HAL_TIM_OC_Start+0xc0>)
 8004948:	4293      	cmp	r3, r2
 800494a:	d00c      	beq.n	8004966 <HAL_TIM_OC_Start+0x7a>
 800494c:	4918      	ldr	r1, [pc, #96]	; (80049b0 <HAL_TIM_OC_Start+0xc4>)
 800494e:	428b      	cmp	r3, r1
 8004950:	d009      	beq.n	8004966 <HAL_TIM_OC_Start+0x7a>
 8004952:	f1b3 4f80 	cmp.w	r3, #1073741824	; 0x40000000
 8004956:	d10d      	bne.n	8004974 <HAL_TIM_OC_Start+0x88>
 8004958:	689a      	ldr	r2, [r3, #8]
 800495a:	f002 0207 	and.w	r2, r2, #7
 800495e:	2a06      	cmp	r2, #6
 8004960:	d11f      	bne.n	80049a2 <HAL_TIM_OC_Start+0xb6>
 8004962:	2000      	movs	r0, #0
 8004964:	bd10      	pop	{r4, pc}
 8004966:	6c59      	ldr	r1, [r3, #68]	; 0x44
 8004968:	4293      	cmp	r3, r2
 800496a:	f441 4100 	orr.w	r1, r1, #32768	; 0x8000
 800496e:	6459      	str	r1, [r3, #68]	; 0x44
 8004970:	d0f2      	beq.n	8004958 <HAL_TIM_OC_Start+0x6c>
 8004972:	e7ee      	b.n	8004952 <HAL_TIM_OC_Start+0x66>
 8004974:	4a0f      	ldr	r2, [pc, #60]	; (80049b4 <HAL_TIM_OC_Start+0xc8>)
 8004976:	4293      	cmp	r3, r2
 8004978:	d0ee      	beq.n	8004958 <HAL_TIM_OC_Start+0x6c>
 800497a:	f502 6280 	add.w	r2, r2, #1024	; 0x400
 800497e:	4293      	cmp	r3, r2
 8004980:	d0ea      	beq.n	8004958 <HAL_TIM_OC_Start+0x6c>
 8004982:	f502 6280 	add.w	r2, r2, #1024	; 0x400
 8004986:	4293      	cmp	r3, r2
 8004988:	d0e6      	beq.n	8004958 <HAL_TIM_OC_Start+0x6c>
 800498a:	f502 4278 	add.w	r2, r2, #63488	; 0xf800
 800498e:	4293      	cmp	r3, r2
 8004990:	d0e2      	beq.n	8004958 <HAL_TIM_OC_Start+0x6c>
 8004992:	f502 5270 	add.w	r2, r2, #15360	; 0x3c00
 8004996:	4293      	cmp	r3, r2
 8004998:	d0de      	beq.n	8004958 <HAL_TIM_OC_Start+0x6c>
 800499a:	f5a2 3294 	sub.w	r2, r2, #75776	; 0x12800
 800499e:	4293      	cmp	r3, r2
 80049a0:	d0da      	beq.n	8004958 <HAL_TIM_OC_Start+0x6c>
 80049a2:	681a      	ldr	r2, [r3, #0]
 80049a4:	f042 0201 	orr.w	r2, r2, #1
 80049a8:	601a      	str	r2, [r3, #0]
 80049aa:	e7da      	b.n	8004962 <HAL_TIM_OC_Start+0x76>
 80049ac:	40010000 	.word	0x40010000
 80049b0:	40010400 	.word	0x40010400
 80049b4:	40000400 	.word	0x40000400

080049b8 <HAL_TIM_PWM_Start>:
 80049b8:	f7ff bf98 	b.w	80048ec <HAL_TIM_OC_Start>

080049bc <HAL_TIMEx_MasterConfigSynchronization>:
 80049bc:	b530      	push	{r4, r5, lr}
 80049be:	f890 303c 	ldrb.w	r3, [r0, #60]	; 0x3c
 80049c2:	4602      	mov	r2, r0
 80049c4:	2b01      	cmp	r3, #1
 80049c6:	f04f 0002 	mov.w	r0, #2
 80049ca:	d032      	beq.n	8004a32 <HAL_TIMEx_MasterConfigSynchronization+0x76>
 80049cc:	6813      	ldr	r3, [r2, #0]
 80049ce:	f882 003d 	strb.w	r0, [r2, #61]	; 0x3d
 80049d2:	685c      	ldr	r4, [r3, #4]
 80049d4:	680d      	ldr	r5, [r1, #0]
 80049d6:	f024 0470 	bic.w	r4, r4, #112	; 0x70
 80049da:	432c      	orrs	r4, r5
 80049dc:	6898      	ldr	r0, [r3, #8]
 80049de:	605c      	str	r4, [r3, #4]
 80049e0:	4c14      	ldr	r4, [pc, #80]	; (8004a34 <HAL_TIMEx_MasterConfigSynchronization+0x78>)
 80049e2:	42a3      	cmp	r3, r4
 80049e4:	d01a      	beq.n	8004a1c <HAL_TIMEx_MasterConfigSynchronization+0x60>
 80049e6:	f1b3 4f80 	cmp.w	r3, #1073741824	; 0x40000000
 80049ea:	d017      	beq.n	8004a1c <HAL_TIMEx_MasterConfigSynchronization+0x60>
 80049ec:	f5a4 447c 	sub.w	r4, r4, #64512	; 0xfc00
 80049f0:	42a3      	cmp	r3, r4
 80049f2:	d013      	beq.n	8004a1c <HAL_TIMEx_MasterConfigSynchronization+0x60>
 80049f4:	f504 6480 	add.w	r4, r4, #1024	; 0x400
 80049f8:	42a3      	cmp	r3, r4
 80049fa:	d00f      	beq.n	8004a1c <HAL_TIMEx_MasterConfigSynchronization+0x60>
 80049fc:	f504 6480 	add.w	r4, r4, #1024	; 0x400
 8004a00:	42a3      	cmp	r3, r4
 8004a02:	d00b      	beq.n	8004a1c <HAL_TIMEx_MasterConfigSynchronization+0x60>
 8004a04:	f504 4478 	add.w	r4, r4, #63488	; 0xf800
 8004a08:	42a3      	cmp	r3, r4
 8004a0a:	d007      	beq.n	8004a1c <HAL_TIMEx_MasterConfigSynchronization+0x60>
 8004a0c:	f504 5470 	add.w	r4, r4, #15360	; 0x3c00
 8004a10:	42a3      	cmp	r3, r4
 8004a12:	d003      	beq.n	8004a1c <HAL_TIMEx_MasterConfigSynchronization+0x60>
 8004a14:	f5a4 3494 	sub.w	r4, r4, #75776	; 0x12800
 8004a18:	42a3      	cmp	r3, r4
 8004a1a:	d104      	bne.n	8004a26 <HAL_TIMEx_MasterConfigSynchronization+0x6a>
 8004a1c:	6849      	ldr	r1, [r1, #4]
 8004a1e:	f020 0080 	bic.w	r0, r0, #128	; 0x80
 8004a22:	4301      	orrs	r1, r0
 8004a24:	6099      	str	r1, [r3, #8]
 8004a26:	2301      	movs	r3, #1
 8004a28:	2000      	movs	r0, #0
 8004a2a:	f882 303d 	strb.w	r3, [r2, #61]	; 0x3d
 8004a2e:	f882 003c 	strb.w	r0, [r2, #60]	; 0x3c
 8004a32:	bd30      	pop	{r4, r5, pc}
 8004a34:	40010000 	.word	0x40010000

08004a38 <UART_EndRxTransfer>:
 8004a38:	6803      	ldr	r3, [r0, #0]
 8004a3a:	68da      	ldr	r2, [r3, #12]
 8004a3c:	f422 7290 	bic.w	r2, r2, #288	; 0x120
 8004a40:	60da      	str	r2, [r3, #12]
 8004a42:	695a      	ldr	r2, [r3, #20]
 8004a44:	f022 0201 	bic.w	r2, r2, #1
 8004a48:	615a      	str	r2, [r3, #20]
 8004a4a:	6b02      	ldr	r2, [r0, #48]	; 0x30
 8004a4c:	2a01      	cmp	r2, #1
 8004a4e:	bf02      	ittt	eq
 8004a50:	68da      	ldreq	r2, [r3, #12]
 8004a52:	f022 0210 	biceq.w	r2, r2, #16
 8004a56:	60da      	streq	r2, [r3, #12]
 8004a58:	2320      	movs	r3, #32
 8004a5a:	f880 303e 	strb.w	r3, [r0, #62]	; 0x3e
 8004a5e:	2300      	movs	r3, #0
 8004a60:	6303      	str	r3, [r0, #48]	; 0x30
 8004a62:	4770      	bx	lr

08004a64 <UART_SetConfig>:
 8004a64:	b510      	push	{r4, lr}
 8004a66:	4604      	mov	r4, r0
 8004a68:	6802      	ldr	r2, [r0, #0]
 8004a6a:	68c1      	ldr	r1, [r0, #12]
 8004a6c:	6913      	ldr	r3, [r2, #16]
 8004a6e:	f423 5340 	bic.w	r3, r3, #12288	; 0x3000
 8004a72:	430b      	orrs	r3, r1
 8004a74:	6113      	str	r3, [r2, #16]
 8004a76:	6883      	ldr	r3, [r0, #8]
 8004a78:	6900      	ldr	r0, [r0, #16]
 8004a7a:	68d1      	ldr	r1, [r2, #12]
 8004a7c:	4303      	orrs	r3, r0
 8004a7e:	6960      	ldr	r0, [r4, #20]
 8004a80:	f421 4116 	bic.w	r1, r1, #38400	; 0x9600
 8004a84:	4303      	orrs	r3, r0
 8004a86:	69e0      	ldr	r0, [r4, #28]
 8004a88:	f021 010c 	bic.w	r1, r1, #12
 8004a8c:	4303      	orrs	r3, r0
 8004a8e:	430b      	orrs	r3, r1
 8004a90:	60d3      	str	r3, [r2, #12]
 8004a92:	6953      	ldr	r3, [r2, #20]
 8004a94:	69a1      	ldr	r1, [r4, #24]
 8004a96:	f423 7340 	bic.w	r3, r3, #768	; 0x300
 8004a9a:	430b      	orrs	r3, r1
 8004a9c:	6153      	str	r3, [r2, #20]
 8004a9e:	4b1c      	ldr	r3, [pc, #112]	; (8004b10 <UART_SetConfig+0xac>)
 8004aa0:	429a      	cmp	r2, r3
 8004aa2:	d003      	beq.n	8004aac <UART_SetConfig+0x48>
 8004aa4:	f503 6380 	add.w	r3, r3, #1024	; 0x400
 8004aa8:	429a      	cmp	r2, r3
 8004aaa:	d120      	bne.n	8004aee <UART_SetConfig+0x8a>
 8004aac:	f7ff fd44 	bl	8004538 <HAL_RCC_GetPCLK2Freq>
 8004ab0:	2319      	movs	r3, #25
 8004ab2:	69e1      	ldr	r1, [r4, #28]
 8004ab4:	4343      	muls	r3, r0
 8004ab6:	e9d4 2000 	ldrd	r2, r0, [r4]
 8004aba:	f5b1 4f00 	cmp.w	r1, #32768	; 0x8000
 8004abe:	f04f 0164 	mov.w	r1, #100	; 0x64
 8004ac2:	d117      	bne.n	8004af4 <UART_SetConfig+0x90>
 8004ac4:	0040      	lsls	r0, r0, #1
 8004ac6:	fbb3 f0f0 	udiv	r0, r3, r0
 8004aca:	fbb0 f4f1 	udiv	r4, r0, r1
 8004ace:	fb01 0314 	mls	r3, r1, r4, r0
 8004ad2:	00db      	lsls	r3, r3, #3
 8004ad4:	3332      	adds	r3, #50	; 0x32
 8004ad6:	fbb3 f3f1 	udiv	r3, r3, r1
 8004ada:	f003 0107 	and.w	r1, r3, #7
 8004ade:	005b      	lsls	r3, r3, #1
 8004ae0:	eb01 1104 	add.w	r1, r1, r4, lsl #4
 8004ae4:	f403 73f8 	and.w	r3, r3, #496	; 0x1f0
 8004ae8:	440b      	add	r3, r1
 8004aea:	6093      	str	r3, [r2, #8]
 8004aec:	bd10      	pop	{r4, pc}
 8004aee:	f7ff fd0b 	bl	8004508 <HAL_RCC_GetPCLK1Freq>
 8004af2:	e7dd      	b.n	8004ab0 <UART_SetConfig+0x4c>
 8004af4:	0080      	lsls	r0, r0, #2
 8004af6:	fbb3 f0f0 	udiv	r0, r3, r0
 8004afa:	fbb0 f4f1 	udiv	r4, r0, r1
 8004afe:	fb01 0314 	mls	r3, r1, r4, r0
 8004b02:	011b      	lsls	r3, r3, #4
 8004b04:	3332      	adds	r3, #50	; 0x32
 8004b06:	fbb3 f3f1 	udiv	r3, r3, r1
 8004b0a:	eb03 1304 	add.w	r3, r3, r4, lsl #4
 8004b0e:	e7ec      	b.n	8004aea <UART_SetConfig+0x86>
 8004b10:	40011000 	.word	0x40011000

08004b14 <UART_WaitOnFlagUntilTimeout.constprop.0>:
 8004b14:	b5f8      	push	{r3, r4, r5, r6, r7, lr}
 8004b16:	4604      	mov	r4, r0
 8004b18:	460e      	mov	r6, r1
 8004b1a:	4617      	mov	r7, r2
 8004b1c:	461d      	mov	r5, r3
 8004b1e:	6822      	ldr	r2, [r4, #0]
 8004b20:	6813      	ldr	r3, [r2, #0]
 8004b22:	ea36 0303 	bics.w	r3, r6, r3
 8004b26:	d101      	bne.n	8004b2c <UART_WaitOnFlagUntilTimeout.constprop.0+0x18>
 8004b28:	2000      	movs	r0, #0
 8004b2a:	e014      	b.n	8004b56 <UART_WaitOnFlagUntilTimeout.constprop.0+0x42>
 8004b2c:	1c6b      	adds	r3, r5, #1
 8004b2e:	d0f7      	beq.n	8004b20 <UART_WaitOnFlagUntilTimeout.constprop.0+0xc>
 8004b30:	b995      	cbnz	r5, 8004b58 <UART_WaitOnFlagUntilTimeout.constprop.0+0x44>
 8004b32:	6823      	ldr	r3, [r4, #0]
 8004b34:	2003      	movs	r0, #3
 8004b36:	68da      	ldr	r2, [r3, #12]
 8004b38:	f422 72d0 	bic.w	r2, r2, #416	; 0x1a0
 8004b3c:	60da      	str	r2, [r3, #12]
 8004b3e:	695a      	ldr	r2, [r3, #20]
 8004b40:	f022 0201 	bic.w	r2, r2, #1
 8004b44:	615a      	str	r2, [r3, #20]
 8004b46:	2320      	movs	r3, #32
 8004b48:	f884 303d 	strb.w	r3, [r4, #61]	; 0x3d
 8004b4c:	f884 303e 	strb.w	r3, [r4, #62]	; 0x3e
 8004b50:	2300      	movs	r3, #0
 8004b52:	f884 303c 	strb.w	r3, [r4, #60]	; 0x3c
 8004b56:	bdf8      	pop	{r3, r4, r5, r6, r7, pc}
 8004b58:	f7fe fb3c 	bl	80031d4 <HAL_GetTick>
 8004b5c:	1bc0      	subs	r0, r0, r7
 8004b5e:	4285      	cmp	r5, r0
 8004b60:	d2dd      	bcs.n	8004b1e <UART_WaitOnFlagUntilTimeout.constprop.0+0xa>
 8004b62:	e7e6      	b.n	8004b32 <UART_WaitOnFlagUntilTimeout.constprop.0+0x1e>

08004b64 <HAL_UART_Init>:
 8004b64:	b510      	push	{r4, lr}
 8004b66:	4604      	mov	r4, r0
 8004b68:	b340      	cbz	r0, 8004bbc <HAL_UART_Init+0x58>
 8004b6a:	f890 303d 	ldrb.w	r3, [r0, #61]	; 0x3d
 8004b6e:	f003 02ff 	and.w	r2, r3, #255	; 0xff
 8004b72:	b91b      	cbnz	r3, 8004b7c <HAL_UART_Init+0x18>
 8004b74:	f880 203c 	strb.w	r2, [r0, #60]	; 0x3c
 8004b78:	f7fd fce8 	bl	800254c <HAL_UART_MspInit>
 8004b7c:	2324      	movs	r3, #36	; 0x24
 8004b7e:	6822      	ldr	r2, [r4, #0]
 8004b80:	f884 303d 	strb.w	r3, [r4, #61]	; 0x3d
 8004b84:	68d3      	ldr	r3, [r2, #12]
 8004b86:	4620      	mov	r0, r4
 8004b88:	f423 5300 	bic.w	r3, r3, #8192	; 0x2000
 8004b8c:	60d3      	str	r3, [r2, #12]
 8004b8e:	f7ff ff69 	bl	8004a64 <UART_SetConfig>
 8004b92:	6823      	ldr	r3, [r4, #0]
 8004b94:	2000      	movs	r0, #0
 8004b96:	691a      	ldr	r2, [r3, #16]
 8004b98:	f422 4290 	bic.w	r2, r2, #18432	; 0x4800
 8004b9c:	611a      	str	r2, [r3, #16]
 8004b9e:	695a      	ldr	r2, [r3, #20]
 8004ba0:	f022 022a 	bic.w	r2, r2, #42	; 0x2a
 8004ba4:	615a      	str	r2, [r3, #20]
 8004ba6:	68da      	ldr	r2, [r3, #12]
 8004ba8:	f442 5200 	orr.w	r2, r2, #8192	; 0x2000
 8004bac:	60da      	str	r2, [r3, #12]
 8004bae:	2320      	movs	r3, #32
 8004bb0:	6420      	str	r0, [r4, #64]	; 0x40
 8004bb2:	f884 303d 	strb.w	r3, [r4, #61]	; 0x3d
 8004bb6:	f884 303e 	strb.w	r3, [r4, #62]	; 0x3e
 8004bba:	bd10      	pop	{r4, pc}
 8004bbc:	2001      	movs	r0, #1
 8004bbe:	e7fc      	b.n	8004bba <HAL_UART_Init+0x56>

08004bc0 <HAL_UART_Transmit>:
 8004bc0:	e92d 43f8 	stmdb	sp!, {r3, r4, r5, r6, r7, r8, r9, lr}
 8004bc4:	4699      	mov	r9, r3
 8004bc6:	f890 303d 	ldrb.w	r3, [r0, #61]	; 0x3d
 8004bca:	4604      	mov	r4, r0
 8004bcc:	2b20      	cmp	r3, #32
 8004bce:	460e      	mov	r6, r1
 8004bd0:	4617      	mov	r7, r2
 8004bd2:	d148      	bne.n	8004c66 <HAL_UART_Transmit+0xa6>
 8004bd4:	2900      	cmp	r1, #0
 8004bd6:	d044      	beq.n	8004c62 <HAL_UART_Transmit+0xa2>
 8004bd8:	2a00      	cmp	r2, #0
 8004bda:	d042      	beq.n	8004c62 <HAL_UART_Transmit+0xa2>
 8004bdc:	f890 303c 	ldrb.w	r3, [r0, #60]	; 0x3c
 8004be0:	2b01      	cmp	r3, #1
 8004be2:	d040      	beq.n	8004c66 <HAL_UART_Transmit+0xa6>
 8004be4:	2301      	movs	r3, #1
 8004be6:	2500      	movs	r5, #0
 8004be8:	f880 303c 	strb.w	r3, [r0, #60]	; 0x3c
 8004bec:	2321      	movs	r3, #33	; 0x21
 8004bee:	6405      	str	r5, [r0, #64]	; 0x40
 8004bf0:	f880 303d 	strb.w	r3, [r0, #61]	; 0x3d
 8004bf4:	f7fe faee 	bl	80031d4 <HAL_GetTick>
 8004bf8:	68a3      	ldr	r3, [r4, #8]
 8004bfa:	4680      	mov	r8, r0
 8004bfc:	f5b3 5f80 	cmp.w	r3, #4096	; 0x1000
 8004c00:	84a7      	strh	r7, [r4, #36]	; 0x24
 8004c02:	84e7      	strh	r7, [r4, #38]	; 0x26
 8004c04:	d103      	bne.n	8004c0e <HAL_UART_Transmit+0x4e>
 8004c06:	6923      	ldr	r3, [r4, #16]
 8004c08:	b90b      	cbnz	r3, 8004c0e <HAL_UART_Transmit+0x4e>
 8004c0a:	4635      	mov	r5, r6
 8004c0c:	461e      	mov	r6, r3
 8004c0e:	2300      	movs	r3, #0
 8004c10:	f884 303c 	strb.w	r3, [r4, #60]	; 0x3c
 8004c14:	8ce3      	ldrh	r3, [r4, #38]	; 0x26
 8004c16:	b29b      	uxth	r3, r3
 8004c18:	b953      	cbnz	r3, 8004c30 <HAL_UART_Transmit+0x70>
 8004c1a:	464b      	mov	r3, r9
 8004c1c:	4642      	mov	r2, r8
 8004c1e:	2140      	movs	r1, #64	; 0x40
 8004c20:	4620      	mov	r0, r4
 8004c22:	f7ff ff77 	bl	8004b14 <UART_WaitOnFlagUntilTimeout.constprop.0>
 8004c26:	b950      	cbnz	r0, 8004c3e <HAL_UART_Transmit+0x7e>
 8004c28:	2320      	movs	r3, #32
 8004c2a:	f884 303d 	strb.w	r3, [r4, #61]	; 0x3d
 8004c2e:	e007      	b.n	8004c40 <HAL_UART_Transmit+0x80>
 8004c30:	464b      	mov	r3, r9
 8004c32:	4642      	mov	r2, r8
 8004c34:	2180      	movs	r1, #128	; 0x80
 8004c36:	4620      	mov	r0, r4
 8004c38:	f7ff ff6c 	bl	8004b14 <UART_WaitOnFlagUntilTimeout.constprop.0>
 8004c3c:	b110      	cbz	r0, 8004c44 <HAL_UART_Transmit+0x84>
 8004c3e:	2003      	movs	r0, #3
 8004c40:	e8bd 83f8 	ldmia.w	sp!, {r3, r4, r5, r6, r7, r8, r9, pc}
 8004c44:	6822      	ldr	r2, [r4, #0]
 8004c46:	b94e      	cbnz	r6, 8004c5c <HAL_UART_Transmit+0x9c>
 8004c48:	f835 3b02 	ldrh.w	r3, [r5], #2
 8004c4c:	f3c3 0308 	ubfx	r3, r3, #0, #9
 8004c50:	6053      	str	r3, [r2, #4]
 8004c52:	8ce1      	ldrh	r1, [r4, #38]	; 0x26
 8004c54:	3901      	subs	r1, #1
 8004c56:	b289      	uxth	r1, r1
 8004c58:	84e1      	strh	r1, [r4, #38]	; 0x26
 8004c5a:	e7db      	b.n	8004c14 <HAL_UART_Transmit+0x54>
 8004c5c:	f816 3b01 	ldrb.w	r3, [r6], #1
 8004c60:	e7f6      	b.n	8004c50 <HAL_UART_Transmit+0x90>
 8004c62:	2001      	movs	r0, #1
 8004c64:	e7ec      	b.n	8004c40 <HAL_UART_Transmit+0x80>
 8004c66:	2002      	movs	r0, #2
 8004c68:	e7ea      	b.n	8004c40 <HAL_UART_Transmit+0x80>
	...

08004c6c <HAL_UART_Transmit_DMA>:
 8004c6c:	b538      	push	{r3, r4, r5, lr}
 8004c6e:	4604      	mov	r4, r0
 8004c70:	4613      	mov	r3, r2
 8004c72:	f894 203d 	ldrb.w	r2, [r4, #61]	; 0x3d
 8004c76:	2a20      	cmp	r2, #32
 8004c78:	d12a      	bne.n	8004cd0 <HAL_UART_Transmit_DMA+0x64>
 8004c7a:	b339      	cbz	r1, 8004ccc <HAL_UART_Transmit_DMA+0x60>
 8004c7c:	b333      	cbz	r3, 8004ccc <HAL_UART_Transmit_DMA+0x60>
 8004c7e:	f894 203c 	ldrb.w	r2, [r4, #60]	; 0x3c
 8004c82:	2a01      	cmp	r2, #1
 8004c84:	d024      	beq.n	8004cd0 <HAL_UART_Transmit_DMA+0x64>
 8004c86:	2201      	movs	r2, #1
 8004c88:	2500      	movs	r5, #0
 8004c8a:	f884 203c 	strb.w	r2, [r4, #60]	; 0x3c
 8004c8e:	2221      	movs	r2, #33	; 0x21
 8004c90:	84e3      	strh	r3, [r4, #38]	; 0x26
 8004c92:	6b60      	ldr	r0, [r4, #52]	; 0x34
 8004c94:	6425      	str	r5, [r4, #64]	; 0x40
 8004c96:	f884 203d 	strb.w	r2, [r4, #61]	; 0x3d
 8004c9a:	4a0e      	ldr	r2, [pc, #56]	; (8004cd4 <HAL_UART_Transmit_DMA+0x68>)
 8004c9c:	84a3      	strh	r3, [r4, #36]	; 0x24
 8004c9e:	6221      	str	r1, [r4, #32]
 8004ca0:	63c2      	str	r2, [r0, #60]	; 0x3c
 8004ca2:	4a0d      	ldr	r2, [pc, #52]	; (8004cd8 <HAL_UART_Transmit_DMA+0x6c>)
 8004ca4:	6402      	str	r2, [r0, #64]	; 0x40
 8004ca6:	4a0d      	ldr	r2, [pc, #52]	; (8004cdc <HAL_UART_Transmit_DMA+0x70>)
 8004ca8:	e9c0 2513 	strd	r2, r5, [r0, #76]	; 0x4c
 8004cac:	6822      	ldr	r2, [r4, #0]
 8004cae:	3204      	adds	r2, #4
 8004cb0:	f7fe fba6 	bl	8003400 <HAL_DMA_Start_IT>
 8004cb4:	f06f 0240 	mvn.w	r2, #64	; 0x40
 8004cb8:	4628      	mov	r0, r5
 8004cba:	6823      	ldr	r3, [r4, #0]
 8004cbc:	601a      	str	r2, [r3, #0]
 8004cbe:	f884 503c 	strb.w	r5, [r4, #60]	; 0x3c
 8004cc2:	695a      	ldr	r2, [r3, #20]
 8004cc4:	f042 0280 	orr.w	r2, r2, #128	; 0x80
 8004cc8:	615a      	str	r2, [r3, #20]
 8004cca:	bd38      	pop	{r3, r4, r5, pc}
 8004ccc:	2001      	movs	r0, #1
 8004cce:	e7fc      	b.n	8004cca <HAL_UART_Transmit_DMA+0x5e>
 8004cd0:	2002      	movs	r0, #2
 8004cd2:	e7fa      	b.n	8004cca <HAL_UART_Transmit_DMA+0x5e>
 8004cd4:	08004ce3 	.word	0x08004ce3
 8004cd8:	08004d11 	.word	0x08004d11
 8004cdc:	08004d21 	.word	0x08004d21

08004ce0 <HAL_UART_TxCpltCallback>:
 8004ce0:	4770      	bx	lr

08004ce2 <UART_DMATransmitCplt>:
 8004ce2:	b508      	push	{r3, lr}
 8004ce4:	4603      	mov	r3, r0
 8004ce6:	681b      	ldr	r3, [r3, #0]
 8004ce8:	6b80      	ldr	r0, [r0, #56]	; 0x38
 8004cea:	681b      	ldr	r3, [r3, #0]
 8004cec:	f413 7380 	ands.w	r3, r3, #256	; 0x100
 8004cf0:	d10a      	bne.n	8004d08 <UART_DMATransmitCplt+0x26>
 8004cf2:	84c3      	strh	r3, [r0, #38]	; 0x26
 8004cf4:	6803      	ldr	r3, [r0, #0]
 8004cf6:	695a      	ldr	r2, [r3, #20]
 8004cf8:	f022 0280 	bic.w	r2, r2, #128	; 0x80
 8004cfc:	615a      	str	r2, [r3, #20]
 8004cfe:	68da      	ldr	r2, [r3, #12]
 8004d00:	f042 0240 	orr.w	r2, r2, #64	; 0x40
 8004d04:	60da      	str	r2, [r3, #12]
 8004d06:	bd08      	pop	{r3, pc}
 8004d08:	f7ff ffea 	bl	8004ce0 <HAL_UART_TxCpltCallback>
 8004d0c:	e7fb      	b.n	8004d06 <UART_DMATransmitCplt+0x24>

08004d0e <HAL_UART_TxHalfCpltCallback>:
 8004d0e:	4770      	bx	lr

08004d10 <UART_DMATxHalfCplt>:
 8004d10:	b508      	push	{r3, lr}
 8004d12:	6b80      	ldr	r0, [r0, #56]	; 0x38
 8004d14:	f7ff fffb 	bl	8004d0e <HAL_UART_TxHalfCpltCallback>
 8004d18:	bd08      	pop	{r3, pc}

08004d1a <HAL_UART_RxCpltCallback>:
 8004d1a:	4770      	bx	lr

08004d1c <HAL_UART_RxHalfCpltCallback>:
 8004d1c:	4770      	bx	lr

08004d1e <HAL_UART_ErrorCallback>:
 8004d1e:	4770      	bx	lr

08004d20 <UART_DMAError>:
 8004d20:	b508      	push	{r3, lr}
 8004d22:	6b80      	ldr	r0, [r0, #56]	; 0x38
 8004d24:	6803      	ldr	r3, [r0, #0]
 8004d26:	695a      	ldr	r2, [r3, #20]
 8004d28:	f890 103d 	ldrb.w	r1, [r0, #61]	; 0x3d
 8004d2c:	2921      	cmp	r1, #33	; 0x21
 8004d2e:	d10a      	bne.n	8004d46 <UART_DMAError+0x26>
 8004d30:	0612      	lsls	r2, r2, #24
 8004d32:	d508      	bpl.n	8004d46 <UART_DMAError+0x26>
 8004d34:	2200      	movs	r2, #0
 8004d36:	84c2      	strh	r2, [r0, #38]	; 0x26
 8004d38:	68da      	ldr	r2, [r3, #12]
 8004d3a:	f022 02c0 	bic.w	r2, r2, #192	; 0xc0
 8004d3e:	60da      	str	r2, [r3, #12]
 8004d40:	2220      	movs	r2, #32
 8004d42:	f880 203d 	strb.w	r2, [r0, #61]	; 0x3d
 8004d46:	695b      	ldr	r3, [r3, #20]
 8004d48:	f890 203e 	ldrb.w	r2, [r0, #62]	; 0x3e
 8004d4c:	2a22      	cmp	r2, #34	; 0x22
 8004d4e:	d105      	bne.n	8004d5c <UART_DMAError+0x3c>
 8004d50:	065b      	lsls	r3, r3, #25
 8004d52:	d503      	bpl.n	8004d5c <UART_DMAError+0x3c>
 8004d54:	2300      	movs	r3, #0
 8004d56:	85c3      	strh	r3, [r0, #46]	; 0x2e
 8004d58:	f7ff fe6e 	bl	8004a38 <UART_EndRxTransfer>
 8004d5c:	6c03      	ldr	r3, [r0, #64]	; 0x40
 8004d5e:	f043 0310 	orr.w	r3, r3, #16
 8004d62:	6403      	str	r3, [r0, #64]	; 0x40
 8004d64:	f7ff ffdb 	bl	8004d1e <HAL_UART_ErrorCallback>
 8004d68:	bd08      	pop	{r3, pc}

08004d6a <HAL_UARTEx_RxEventCallback>:
 8004d6a:	4770      	bx	lr

08004d6c <UART_DMARxHalfCplt>:
 8004d6c:	6b80      	ldr	r0, [r0, #56]	; 0x38
 8004d6e:	b508      	push	{r3, lr}
 8004d70:	6b03      	ldr	r3, [r0, #48]	; 0x30
 8004d72:	2b01      	cmp	r3, #1
 8004d74:	d104      	bne.n	8004d80 <UART_DMARxHalfCplt+0x14>
 8004d76:	8d81      	ldrh	r1, [r0, #44]	; 0x2c
 8004d78:	0849      	lsrs	r1, r1, #1
 8004d7a:	f7ff fff6 	bl	8004d6a <HAL_UARTEx_RxEventCallback>
 8004d7e:	bd08      	pop	{r3, pc}
 8004d80:	f7ff ffcc 	bl	8004d1c <HAL_UART_RxHalfCpltCallback>
 8004d84:	e7fb      	b.n	8004d7e <UART_DMARxHalfCplt+0x12>

08004d86 <UART_DMAReceiveCplt>:
 8004d86:	b508      	push	{r3, lr}
 8004d88:	4603      	mov	r3, r0
 8004d8a:	681b      	ldr	r3, [r3, #0]
 8004d8c:	6b80      	ldr	r0, [r0, #56]	; 0x38
 8004d8e:	681b      	ldr	r3, [r3, #0]
 8004d90:	f413 7380 	ands.w	r3, r3, #256	; 0x100
 8004d94:	d117      	bne.n	8004dc6 <UART_DMAReceiveCplt+0x40>
 8004d96:	85c3      	strh	r3, [r0, #46]	; 0x2e
 8004d98:	6803      	ldr	r3, [r0, #0]
 8004d9a:	68da      	ldr	r2, [r3, #12]
 8004d9c:	f422 7280 	bic.w	r2, r2, #256	; 0x100
 8004da0:	60da      	str	r2, [r3, #12]
 8004da2:	695a      	ldr	r2, [r3, #20]
 8004da4:	f022 0201 	bic.w	r2, r2, #1
 8004da8:	615a      	str	r2, [r3, #20]
 8004daa:	695a      	ldr	r2, [r3, #20]
 8004dac:	f022 0240 	bic.w	r2, r2, #64	; 0x40
 8004db0:	615a      	str	r2, [r3, #20]
 8004db2:	2220      	movs	r2, #32
 8004db4:	f880 203e 	strb.w	r2, [r0, #62]	; 0x3e
 8004db8:	6b02      	ldr	r2, [r0, #48]	; 0x30
 8004dba:	2a01      	cmp	r2, #1
 8004dbc:	bf02      	ittt	eq
 8004dbe:	68da      	ldreq	r2, [r3, #12]
 8004dc0:	f022 0210 	biceq.w	r2, r2, #16
 8004dc4:	60da      	streq	r2, [r3, #12]
 8004dc6:	6b03      	ldr	r3, [r0, #48]	; 0x30
 8004dc8:	2b01      	cmp	r3, #1
 8004dca:	d103      	bne.n	8004dd4 <UART_DMAReceiveCplt+0x4e>
 8004dcc:	8d81      	ldrh	r1, [r0, #44]	; 0x2c
 8004dce:	f7ff ffcc 	bl	8004d6a <HAL_UARTEx_RxEventCallback>
 8004dd2:	bd08      	pop	{r3, pc}
 8004dd4:	f7ff ffa1 	bl	8004d1a <HAL_UART_RxCpltCallback>
 8004dd8:	e7fb      	b.n	8004dd2 <UART_DMAReceiveCplt+0x4c>
	...

08004ddc <UART_Start_Receive_DMA>:
 8004ddc:	b573      	push	{r0, r1, r4, r5, r6, lr}
 8004dde:	4613      	mov	r3, r2
 8004de0:	2500      	movs	r5, #0
 8004de2:	8582      	strh	r2, [r0, #44]	; 0x2c
 8004de4:	2222      	movs	r2, #34	; 0x22
 8004de6:	4604      	mov	r4, r0
 8004de8:	6405      	str	r5, [r0, #64]	; 0x40
 8004dea:	6281      	str	r1, [r0, #40]	; 0x28
 8004dec:	f880 203e 	strb.w	r2, [r0, #62]	; 0x3e
 8004df0:	6b80      	ldr	r0, [r0, #56]	; 0x38
 8004df2:	4a12      	ldr	r2, [pc, #72]	; (8004e3c <UART_Start_Receive_DMA+0x60>)
 8004df4:	6826      	ldr	r6, [r4, #0]
 8004df6:	63c2      	str	r2, [r0, #60]	; 0x3c
 8004df8:	4a11      	ldr	r2, [pc, #68]	; (8004e40 <UART_Start_Receive_DMA+0x64>)
 8004dfa:	6402      	str	r2, [r0, #64]	; 0x40
 8004dfc:	4a11      	ldr	r2, [pc, #68]	; (8004e44 <UART_Start_Receive_DMA+0x68>)
 8004dfe:	e9c0 2513 	strd	r2, r5, [r0, #76]	; 0x4c
 8004e02:	460a      	mov	r2, r1
 8004e04:	1d31      	adds	r1, r6, #4
 8004e06:	f7fe fafb 	bl	8003400 <HAL_DMA_Start_IT>
 8004e0a:	4628      	mov	r0, r5
 8004e0c:	6823      	ldr	r3, [r4, #0]
 8004e0e:	9501      	str	r5, [sp, #4]
 8004e10:	681a      	ldr	r2, [r3, #0]
 8004e12:	9201      	str	r2, [sp, #4]
 8004e14:	685a      	ldr	r2, [r3, #4]
 8004e16:	f884 503c 	strb.w	r5, [r4, #60]	; 0x3c
 8004e1a:	9201      	str	r2, [sp, #4]
 8004e1c:	9a01      	ldr	r2, [sp, #4]
 8004e1e:	68da      	ldr	r2, [r3, #12]
 8004e20:	f442 7280 	orr.w	r2, r2, #256	; 0x100
 8004e24:	60da      	str	r2, [r3, #12]
 8004e26:	695a      	ldr	r2, [r3, #20]
 8004e28:	f042 0201 	orr.w	r2, r2, #1
 8004e2c:	615a      	str	r2, [r3, #20]
 8004e2e:	695a      	ldr	r2, [r3, #20]
 8004e30:	f042 0240 	orr.w	r2, r2, #64	; 0x40
 8004e34:	615a      	str	r2, [r3, #20]
 8004e36:	b002      	add	sp, #8
 8004e38:	bd70      	pop	{r4, r5, r6, pc}
 8004e3a:	bf00      	nop
 8004e3c:	08004d87 	.word	0x08004d87
 8004e40:	08004d6d 	.word	0x08004d6d
 8004e44:	08004d21 	.word	0x08004d21

08004e48 <HAL_UART_Receive_DMA>:
 8004e48:	b470      	push	{r4, r5, r6}
 8004e4a:	f890 603e 	ldrb.w	r6, [r0, #62]	; 0x3e
 8004e4e:	2e20      	cmp	r6, #32
 8004e50:	d110      	bne.n	8004e74 <HAL_UART_Receive_DMA+0x2c>
 8004e52:	b161      	cbz	r1, 8004e6e <HAL_UART_Receive_DMA+0x26>
 8004e54:	b15a      	cbz	r2, 8004e6e <HAL_UART_Receive_DMA+0x26>
 8004e56:	f890 403c 	ldrb.w	r4, [r0, #60]	; 0x3c
 8004e5a:	2c01      	cmp	r4, #1
 8004e5c:	d00a      	beq.n	8004e74 <HAL_UART_Receive_DMA+0x2c>
 8004e5e:	2401      	movs	r4, #1
 8004e60:	f880 403c 	strb.w	r4, [r0, #60]	; 0x3c
 8004e64:	2400      	movs	r4, #0
 8004e66:	6304      	str	r4, [r0, #48]	; 0x30
 8004e68:	bc70      	pop	{r4, r5, r6}
 8004e6a:	f7ff bfb7 	b.w	8004ddc <UART_Start_Receive_DMA>
 8004e6e:	2001      	movs	r0, #1
 8004e70:	bc70      	pop	{r4, r5, r6}
 8004e72:	4770      	bx	lr
 8004e74:	2002      	movs	r0, #2
 8004e76:	e7fb      	b.n	8004e70 <HAL_UART_Receive_DMA+0x28>

08004e78 <MX_LWIP_Init>:
 8004e78:	230a      	movs	r3, #10
 8004e7a:	b5f0      	push	{r4, r5, r6, r7, lr}
 8004e7c:	4c1d      	ldr	r4, [pc, #116]	; (8004ef4 <MX_LWIP_Init+0x7c>)
 8004e7e:	4e1e      	ldr	r6, [pc, #120]	; (8004ef8 <MX_LWIP_Init+0x80>)
 8004e80:	22ff      	movs	r2, #255	; 0xff
 8004e82:	2700      	movs	r7, #0
 8004e84:	7023      	strb	r3, [r4, #0]
 8004e86:	7063      	strb	r3, [r4, #1]
 8004e88:	7033      	strb	r3, [r6, #0]
 8004e8a:	7073      	strb	r3, [r6, #1]
 8004e8c:	70b3      	strb	r3, [r6, #2]
 8004e8e:	70f3      	strb	r3, [r6, #3]
 8004e90:	2301      	movs	r3, #1
 8004e92:	4d1a      	ldr	r5, [pc, #104]	; (8004efc <MX_LWIP_Init+0x84>)
 8004e94:	b085      	sub	sp, #20
 8004e96:	70e3      	strb	r3, [r4, #3]
 8004e98:	702a      	strb	r2, [r5, #0]
 8004e9a:	706a      	strb	r2, [r5, #1]
 8004e9c:	70aa      	strb	r2, [r5, #2]
 8004e9e:	70a7      	strb	r7, [r4, #2]
 8004ea0:	70ef      	strb	r7, [r5, #3]
 8004ea2:	f000 fa5e 	bl	8005362 <lwip_init>
 8004ea6:	4916      	ldr	r1, [pc, #88]	; (8004f00 <MX_LWIP_Init+0x88>)
 8004ea8:	6833      	ldr	r3, [r6, #0]
 8004eaa:	4a16      	ldr	r2, [pc, #88]	; (8004f04 <MX_LWIP_Init+0x8c>)
 8004eac:	600b      	str	r3, [r1, #0]
 8004eae:	682b      	ldr	r3, [r5, #0]
 8004eb0:	6820      	ldr	r0, [r4, #0]
 8004eb2:	6013      	str	r3, [r2, #0]
 8004eb4:	4b14      	ldr	r3, [pc, #80]	; (8004f08 <MX_LWIP_Init+0x90>)
 8004eb6:	4c15      	ldr	r4, [pc, #84]	; (8004f0c <MX_LWIP_Init+0x94>)
 8004eb8:	6018      	str	r0, [r3, #0]
 8004eba:	4815      	ldr	r0, [pc, #84]	; (8004f10 <MX_LWIP_Init+0x98>)
 8004ebc:	9002      	str	r0, [sp, #8]
 8004ebe:	4815      	ldr	r0, [pc, #84]	; (8004f14 <MX_LWIP_Init+0x9c>)
 8004ec0:	e9cd 7000 	strd	r7, r0, [sp]
 8004ec4:	4620      	mov	r0, r4
 8004ec6:	f000 fcfd 	bl	80058c4 <netif_add>
 8004eca:	4620      	mov	r0, r4
 8004ecc:	f000 fd3c 	bl	8005948 <netif_set_default>
 8004ed0:	f894 302f 	ldrb.w	r3, [r4, #47]	; 0x2f
 8004ed4:	4620      	mov	r0, r4
 8004ed6:	075b      	lsls	r3, r3, #29
 8004ed8:	d508      	bpl.n	8004eec <MX_LWIP_Init+0x74>
 8004eda:	f000 fd3b 	bl	8005954 <netif_set_up>
 8004ede:	490e      	ldr	r1, [pc, #56]	; (8004f18 <MX_LWIP_Init+0xa0>)
 8004ee0:	480a      	ldr	r0, [pc, #40]	; (8004f0c <MX_LWIP_Init+0x94>)
 8004ee2:	b005      	add	sp, #20
 8004ee4:	e8bd 40f0 	ldmia.w	sp!, {r4, r5, r6, r7, lr}
 8004ee8:	f000 bd50 	b.w	800598c <netif_set_link_callback>
 8004eec:	f000 fd41 	bl	8005972 <netif_set_down>
 8004ef0:	e7f5      	b.n	8004ede <MX_LWIP_Init+0x66>
 8004ef2:	bf00      	nop
 8004ef4:	20000564 	.word	0x20000564
 8004ef8:	20000570 	.word	0x20000570
 8004efc:	2000056c 	.word	0x2000056c
 8004f00:	20000568 	.word	0x20000568
 8004f04:	20000574 	.word	0x20000574
 8004f08:	20000578 	.word	0x20000578
 8004f0c:	200001e8 	.word	0x200001e8
 8004f10:	0800a3b5 	.word	0x0800a3b5
 8004f14:	08005189 	.word	0x08005189
 8004f18:	080052b1 	.word	0x080052b1

08004f1c <low_level_output>:
 8004f1c:	e92d 4ff7 	stmdb	sp!, {r0, r1, r2, r4, r5, r6, r7, r8, r9, sl, fp, lr}
 8004f20:	2700      	movs	r7, #0
 8004f22:	4b25      	ldr	r3, [pc, #148]	; (8004fb8 <low_level_output+0x9c>)
 8004f24:	460c      	mov	r4, r1
 8004f26:	463e      	mov	r6, r7
 8004f28:	4698      	mov	r8, r3
 8004f2a:	f240 5af4 	movw	sl, #1524	; 0x5f4
 8004f2e:	6add      	ldr	r5, [r3, #44]	; 0x2c
 8004f30:	f8d5 b008 	ldr.w	fp, [r5, #8]
 8004f34:	b92c      	cbnz	r4, 8004f42 <low_level_output+0x26>
 8004f36:	4631      	mov	r1, r6
 8004f38:	481f      	ldr	r0, [pc, #124]	; (8004fb8 <low_level_output+0x9c>)
 8004f3a:	f7fe fc71 	bl	8003820 <HAL_ETH_TransmitFrame>
 8004f3e:	4620      	mov	r0, r4
 8004f40:	e004      	b.n	8004f4c <low_level_output+0x30>
 8004f42:	682b      	ldr	r3, [r5, #0]
 8004f44:	2b00      	cmp	r3, #0
 8004f46:	da11      	bge.n	8004f6c <low_level_output+0x50>
 8004f48:	f06f 0007 	mvn.w	r0, #7
 8004f4c:	f241 0214 	movw	r2, #4116	; 0x1014
 8004f50:	f8d8 3000 	ldr.w	r3, [r8]
 8004f54:	5899      	ldr	r1, [r3, r2]
 8004f56:	0689      	lsls	r1, r1, #26
 8004f58:	d505      	bpl.n	8004f66 <low_level_output+0x4a>
 8004f5a:	2120      	movs	r1, #32
 8004f5c:	5099      	str	r1, [r3, r2]
 8004f5e:	f241 0204 	movw	r2, #4100	; 0x1004
 8004f62:	2100      	movs	r1, #0
 8004f64:	5099      	str	r1, [r3, r2]
 8004f66:	b003      	add	sp, #12
 8004f68:	e8bd 8ff0 	ldmia.w	sp!, {r4, r5, r6, r7, r8, r9, sl, fp, pc}
 8004f6c:	463b      	mov	r3, r7
 8004f6e:	f04f 0900 	mov.w	r9, #0
 8004f72:	8962      	ldrh	r2, [r4, #10]
 8004f74:	6861      	ldr	r1, [r4, #4]
 8004f76:	189f      	adds	r7, r3, r2
 8004f78:	4557      	cmp	r7, sl
 8004f7a:	eb0b 0003 	add.w	r0, fp, r3
 8004f7e:	4449      	add	r1, r9
 8004f80:	d806      	bhi.n	8004f90 <low_level_output+0x74>
 8004f82:	9201      	str	r2, [sp, #4]
 8004f84:	f005 fba2 	bl	800a6cc <memcpy>
 8004f88:	9a01      	ldr	r2, [sp, #4]
 8004f8a:	6824      	ldr	r4, [r4, #0]
 8004f8c:	4416      	add	r6, r2
 8004f8e:	e7d1      	b.n	8004f34 <low_level_output+0x18>
 8004f90:	ebaa 0303 	sub.w	r3, sl, r3
 8004f94:	461a      	mov	r2, r3
 8004f96:	9301      	str	r3, [sp, #4]
 8004f98:	f005 fb98 	bl	800a6cc <memcpy>
 8004f9c:	68ed      	ldr	r5, [r5, #12]
 8004f9e:	682a      	ldr	r2, [r5, #0]
 8004fa0:	2a00      	cmp	r2, #0
 8004fa2:	dbd1      	blt.n	8004f48 <low_level_output+0x2c>
 8004fa4:	9b01      	ldr	r3, [sp, #4]
 8004fa6:	f8d5 b008 	ldr.w	fp, [r5, #8]
 8004faa:	4499      	add	r9, r3
 8004fac:	441e      	add	r6, r3
 8004fae:	f2a7 52f4 	subw	r2, r7, #1524	; 0x5f4
 8004fb2:	2300      	movs	r3, #0
 8004fb4:	e7de      	b.n	8004f74 <low_level_output+0x58>
 8004fb6:	bf00      	nop
 8004fb8:	20001e4c 	.word	0x20001e4c

08004fbc <HAL_ETH_MspInit>:
 8004fbc:	b5f0      	push	{r4, r5, r6, r7, lr}
 8004fbe:	4604      	mov	r4, r0
 8004fc0:	b08d      	sub	sp, #52	; 0x34
 8004fc2:	2214      	movs	r2, #20
 8004fc4:	2100      	movs	r1, #0
 8004fc6:	a807      	add	r0, sp, #28
 8004fc8:	f005 fba8 	bl	800a71c <memset>
 8004fcc:	6822      	ldr	r2, [r4, #0]
 8004fce:	4b33      	ldr	r3, [pc, #204]	; (800509c <HAL_ETH_MspInit+0xe0>)
 8004fd0:	429a      	cmp	r2, r3
 8004fd2:	d160      	bne.n	8005096 <HAL_ETH_MspInit+0xda>
 8004fd4:	2400      	movs	r4, #0
 8004fd6:	f5a3 4390 	sub.w	r3, r3, #18432	; 0x4800
 8004fda:	9401      	str	r4, [sp, #4]
 8004fdc:	6b1a      	ldr	r2, [r3, #48]	; 0x30
 8004fde:	2702      	movs	r7, #2
 8004fe0:	f042 7200 	orr.w	r2, r2, #33554432	; 0x2000000
 8004fe4:	631a      	str	r2, [r3, #48]	; 0x30
 8004fe6:	6b1a      	ldr	r2, [r3, #48]	; 0x30
 8004fe8:	2603      	movs	r6, #3
 8004fea:	f002 7200 	and.w	r2, r2, #33554432	; 0x2000000
 8004fee:	9201      	str	r2, [sp, #4]
 8004ff0:	9a01      	ldr	r2, [sp, #4]
 8004ff2:	9402      	str	r4, [sp, #8]
 8004ff4:	6b1a      	ldr	r2, [r3, #48]	; 0x30
 8004ff6:	250b      	movs	r5, #11
 8004ff8:	f042 6280 	orr.w	r2, r2, #67108864	; 0x4000000
 8004ffc:	631a      	str	r2, [r3, #48]	; 0x30
 8004ffe:	6b1a      	ldr	r2, [r3, #48]	; 0x30
 8005000:	4827      	ldr	r0, [pc, #156]	; (80050a0 <HAL_ETH_MspInit+0xe4>)
 8005002:	f002 6280 	and.w	r2, r2, #67108864	; 0x4000000
 8005006:	9202      	str	r2, [sp, #8]
 8005008:	9a02      	ldr	r2, [sp, #8]
 800500a:	9403      	str	r4, [sp, #12]
 800500c:	6b1a      	ldr	r2, [r3, #48]	; 0x30
 800500e:	a907      	add	r1, sp, #28
 8005010:	f042 6200 	orr.w	r2, r2, #134217728	; 0x8000000
 8005014:	631a      	str	r2, [r3, #48]	; 0x30
 8005016:	6b1a      	ldr	r2, [r3, #48]	; 0x30
 8005018:	f002 6200 	and.w	r2, r2, #134217728	; 0x8000000
 800501c:	9203      	str	r2, [sp, #12]
 800501e:	9a03      	ldr	r2, [sp, #12]
 8005020:	9404      	str	r4, [sp, #16]
 8005022:	6b1a      	ldr	r2, [r3, #48]	; 0x30
 8005024:	f042 0204 	orr.w	r2, r2, #4
 8005028:	631a      	str	r2, [r3, #48]	; 0x30
 800502a:	6b1a      	ldr	r2, [r3, #48]	; 0x30
 800502c:	f002 0204 	and.w	r2, r2, #4
 8005030:	9204      	str	r2, [sp, #16]
 8005032:	9a04      	ldr	r2, [sp, #16]
 8005034:	9405      	str	r4, [sp, #20]
 8005036:	6b1a      	ldr	r2, [r3, #48]	; 0x30
 8005038:	f042 0201 	orr.w	r2, r2, #1
 800503c:	631a      	str	r2, [r3, #48]	; 0x30
 800503e:	6b1a      	ldr	r2, [r3, #48]	; 0x30
 8005040:	f002 0201 	and.w	r2, r2, #1
 8005044:	9205      	str	r2, [sp, #20]
 8005046:	9a05      	ldr	r2, [sp, #20]
 8005048:	9406      	str	r4, [sp, #24]
 800504a:	6b1a      	ldr	r2, [r3, #48]	; 0x30
 800504c:	f042 0202 	orr.w	r2, r2, #2
 8005050:	631a      	str	r2, [r3, #48]	; 0x30
 8005052:	6b1b      	ldr	r3, [r3, #48]	; 0x30
 8005054:	e9cd 650a 	strd	r6, r5, [sp, #40]	; 0x28
 8005058:	f003 0302 	and.w	r3, r3, #2
 800505c:	9306      	str	r3, [sp, #24]
 800505e:	9b06      	ldr	r3, [sp, #24]
 8005060:	2332      	movs	r3, #50	; 0x32
 8005062:	9409      	str	r4, [sp, #36]	; 0x24
 8005064:	e9cd 3707 	strd	r3, r7, [sp, #28]
 8005068:	f7fe fef0 	bl	8003e4c <HAL_GPIO_Init>
 800506c:	2386      	movs	r3, #134	; 0x86
 800506e:	480d      	ldr	r0, [pc, #52]	; (80050a4 <HAL_ETH_MspInit+0xe8>)
 8005070:	a907      	add	r1, sp, #28
 8005072:	e9cd 3707 	strd	r3, r7, [sp, #28]
 8005076:	e9cd 4609 	strd	r4, r6, [sp, #36]	; 0x24
 800507a:	950b      	str	r5, [sp, #44]	; 0x2c
 800507c:	f7fe fee6 	bl	8003e4c <HAL_GPIO_Init>
 8005080:	f44f 5360 	mov.w	r3, #14336	; 0x3800
 8005084:	4808      	ldr	r0, [pc, #32]	; (80050a8 <HAL_ETH_MspInit+0xec>)
 8005086:	a907      	add	r1, sp, #28
 8005088:	e9cd 3707 	strd	r3, r7, [sp, #28]
 800508c:	e9cd 4609 	strd	r4, r6, [sp, #36]	; 0x24
 8005090:	950b      	str	r5, [sp, #44]	; 0x2c
 8005092:	f7fe fedb 	bl	8003e4c <HAL_GPIO_Init>
 8005096:	b00d      	add	sp, #52	; 0x34
 8005098:	bdf0      	pop	{r4, r5, r6, r7, pc}
 800509a:	bf00      	nop
 800509c:	40028000 	.word	0x40028000
 80050a0:	40020800 	.word	0x40020800
 80050a4:	40020000 	.word	0x40020000
 80050a8:	40020400 	.word	0x40020400

080050ac <ethernetif_input>:
 80050ac:	e92d 4ff7 	stmdb	sp!, {r0, r1, r2, r4, r5, r6, r7, r8, r9, sl, fp, lr}
 80050b0:	4c34      	ldr	r4, [pc, #208]	; (8005184 <ethernetif_input+0xd8>)
 80050b2:	4680      	mov	r8, r0
 80050b4:	4620      	mov	r0, r4
 80050b6:	f7fe fc29 	bl	800390c <HAL_ETH_GetReceivedFrame>
 80050ba:	4605      	mov	r5, r0
 80050bc:	2800      	cmp	r0, #0
 80050be:	d15d      	bne.n	800517c <ethernetif_input+0xd0>
 80050c0:	8fa1      	ldrh	r1, [r4, #60]	; 0x3c
 80050c2:	bb09      	cbnz	r1, 8005108 <ethernetif_input+0x5c>
 80050c4:	2600      	movs	r6, #0
 80050c6:	2200      	movs	r2, #0
 80050c8:	6b23      	ldr	r3, [r4, #48]	; 0x30
 80050ca:	6ba0      	ldr	r0, [r4, #56]	; 0x38
 80050cc:	4282      	cmp	r2, r0
 80050ce:	d14e      	bne.n	800516e <ethernetif_input+0xc2>
 80050d0:	f241 0114 	movw	r1, #4116	; 0x1014
 80050d4:	6823      	ldr	r3, [r4, #0]
 80050d6:	2200      	movs	r2, #0
 80050d8:	5858      	ldr	r0, [r3, r1]
 80050da:	63a2      	str	r2, [r4, #56]	; 0x38
 80050dc:	0600      	lsls	r0, r0, #24
 80050de:	bf41      	itttt	mi
 80050e0:	2080      	movmi	r0, #128	; 0x80
 80050e2:	5058      	strmi	r0, [r3, r1]
 80050e4:	f241 0108 	movwmi	r1, #4104	; 0x1008
 80050e8:	505a      	strmi	r2, [r3, r1]
 80050ea:	2e00      	cmp	r6, #0
 80050ec:	d046      	beq.n	800517c <ethernetif_input+0xd0>
 80050ee:	4641      	mov	r1, r8
 80050f0:	4630      	mov	r0, r6
 80050f2:	f8d8 3010 	ldr.w	r3, [r8, #16]
 80050f6:	4798      	blx	r3
 80050f8:	2800      	cmp	r0, #0
 80050fa:	d03f      	beq.n	800517c <ethernetif_input+0xd0>
 80050fc:	4630      	mov	r0, r6
 80050fe:	b003      	add	sp, #12
 8005100:	e8bd 4ff0 	ldmia.w	sp!, {r4, r5, r6, r7, r8, r9, sl, fp, lr}
 8005104:	f000 bcde 	b.w	8005ac4 <pbuf_free>
 8005108:	2203      	movs	r2, #3
 800510a:	2004      	movs	r0, #4
 800510c:	6c27      	ldr	r7, [r4, #64]	; 0x40
 800510e:	f000 fd3d 	bl	8005b8c <pbuf_alloc>
 8005112:	4606      	mov	r6, r0
 8005114:	2800      	cmp	r0, #0
 8005116:	d0d5      	beq.n	80050c4 <ethernetif_input+0x18>
 8005118:	46b9      	mov	r9, r7
 800511a:	f240 5bf4 	movw	fp, #1524	; 0x5f4
 800511e:	4607      	mov	r7, r0
 8005120:	f8d4 a030 	ldr.w	sl, [r4, #48]	; 0x30
 8005124:	46ac      	mov	ip, r5
 8005126:	2300      	movs	r3, #0
 8005128:	f8b7 e00a 	ldrh.w	lr, [r7, #10]
 800512c:	6878      	ldr	r0, [r7, #4]
 800512e:	eb0c 050e 	add.w	r5, ip, lr
 8005132:	455d      	cmp	r5, fp
 8005134:	4418      	add	r0, r3
 8005136:	eb09 010c 	add.w	r1, r9, ip
 800513a:	d806      	bhi.n	800514a <ethernetif_input+0x9e>
 800513c:	4672      	mov	r2, lr
 800513e:	f005 fac5 	bl	800a6cc <memcpy>
 8005142:	683f      	ldr	r7, [r7, #0]
 8005144:	2f00      	cmp	r7, #0
 8005146:	d1ed      	bne.n	8005124 <ethernetif_input+0x78>
 8005148:	e7bd      	b.n	80050c6 <ethernetif_input+0x1a>
 800514a:	ebab 020c 	sub.w	r2, fp, ip
 800514e:	9301      	str	r3, [sp, #4]
 8005150:	9200      	str	r2, [sp, #0]
 8005152:	f005 fabb 	bl	800a6cc <memcpy>
 8005156:	e9dd 2300 	ldrd	r2, r3, [sp]
 800515a:	f8da a00c 	ldr.w	sl, [sl, #12]
 800515e:	f04f 0c00 	mov.w	ip, #0
 8005162:	f8da 9008 	ldr.w	r9, [sl, #8]
 8005166:	f2a5 5ef4 	subw	lr, r5, #1524	; 0x5f4
 800516a:	4413      	add	r3, r2
 800516c:	e7de      	b.n	800512c <ethernetif_input+0x80>
 800516e:	6819      	ldr	r1, [r3, #0]
 8005170:	3201      	adds	r2, #1
 8005172:	f041 4100 	orr.w	r1, r1, #2147483648	; 0x80000000
 8005176:	6019      	str	r1, [r3, #0]
 8005178:	68db      	ldr	r3, [r3, #12]
 800517a:	e7a7      	b.n	80050cc <ethernetif_input+0x20>
 800517c:	b003      	add	sp, #12
 800517e:	e8bd 8ff0 	ldmia.w	sp!, {r4, r5, r6, r7, r8, r9, sl, fp, pc}
 8005182:	bf00      	nop
 8005184:	20001e4c 	.word	0x20001e4c

08005188 <ethernetif_init>:
 8005188:	b530      	push	{r4, r5, lr}
 800518a:	4604      	mov	r4, r0
 800518c:	b085      	sub	sp, #20
 800518e:	b930      	cbnz	r0, 800519e <ethernetif_init+0x16>
 8005190:	f44f 7202 	mov.w	r2, #520	; 0x208
 8005194:	4b38      	ldr	r3, [pc, #224]	; (8005278 <ethernetif_init+0xf0>)
 8005196:	4939      	ldr	r1, [pc, #228]	; (800527c <ethernetif_init+0xf4>)
 8005198:	4839      	ldr	r0, [pc, #228]	; (8005280 <ethernetif_init+0xf8>)
 800519a:	f005 fb6d 	bl	800a878 <iprintf>
 800519e:	f247 4373 	movw	r3, #29811	; 0x7473
 80051a2:	8623      	strh	r3, [r4, #48]	; 0x30
 80051a4:	4b37      	ldr	r3, [pc, #220]	; (8005284 <ethernetif_init+0xfc>)
 80051a6:	2201      	movs	r2, #1
 80051a8:	6163      	str	r3, [r4, #20]
 80051aa:	4b37      	ldr	r3, [pc, #220]	; (8005288 <ethernetif_init+0x100>)
 80051ac:	4d37      	ldr	r5, [pc, #220]	; (800528c <ethernetif_init+0x104>)
 80051ae:	61a3      	str	r3, [r4, #24]
 80051b0:	2300      	movs	r3, #0
 80051b2:	4937      	ldr	r1, [pc, #220]	; (8005290 <ethernetif_init+0x108>)
 80051b4:	822a      	strh	r2, [r5, #16]
 80051b6:	e9c5 1200 	strd	r1, r2, [r5]
 80051ba:	4a36      	ldr	r2, [pc, #216]	; (8005294 <ethernetif_init+0x10c>)
 80051bc:	f44f 4080 	mov.w	r0, #16384	; 0x4000
 80051c0:	f44f 6100 	mov.w	r1, #2048	; 0x800
 80051c4:	9202      	str	r2, [sp, #8]
 80051c6:	aa02      	add	r2, sp, #8
 80051c8:	e9c5 2305 	strd	r2, r3, [r5, #20]
 80051cc:	9301      	str	r3, [sp, #4]
 80051ce:	f8ad 300c 	strh.w	r3, [sp, #12]
 80051d2:	61eb      	str	r3, [r5, #28]
 80051d4:	f44f 0300 	mov.w	r3, #8388608	; 0x800000
 80051d8:	e9c5 0102 	strd	r0, r1, [r5, #8]
 80051dc:	4628      	mov	r0, r5
 80051de:	622b      	str	r3, [r5, #32]
 80051e0:	f7fe fc44 	bl	8003a6c <HAL_ETH_Init>
 80051e4:	b928      	cbnz	r0, 80051f2 <ethernetif_init+0x6a>
 80051e6:	f894 302f 	ldrb.w	r3, [r4, #47]	; 0x2f
 80051ea:	f043 0304 	orr.w	r3, r3, #4
 80051ee:	f884 302f 	strb.w	r3, [r4, #47]	; 0x2f
 80051f2:	2304      	movs	r3, #4
 80051f4:	4a28      	ldr	r2, [pc, #160]	; (8005298 <ethernetif_init+0x110>)
 80051f6:	4929      	ldr	r1, [pc, #164]	; (800529c <ethernetif_init+0x114>)
 80051f8:	4824      	ldr	r0, [pc, #144]	; (800528c <ethernetif_init+0x104>)
 80051fa:	f7fe fa9b 	bl	8003734 <HAL_ETH_DMATxDescListInit>
 80051fe:	4928      	ldr	r1, [pc, #160]	; (80052a0 <ethernetif_init+0x118>)
 8005200:	2304      	movs	r3, #4
 8005202:	4a28      	ldr	r2, [pc, #160]	; (80052a4 <ethernetif_init+0x11c>)
 8005204:	4821      	ldr	r0, [pc, #132]	; (800528c <ethernetif_init+0x104>)
 8005206:	f7fe fad1 	bl	80037ac <HAL_ETH_DMARxDescListInit>
 800520a:	2306      	movs	r3, #6
 800520c:	f884 3028 	strb.w	r3, [r4, #40]	; 0x28
 8005210:	696b      	ldr	r3, [r5, #20]
 8005212:	481e      	ldr	r0, [pc, #120]	; (800528c <ethernetif_init+0x104>)
 8005214:	781a      	ldrb	r2, [r3, #0]
 8005216:	f884 2029 	strb.w	r2, [r4, #41]	; 0x29
 800521a:	785a      	ldrb	r2, [r3, #1]
 800521c:	f884 202a 	strb.w	r2, [r4, #42]	; 0x2a
 8005220:	789a      	ldrb	r2, [r3, #2]
 8005222:	f884 202b 	strb.w	r2, [r4, #43]	; 0x2b
 8005226:	78da      	ldrb	r2, [r3, #3]
 8005228:	f884 202c 	strb.w	r2, [r4, #44]	; 0x2c
 800522c:	791a      	ldrb	r2, [r3, #4]
 800522e:	f884 202d 	strb.w	r2, [r4, #45]	; 0x2d
 8005232:	795b      	ldrb	r3, [r3, #5]
 8005234:	f884 302e 	strb.w	r3, [r4, #46]	; 0x2e
 8005238:	f240 53dc 	movw	r3, #1500	; 0x5dc
 800523c:	84e3      	strh	r3, [r4, #38]	; 0x26
 800523e:	f894 302f 	ldrb.w	r3, [r4, #47]	; 0x2f
 8005242:	f043 030a 	orr.w	r3, r3, #10
 8005246:	f884 302f 	strb.w	r3, [r4, #47]	; 0x2f
 800524a:	f7fe fd01 	bl	8003c50 <HAL_ETH_Start>
 800524e:	aa01      	add	r2, sp, #4
 8005250:	211d      	movs	r1, #29
 8005252:	480e      	ldr	r0, [pc, #56]	; (800528c <ethernetif_init+0x104>)
 8005254:	f7fe fb99 	bl	800398a <HAL_ETH_ReadPHYRegister>
 8005258:	9a01      	ldr	r2, [sp, #4]
 800525a:	211d      	movs	r1, #29
 800525c:	f042 020b 	orr.w	r2, r2, #11
 8005260:	480a      	ldr	r0, [pc, #40]	; (800528c <ethernetif_init+0x104>)
 8005262:	9201      	str	r2, [sp, #4]
 8005264:	f7fe fbcb 	bl	80039fe <HAL_ETH_WritePHYRegister>
 8005268:	211d      	movs	r1, #29
 800526a:	aa01      	add	r2, sp, #4
 800526c:	4807      	ldr	r0, [pc, #28]	; (800528c <ethernetif_init+0x104>)
 800526e:	f7fe fb8c 	bl	800398a <HAL_ETH_ReadPHYRegister>
 8005272:	2000      	movs	r0, #0
 8005274:	b005      	add	sp, #20
 8005276:	bd30      	pop	{r4, r5, pc}
 8005278:	0800bc84 	.word	0x0800bc84
 800527c:	0800bca0 	.word	0x0800bca0
 8005280:	0800bcae 	.word	0x0800bcae
 8005284:	08009649 	.word	0x08009649
 8005288:	08004f1d 	.word	0x08004f1d
 800528c:	20001e4c 	.word	0x20001e4c
 8005290:	40028000 	.word	0x40028000
 8005294:	00e18000 	.word	0x00e18000
 8005298:	20001e94 	.word	0x20001e94
 800529c:	2000057c 	.word	0x2000057c
 80052a0:	20001dcc 	.word	0x20001dcc
 80052a4:	200005fc 	.word	0x200005fc

080052a8 <sys_now>:
 80052a8:	f7fd bf94 	b.w	80031d4 <HAL_GetTick>

080052ac <ethernetif_notify_conn_changed>:
 80052ac:	4770      	bx	lr
	...

080052b0 <ethernetif_update_config>:
 80052b0:	b573      	push	{r0, r1, r4, r5, r6, lr}
 80052b2:	2100      	movs	r1, #0
 80052b4:	f890 302f 	ldrb.w	r3, [r0, #47]	; 0x2f
 80052b8:	4605      	mov	r5, r0
 80052ba:	0758      	lsls	r0, r3, #29
 80052bc:	9100      	str	r1, [sp, #0]
 80052be:	9101      	str	r1, [sp, #4]
 80052c0:	d544      	bpl.n	800534c <ethernetif_update_config+0x9c>
 80052c2:	4c24      	ldr	r4, [pc, #144]	; (8005354 <ethernetif_update_config+0xa4>)
 80052c4:	6863      	ldr	r3, [r4, #4]
 80052c6:	2b00      	cmp	r3, #0
 80052c8:	d035      	beq.n	8005336 <ethernetif_update_config+0x86>
 80052ca:	f44f 5280 	mov.w	r2, #4096	; 0x1000
 80052ce:	4620      	mov	r0, r4
 80052d0:	f7fe fb95 	bl	80039fe <HAL_ETH_WritePHYRegister>
 80052d4:	f7fd ff7e 	bl	80031d4 <HAL_GetTick>
 80052d8:	4626      	mov	r6, r4
 80052da:	9000      	str	r0, [sp, #0]
 80052dc:	2101      	movs	r1, #1
 80052de:	aa01      	add	r2, sp, #4
 80052e0:	4630      	mov	r0, r6
 80052e2:	f7fe fb52 	bl	800398a <HAL_ETH_ReadPHYRegister>
 80052e6:	f7fd ff75 	bl	80031d4 <HAL_GetTick>
 80052ea:	9b00      	ldr	r3, [sp, #0]
 80052ec:	1ac0      	subs	r0, r0, r3
 80052ee:	f5b0 7f7a 	cmp.w	r0, #1000	; 0x3e8
 80052f2:	d820      	bhi.n	8005336 <ethernetif_update_config+0x86>
 80052f4:	9b01      	ldr	r3, [sp, #4]
 80052f6:	069a      	lsls	r2, r3, #26
 80052f8:	d5f0      	bpl.n	80052dc <ethernetif_update_config+0x2c>
 80052fa:	aa01      	add	r2, sp, #4
 80052fc:	2110      	movs	r1, #16
 80052fe:	4815      	ldr	r0, [pc, #84]	; (8005354 <ethernetif_update_config+0xa4>)
 8005300:	f7fe fb43 	bl	800398a <HAL_ETH_ReadPHYRegister>
 8005304:	9b01      	ldr	r3, [sp, #4]
 8005306:	f013 0204 	ands.w	r2, r3, #4
 800530a:	bf18      	it	ne
 800530c:	f44f 6200 	movne.w	r2, #2048	; 0x800
 8005310:	079b      	lsls	r3, r3, #30
 8005312:	bf4c      	ite	mi
 8005314:	2300      	movmi	r3, #0
 8005316:	f44f 4380 	movpl.w	r3, #16384	; 0x4000
 800531a:	60e2      	str	r2, [r4, #12]
 800531c:	60a3      	str	r3, [r4, #8]
 800531e:	2100      	movs	r1, #0
 8005320:	480c      	ldr	r0, [pc, #48]	; (8005354 <ethernetif_update_config+0xa4>)
 8005322:	f7fe fd07 	bl	8003d34 <HAL_ETH_ConfigMAC>
 8005326:	480b      	ldr	r0, [pc, #44]	; (8005354 <ethernetif_update_config+0xa4>)
 8005328:	f7fe fc92 	bl	8003c50 <HAL_ETH_Start>
 800532c:	4628      	mov	r0, r5
 800532e:	f7ff ffbd 	bl	80052ac <ethernetif_notify_conn_changed>
 8005332:	b002      	add	sp, #8
 8005334:	bd70      	pop	{r4, r5, r6, pc}
 8005336:	e9d4 2302 	ldrd	r2, r3, [r4, #8]
 800533a:	0852      	lsrs	r2, r2, #1
 800533c:	ea42 02d3 	orr.w	r2, r2, r3, lsr #3
 8005340:	2100      	movs	r1, #0
 8005342:	b292      	uxth	r2, r2
 8005344:	4803      	ldr	r0, [pc, #12]	; (8005354 <ethernetif_update_config+0xa4>)
 8005346:	f7fe fb5a 	bl	80039fe <HAL_ETH_WritePHYRegister>
 800534a:	e7e8      	b.n	800531e <ethernetif_update_config+0x6e>
 800534c:	4801      	ldr	r0, [pc, #4]	; (8005354 <ethernetif_update_config+0xa4>)
 800534e:	f7fe fcb8 	bl	8003cc2 <HAL_ETH_Stop>
 8005352:	e7eb      	b.n	800532c <ethernetif_update_config+0x7c>
 8005354:	20001e4c 	.word	0x20001e4c

08005358 <lwip_htons>:
 8005358:	ba40      	rev16	r0, r0
 800535a:	b280      	uxth	r0, r0
 800535c:	4770      	bx	lr

0800535e <lwip_htonl>:
 800535e:	ba00      	rev	r0, r0
 8005360:	4770      	bx	lr

08005362 <lwip_init>:
 8005362:	b508      	push	{r3, lr}
 8005364:	f000 f80c 	bl	8005380 <mem_init>
 8005368:	f000 fa1e 	bl	80057a8 <memp_init>
 800536c:	f000 fa69 	bl	8005842 <netif_init>
 8005370:	f003 fc84 	bl	8008c7c <udp_init>
 8005374:	f000 ff0c 	bl	8006190 <tcp_init>
 8005378:	e8bd 4008 	ldmia.w	sp!, {r3, lr}
 800537c:	f003 bc26 	b.w	8008bcc <sys_timeouts_init>

08005380 <mem_init>:
 8005380:	4b0b      	ldr	r3, [pc, #44]	; (80053b0 <mem_init+0x30>)
 8005382:	4a0c      	ldr	r2, [pc, #48]	; (80053b4 <mem_init+0x34>)
 8005384:	f023 0303 	bic.w	r3, r3, #3
 8005388:	6013      	str	r3, [r2, #0]
 800538a:	f44f 62c8 	mov.w	r2, #1600	; 0x640
 800538e:	601a      	str	r2, [r3, #0]
 8005390:	2200      	movs	r2, #0
 8005392:	711a      	strb	r2, [r3, #4]
 8005394:	4a08      	ldr	r2, [pc, #32]	; (80053b8 <mem_init+0x38>)
 8005396:	f503 61c8 	add.w	r1, r3, #1600	; 0x640
 800539a:	6011      	str	r1, [r2, #0]
 800539c:	4a07      	ldr	r2, [pc, #28]	; (80053bc <mem_init+0x3c>)
 800539e:	f8c3 2640 	str.w	r2, [r3, #1600]	; 0x640
 80053a2:	2201      	movs	r2, #1
 80053a4:	f883 2644 	strb.w	r2, [r3, #1604]	; 0x644
 80053a8:	4a05      	ldr	r2, [pc, #20]	; (80053c0 <mem_init+0x40>)
 80053aa:	6013      	str	r3, [r2, #0]
 80053ac:	4770      	bx	lr
 80053ae:	bf00      	nop
 80053b0:	2000367f 	.word	0x2000367f
 80053b4:	200003e0 	.word	0x200003e0
 80053b8:	200003e4 	.word	0x200003e4
 80053bc:	06400640 	.word	0x06400640
 80053c0:	200003dc 	.word	0x200003dc

080053c4 <mem_free>:
 80053c4:	e92d 41f0 	stmdb	sp!, {r4, r5, r6, r7, r8, lr}
 80053c8:	4604      	mov	r4, r0
 80053ca:	2800      	cmp	r0, #0
 80053cc:	f000 8089 	beq.w	80054e2 <mem_free+0x11e>
 80053d0:	0783      	lsls	r3, r0, #30
 80053d2:	d006      	beq.n	80053e2 <mem_free+0x1e>
 80053d4:	f44f 72d6 	mov.w	r2, #428	; 0x1ac
 80053d8:	4b43      	ldr	r3, [pc, #268]	; (80054e8 <mem_free+0x124>)
 80053da:	4944      	ldr	r1, [pc, #272]	; (80054ec <mem_free+0x128>)
 80053dc:	4844      	ldr	r0, [pc, #272]	; (80054f0 <mem_free+0x12c>)
 80053de:	f005 fa4b 	bl	800a878 <iprintf>
 80053e2:	4f44      	ldr	r7, [pc, #272]	; (80054f4 <mem_free+0x130>)
 80053e4:	683b      	ldr	r3, [r7, #0]
 80053e6:	42a3      	cmp	r3, r4
 80053e8:	d86d      	bhi.n	80054c6 <mem_free+0x102>
 80053ea:	4b43      	ldr	r3, [pc, #268]	; (80054f8 <mem_free+0x134>)
 80053ec:	681b      	ldr	r3, [r3, #0]
 80053ee:	42a3      	cmp	r3, r4
 80053f0:	d969      	bls.n	80054c6 <mem_free+0x102>
 80053f2:	f814 3c04 	ldrb.w	r3, [r4, #-4]
 80053f6:	f1a4 0508 	sub.w	r5, r4, #8
 80053fa:	b933      	cbnz	r3, 800540a <mem_free+0x46>
 80053fc:	f44f 72e0 	mov.w	r2, #448	; 0x1c0
 8005400:	4b39      	ldr	r3, [pc, #228]	; (80054e8 <mem_free+0x124>)
 8005402:	493e      	ldr	r1, [pc, #248]	; (80054fc <mem_free+0x138>)
 8005404:	483a      	ldr	r0, [pc, #232]	; (80054f0 <mem_free+0x12c>)
 8005406:	f005 fa37 	bl	800a878 <iprintf>
 800540a:	2300      	movs	r3, #0
 800540c:	4e3c      	ldr	r6, [pc, #240]	; (8005500 <mem_free+0x13c>)
 800540e:	f804 3c04 	strb.w	r3, [r4, #-4]
 8005412:	6833      	ldr	r3, [r6, #0]
 8005414:	42ab      	cmp	r3, r5
 8005416:	683b      	ldr	r3, [r7, #0]
 8005418:	bf88      	it	hi
 800541a:	6035      	strhi	r5, [r6, #0]
 800541c:	429d      	cmp	r5, r3
 800541e:	d206      	bcs.n	800542e <mem_free+0x6a>
 8005420:	f240 125d 	movw	r2, #349	; 0x15d
 8005424:	4b30      	ldr	r3, [pc, #192]	; (80054e8 <mem_free+0x124>)
 8005426:	4937      	ldr	r1, [pc, #220]	; (8005504 <mem_free+0x140>)
 8005428:	4831      	ldr	r0, [pc, #196]	; (80054f0 <mem_free+0x12c>)
 800542a:	f005 fa25 	bl	800a878 <iprintf>
 800542e:	4b32      	ldr	r3, [pc, #200]	; (80054f8 <mem_free+0x134>)
 8005430:	681a      	ldr	r2, [r3, #0]
 8005432:	4698      	mov	r8, r3
 8005434:	4295      	cmp	r5, r2
 8005436:	d306      	bcc.n	8005446 <mem_free+0x82>
 8005438:	f44f 72af 	mov.w	r2, #350	; 0x15e
 800543c:	4b2a      	ldr	r3, [pc, #168]	; (80054e8 <mem_free+0x124>)
 800543e:	4932      	ldr	r1, [pc, #200]	; (8005508 <mem_free+0x144>)
 8005440:	482b      	ldr	r0, [pc, #172]	; (80054f0 <mem_free+0x12c>)
 8005442:	f005 fa19 	bl	800a878 <iprintf>
 8005446:	f814 3c04 	ldrb.w	r3, [r4, #-4]
 800544a:	b133      	cbz	r3, 800545a <mem_free+0x96>
 800544c:	f240 125f 	movw	r2, #351	; 0x15f
 8005450:	4b25      	ldr	r3, [pc, #148]	; (80054e8 <mem_free+0x124>)
 8005452:	492e      	ldr	r1, [pc, #184]	; (800550c <mem_free+0x148>)
 8005454:	4826      	ldr	r0, [pc, #152]	; (80054f0 <mem_free+0x12c>)
 8005456:	f005 fa0f 	bl	800a878 <iprintf>
 800545a:	f834 3c08 	ldrh.w	r3, [r4, #-8]
 800545e:	f5b3 6fc8 	cmp.w	r3, #1600	; 0x640
 8005462:	d906      	bls.n	8005472 <mem_free+0xae>
 8005464:	f44f 72b1 	mov.w	r2, #354	; 0x162
 8005468:	4b1f      	ldr	r3, [pc, #124]	; (80054e8 <mem_free+0x124>)
 800546a:	4929      	ldr	r1, [pc, #164]	; (8005510 <mem_free+0x14c>)
 800546c:	4820      	ldr	r0, [pc, #128]	; (80054f0 <mem_free+0x12c>)
 800546e:	f005 fa03 	bl	800a878 <iprintf>
 8005472:	683b      	ldr	r3, [r7, #0]
 8005474:	f834 1c08 	ldrh.w	r1, [r4, #-8]
 8005478:	185a      	adds	r2, r3, r1
 800547a:	4295      	cmp	r5, r2
 800547c:	d010      	beq.n	80054a0 <mem_free+0xdc>
 800547e:	7910      	ldrb	r0, [r2, #4]
 8005480:	b970      	cbnz	r0, 80054a0 <mem_free+0xdc>
 8005482:	f8d8 0000 	ldr.w	r0, [r8]
 8005486:	4282      	cmp	r2, r0
 8005488:	d00a      	beq.n	80054a0 <mem_free+0xdc>
 800548a:	6830      	ldr	r0, [r6, #0]
 800548c:	4282      	cmp	r2, r0
 800548e:	5a5a      	ldrh	r2, [r3, r1]
 8005490:	bf08      	it	eq
 8005492:	6035      	streq	r5, [r6, #0]
 8005494:	f824 2c08 	strh.w	r2, [r4, #-8]
 8005498:	5a5a      	ldrh	r2, [r3, r1]
 800549a:	1ae9      	subs	r1, r5, r3
 800549c:	441a      	add	r2, r3
 800549e:	8051      	strh	r1, [r2, #2]
 80054a0:	f834 2c06 	ldrh.w	r2, [r4, #-6]
 80054a4:	1899      	adds	r1, r3, r2
 80054a6:	428d      	cmp	r5, r1
 80054a8:	d01b      	beq.n	80054e2 <mem_free+0x11e>
 80054aa:	7908      	ldrb	r0, [r1, #4]
 80054ac:	b9c8      	cbnz	r0, 80054e2 <mem_free+0x11e>
 80054ae:	6830      	ldr	r0, [r6, #0]
 80054b0:	4285      	cmp	r5, r0
 80054b2:	bf08      	it	eq
 80054b4:	6031      	streq	r1, [r6, #0]
 80054b6:	f834 1c08 	ldrh.w	r1, [r4, #-8]
 80054ba:	5299      	strh	r1, [r3, r2]
 80054bc:	f834 1c08 	ldrh.w	r1, [r4, #-8]
 80054c0:	440b      	add	r3, r1
 80054c2:	805a      	strh	r2, [r3, #2]
 80054c4:	e00d      	b.n	80054e2 <mem_free+0x11e>
 80054c6:	4b08      	ldr	r3, [pc, #32]	; (80054e8 <mem_free+0x124>)
 80054c8:	f44f 72d7 	mov.w	r2, #430	; 0x1ae
 80054cc:	4911      	ldr	r1, [pc, #68]	; (8005514 <mem_free+0x150>)
 80054ce:	4808      	ldr	r0, [pc, #32]	; (80054f0 <mem_free+0x12c>)
 80054d0:	f005 f9d2 	bl	800a878 <iprintf>
 80054d4:	683b      	ldr	r3, [r7, #0]
 80054d6:	42a3      	cmp	r3, r4
 80054d8:	d803      	bhi.n	80054e2 <mem_free+0x11e>
 80054da:	4b07      	ldr	r3, [pc, #28]	; (80054f8 <mem_free+0x134>)
 80054dc:	681b      	ldr	r3, [r3, #0]
 80054de:	42a3      	cmp	r3, r4
 80054e0:	d887      	bhi.n	80053f2 <mem_free+0x2e>
 80054e2:	e8bd 81f0 	ldmia.w	sp!, {r4, r5, r6, r7, r8, pc}
 80054e6:	bf00      	nop
 80054e8:	0800bcd6 	.word	0x0800bcd6
 80054ec:	0800bd05 	.word	0x0800bd05
 80054f0:	0800bcae 	.word	0x0800bcae
 80054f4:	200003e0 	.word	0x200003e0
 80054f8:	200003e4 	.word	0x200003e4
 80054fc:	0800bd3d 	.word	0x0800bd3d
 8005500:	200003dc 	.word	0x200003dc
 8005504:	0800bd51 	.word	0x0800bd51
 8005508:	0800bd68 	.word	0x0800bd68
 800550c:	0800bd82 	.word	0x0800bd82
 8005510:	0800bd9d 	.word	0x0800bd9d
 8005514:	0800bd26 	.word	0x0800bd26

08005518 <mem_trim>:
 8005518:	b5f8      	push	{r3, r4, r5, r6, r7, lr}
 800551a:	f64f 75fc 	movw	r5, #65532	; 0xfffc
 800551e:	3103      	adds	r1, #3
 8005520:	400d      	ands	r5, r1
 8005522:	2d0b      	cmp	r5, #11
 8005524:	4604      	mov	r4, r0
 8005526:	d904      	bls.n	8005532 <mem_trim+0x1a>
 8005528:	f5b5 6fc8 	cmp.w	r5, #1600	; 0x640
 800552c:	d902      	bls.n	8005534 <mem_trim+0x1c>
 800552e:	2400      	movs	r4, #0
 8005530:	e05a      	b.n	80055e8 <mem_trim+0xd0>
 8005532:	250c      	movs	r5, #12
 8005534:	4e2d      	ldr	r6, [pc, #180]	; (80055ec <mem_trim+0xd4>)
 8005536:	6832      	ldr	r2, [r6, #0]
 8005538:	42a2      	cmp	r2, r4
 800553a:	d803      	bhi.n	8005544 <mem_trim+0x2c>
 800553c:	4b2c      	ldr	r3, [pc, #176]	; (80055f0 <mem_trim+0xd8>)
 800553e:	681b      	ldr	r3, [r3, #0]
 8005540:	42a3      	cmp	r3, r4
 8005542:	d806      	bhi.n	8005552 <mem_trim+0x3a>
 8005544:	f240 12f3 	movw	r2, #499	; 0x1f3
 8005548:	4b2a      	ldr	r3, [pc, #168]	; (80055f4 <mem_trim+0xdc>)
 800554a:	492b      	ldr	r1, [pc, #172]	; (80055f8 <mem_trim+0xe0>)
 800554c:	482b      	ldr	r0, [pc, #172]	; (80055fc <mem_trim+0xe4>)
 800554e:	f005 f993 	bl	800a878 <iprintf>
 8005552:	6833      	ldr	r3, [r6, #0]
 8005554:	42a3      	cmp	r3, r4
 8005556:	d847      	bhi.n	80055e8 <mem_trim+0xd0>
 8005558:	4a25      	ldr	r2, [pc, #148]	; (80055f0 <mem_trim+0xd8>)
 800555a:	6812      	ldr	r2, [r2, #0]
 800555c:	42a2      	cmp	r2, r4
 800555e:	d943      	bls.n	80055e8 <mem_trim+0xd0>
 8005560:	f834 0c08 	ldrh.w	r0, [r4, #-8]
 8005564:	f1a4 0208 	sub.w	r2, r4, #8
 8005568:	1ad2      	subs	r2, r2, r3
 800556a:	b292      	uxth	r2, r2
 800556c:	f1a0 0108 	sub.w	r1, r0, #8
 8005570:	1a89      	subs	r1, r1, r2
 8005572:	b289      	uxth	r1, r1
 8005574:	42a9      	cmp	r1, r5
 8005576:	d219      	bcs.n	80055ac <mem_trim+0x94>
 8005578:	f240 2206 	movw	r2, #518	; 0x206
 800557c:	4b1d      	ldr	r3, [pc, #116]	; (80055f4 <mem_trim+0xdc>)
 800557e:	4920      	ldr	r1, [pc, #128]	; (8005600 <mem_trim+0xe8>)
 8005580:	481e      	ldr	r0, [pc, #120]	; (80055fc <mem_trim+0xe4>)
 8005582:	f005 f979 	bl	800a878 <iprintf>
 8005586:	e7d2      	b.n	800552e <mem_trim+0x16>
 8005588:	f105 0614 	add.w	r6, r5, #20
 800558c:	428e      	cmp	r6, r1
 800558e:	d82b      	bhi.n	80055e8 <mem_trim+0xd0>
 8005590:	4e1c      	ldr	r6, [pc, #112]	; (8005604 <mem_trim+0xec>)
 8005592:	f102 0108 	add.w	r1, r2, #8
 8005596:	440d      	add	r5, r1
 8005598:	6837      	ldr	r7, [r6, #0]
 800559a:	b2ad      	uxth	r5, r5
 800559c:	1959      	adds	r1, r3, r5
 800559e:	428f      	cmp	r7, r1
 80055a0:	bf88      	it	hi
 80055a2:	6031      	strhi	r1, [r6, #0]
 80055a4:	2600      	movs	r6, #0
 80055a6:	710e      	strb	r6, [r1, #4]
 80055a8:	5358      	strh	r0, [r3, r5]
 80055aa:	e014      	b.n	80055d6 <mem_trim+0xbe>
 80055ac:	d01c      	beq.n	80055e8 <mem_trim+0xd0>
 80055ae:	181e      	adds	r6, r3, r0
 80055b0:	7937      	ldrb	r7, [r6, #4]
 80055b2:	2f00      	cmp	r7, #0
 80055b4:	d1e8      	bne.n	8005588 <mem_trim+0x70>
 80055b6:	f833 c000 	ldrh.w	ip, [r3, r0]
 80055ba:	4812      	ldr	r0, [pc, #72]	; (8005604 <mem_trim+0xec>)
 80055bc:	f102 0108 	add.w	r1, r2, #8
 80055c0:	6807      	ldr	r7, [r0, #0]
 80055c2:	440d      	add	r5, r1
 80055c4:	b2ad      	uxth	r5, r5
 80055c6:	1959      	adds	r1, r3, r5
 80055c8:	42b7      	cmp	r7, r6
 80055ca:	bf08      	it	eq
 80055cc:	6001      	streq	r1, [r0, #0]
 80055ce:	2000      	movs	r0, #0
 80055d0:	7108      	strb	r0, [r1, #4]
 80055d2:	f823 c005 	strh.w	ip, [r3, r5]
 80055d6:	804a      	strh	r2, [r1, #2]
 80055d8:	f824 5c08 	strh.w	r5, [r4, #-8]
 80055dc:	5b5a      	ldrh	r2, [r3, r5]
 80055de:	f5b2 6fc8 	cmp.w	r2, #1600	; 0x640
 80055e2:	d001      	beq.n	80055e8 <mem_trim+0xd0>
 80055e4:	4413      	add	r3, r2
 80055e6:	805d      	strh	r5, [r3, #2]
 80055e8:	4620      	mov	r0, r4
 80055ea:	bdf8      	pop	{r3, r4, r5, r6, r7, pc}
 80055ec:	200003e0 	.word	0x200003e0
 80055f0:	200003e4 	.word	0x200003e4
 80055f4:	0800bcd6 	.word	0x0800bcd6
 80055f8:	0800bdc7 	.word	0x0800bdc7
 80055fc:	0800bcae 	.word	0x0800bcae
 8005600:	0800bdde 	.word	0x0800bdde
 8005604:	200003dc 	.word	0x200003dc

08005608 <mem_malloc>:
 8005608:	e92d 41f0 	stmdb	sp!, {r4, r5, r6, r7, r8, lr}
 800560c:	2800      	cmp	r0, #0
 800560e:	d06c      	beq.n	80056ea <mem_malloc+0xe2>
 8005610:	f64f 75fc 	movw	r5, #65532	; 0xfffc
 8005614:	3003      	adds	r0, #3
 8005616:	4005      	ands	r5, r0
 8005618:	2d0b      	cmp	r5, #11
 800561a:	d904      	bls.n	8005626 <mem_malloc+0x1e>
 800561c:	f5b5 6fc8 	cmp.w	r5, #1600	; 0x640
 8005620:	d902      	bls.n	8005628 <mem_malloc+0x20>
 8005622:	2000      	movs	r0, #0
 8005624:	e061      	b.n	80056ea <mem_malloc+0xe2>
 8005626:	250c      	movs	r5, #12
 8005628:	f06f 0807 	mvn.w	r8, #7
 800562c:	4a34      	ldr	r2, [pc, #208]	; (8005700 <mem_malloc+0xf8>)
 800562e:	4e35      	ldr	r6, [pc, #212]	; (8005704 <mem_malloc+0xfc>)
 8005630:	6810      	ldr	r0, [r2, #0]
 8005632:	6833      	ldr	r3, [r6, #0]
 8005634:	f5c5 6cc8 	rsb	ip, r5, #1600	; 0x640
 8005638:	1a1a      	subs	r2, r3, r0
 800563a:	b292      	uxth	r2, r2
 800563c:	4562      	cmp	r2, ip
 800563e:	d2f0      	bcs.n	8005622 <mem_malloc+0x1a>
 8005640:	1884      	adds	r4, r0, r2
 8005642:	f894 e004 	ldrb.w	lr, [r4, #4]
 8005646:	5a87      	ldrh	r7, [r0, r2]
 8005648:	f1be 0f00 	cmp.w	lr, #0
 800564c:	d155      	bne.n	80056fa <mem_malloc+0xf2>
 800564e:	eba8 0102 	sub.w	r1, r8, r2
 8005652:	4439      	add	r1, r7
 8005654:	42a9      	cmp	r1, r5
 8005656:	d350      	bcc.n	80056fa <mem_malloc+0xf2>
 8005658:	f105 0c14 	add.w	ip, r5, #20
 800565c:	4561      	cmp	r1, ip
 800565e:	d346      	bcc.n	80056ee <mem_malloc+0xe6>
 8005660:	f105 0108 	add.w	r1, r5, #8
 8005664:	4411      	add	r1, r2
 8005666:	b289      	uxth	r1, r1
 8005668:	eb00 0c01 	add.w	ip, r0, r1
 800566c:	f88c e004 	strb.w	lr, [ip, #4]
 8005670:	5247      	strh	r7, [r0, r1]
 8005672:	f8ac 2002 	strh.w	r2, [ip, #2]
 8005676:	2201      	movs	r2, #1
 8005678:	8021      	strh	r1, [r4, #0]
 800567a:	7122      	strb	r2, [r4, #4]
 800567c:	5a42      	ldrh	r2, [r0, r1]
 800567e:	f5b2 6fc8 	cmp.w	r2, #1600	; 0x640
 8005682:	d001      	beq.n	8005688 <mem_malloc+0x80>
 8005684:	4402      	add	r2, r0
 8005686:	8051      	strh	r1, [r2, #2]
 8005688:	42a3      	cmp	r3, r4
 800568a:	4f1f      	ldr	r7, [pc, #124]	; (8005708 <mem_malloc+0x100>)
 800568c:	d10f      	bne.n	80056ae <mem_malloc+0xa6>
 800568e:	6839      	ldr	r1, [r7, #0]
 8005690:	791a      	ldrb	r2, [r3, #4]
 8005692:	b10a      	cbz	r2, 8005698 <mem_malloc+0x90>
 8005694:	4299      	cmp	r1, r3
 8005696:	d12d      	bne.n	80056f4 <mem_malloc+0xec>
 8005698:	4299      	cmp	r1, r3
 800569a:	6033      	str	r3, [r6, #0]
 800569c:	d007      	beq.n	80056ae <mem_malloc+0xa6>
 800569e:	b132      	cbz	r2, 80056ae <mem_malloc+0xa6>
 80056a0:	f240 22cf 	movw	r2, #719	; 0x2cf
 80056a4:	4b19      	ldr	r3, [pc, #100]	; (800570c <mem_malloc+0x104>)
 80056a6:	491a      	ldr	r1, [pc, #104]	; (8005710 <mem_malloc+0x108>)
 80056a8:	481a      	ldr	r0, [pc, #104]	; (8005714 <mem_malloc+0x10c>)
 80056aa:	f005 f8e5 	bl	800a878 <iprintf>
 80056ae:	683b      	ldr	r3, [r7, #0]
 80056b0:	3508      	adds	r5, #8
 80056b2:	4425      	add	r5, r4
 80056b4:	42ab      	cmp	r3, r5
 80056b6:	d206      	bcs.n	80056c6 <mem_malloc+0xbe>
 80056b8:	f240 22d3 	movw	r2, #723	; 0x2d3
 80056bc:	4b13      	ldr	r3, [pc, #76]	; (800570c <mem_malloc+0x104>)
 80056be:	4916      	ldr	r1, [pc, #88]	; (8005718 <mem_malloc+0x110>)
 80056c0:	4814      	ldr	r0, [pc, #80]	; (8005714 <mem_malloc+0x10c>)
 80056c2:	f005 f8d9 	bl	800a878 <iprintf>
 80056c6:	07a3      	lsls	r3, r4, #30
 80056c8:	d00d      	beq.n	80056e6 <mem_malloc+0xde>
 80056ca:	f240 22d5 	movw	r2, #725	; 0x2d5
 80056ce:	4b0f      	ldr	r3, [pc, #60]	; (800570c <mem_malloc+0x104>)
 80056d0:	4912      	ldr	r1, [pc, #72]	; (800571c <mem_malloc+0x114>)
 80056d2:	4810      	ldr	r0, [pc, #64]	; (8005714 <mem_malloc+0x10c>)
 80056d4:	f005 f8d0 	bl	800a878 <iprintf>
 80056d8:	f240 22d7 	movw	r2, #727	; 0x2d7
 80056dc:	4b0b      	ldr	r3, [pc, #44]	; (800570c <mem_malloc+0x104>)
 80056de:	4910      	ldr	r1, [pc, #64]	; (8005720 <mem_malloc+0x118>)
 80056e0:	480c      	ldr	r0, [pc, #48]	; (8005714 <mem_malloc+0x10c>)
 80056e2:	f005 f8c9 	bl	800a878 <iprintf>
 80056e6:	f104 0008 	add.w	r0, r4, #8
 80056ea:	e8bd 81f0 	ldmia.w	sp!, {r4, r5, r6, r7, r8, pc}
 80056ee:	2201      	movs	r2, #1
 80056f0:	7122      	strb	r2, [r4, #4]
 80056f2:	e7c9      	b.n	8005688 <mem_malloc+0x80>
 80056f4:	881b      	ldrh	r3, [r3, #0]
 80056f6:	4403      	add	r3, r0
 80056f8:	e7ca      	b.n	8005690 <mem_malloc+0x88>
 80056fa:	463a      	mov	r2, r7
 80056fc:	e79e      	b.n	800563c <mem_malloc+0x34>
 80056fe:	bf00      	nop
 8005700:	200003e0 	.word	0x200003e0
 8005704:	200003dc 	.word	0x200003dc
 8005708:	200003e4 	.word	0x200003e4
 800570c:	0800bcd6 	.word	0x0800bcd6
 8005710:	0800bdfe 	.word	0x0800bdfe
 8005714:	0800bcae 	.word	0x0800bcae
 8005718:	0800be17 	.word	0x0800be17
 800571c:	0800be47 	.word	0x0800be47
 8005720:	0800be76 	.word	0x0800be76

08005724 <do_memp_malloc_pool.isra.0>:
 8005724:	b510      	push	{r4, lr}
 8005726:	6804      	ldr	r4, [r0, #0]
 8005728:	b154      	cbz	r4, 8005740 <do_memp_malloc_pool.isra.0+0x1c>
 800572a:	6823      	ldr	r3, [r4, #0]
 800572c:	6003      	str	r3, [r0, #0]
 800572e:	07a3      	lsls	r3, r4, #30
 8005730:	d006      	beq.n	8005740 <do_memp_malloc_pool.isra.0+0x1c>
 8005732:	f44f 72a4 	mov.w	r2, #328	; 0x148
 8005736:	4b03      	ldr	r3, [pc, #12]	; (8005744 <do_memp_malloc_pool.isra.0+0x20>)
 8005738:	4903      	ldr	r1, [pc, #12]	; (8005748 <do_memp_malloc_pool.isra.0+0x24>)
 800573a:	4804      	ldr	r0, [pc, #16]	; (800574c <do_memp_malloc_pool.isra.0+0x28>)
 800573c:	f005 f89c 	bl	800a878 <iprintf>
 8005740:	4620      	mov	r0, r4
 8005742:	bd10      	pop	{r4, pc}
 8005744:	0800be99 	.word	0x0800be99
 8005748:	0800bec9 	.word	0x0800bec9
 800574c:	0800bcae 	.word	0x0800bcae

08005750 <do_memp_free_pool.isra.0>:
 8005750:	b538      	push	{r3, r4, r5, lr}
 8005752:	078b      	lsls	r3, r1, #30
 8005754:	4605      	mov	r5, r0
 8005756:	460c      	mov	r4, r1
 8005758:	d006      	beq.n	8005768 <do_memp_free_pool.isra.0+0x18>
 800575a:	f44f 72ce 	mov.w	r2, #412	; 0x19c
 800575e:	4b05      	ldr	r3, [pc, #20]	; (8005774 <do_memp_free_pool.isra.0+0x24>)
 8005760:	4905      	ldr	r1, [pc, #20]	; (8005778 <do_memp_free_pool.isra.0+0x28>)
 8005762:	4806      	ldr	r0, [pc, #24]	; (800577c <do_memp_free_pool.isra.0+0x2c>)
 8005764:	f005 f888 	bl	800a878 <iprintf>
 8005768:	682b      	ldr	r3, [r5, #0]
 800576a:	681a      	ldr	r2, [r3, #0]
 800576c:	6022      	str	r2, [r4, #0]
 800576e:	601c      	str	r4, [r3, #0]
 8005770:	bd38      	pop	{r3, r4, r5, pc}
 8005772:	bf00      	nop
 8005774:	0800be99 	.word	0x0800be99
 8005778:	0800beec 	.word	0x0800beec
 800577c:	0800bcae 	.word	0x0800bcae

08005780 <memp_init_pool>:
 8005780:	2200      	movs	r2, #0
 8005782:	6843      	ldr	r3, [r0, #4]
 8005784:	6881      	ldr	r1, [r0, #8]
 8005786:	b530      	push	{r4, r5, lr}
 8005788:	3303      	adds	r3, #3
 800578a:	8844      	ldrh	r4, [r0, #2]
 800578c:	600a      	str	r2, [r1, #0]
 800578e:	f023 0303 	bic.w	r3, r3, #3
 8005792:	4294      	cmp	r4, r2
 8005794:	dc00      	bgt.n	8005798 <memp_init_pool+0x18>
 8005796:	bd30      	pop	{r4, r5, pc}
 8005798:	680d      	ldr	r5, [r1, #0]
 800579a:	3201      	adds	r2, #1
 800579c:	601d      	str	r5, [r3, #0]
 800579e:	8805      	ldrh	r5, [r0, #0]
 80057a0:	600b      	str	r3, [r1, #0]
 80057a2:	442b      	add	r3, r5
 80057a4:	e7f5      	b.n	8005792 <memp_init_pool+0x12>
	...

080057a8 <memp_init>:
 80057a8:	b538      	push	{r3, r4, r5, lr}
 80057aa:	2409      	movs	r4, #9
 80057ac:	4d04      	ldr	r5, [pc, #16]	; (80057c0 <memp_init+0x18>)
 80057ae:	3c01      	subs	r4, #1
 80057b0:	f855 0b04 	ldr.w	r0, [r5], #4
 80057b4:	b2a4      	uxth	r4, r4
 80057b6:	f7ff ffe3 	bl	8005780 <memp_init_pool>
 80057ba:	2c00      	cmp	r4, #0
 80057bc:	d1f7      	bne.n	80057ae <memp_init+0x6>
 80057be:	bd38      	pop	{r3, r4, r5, pc}
 80057c0:	0800bfb0 	.word	0x0800bfb0

080057c4 <memp_malloc>:
 80057c4:	2808      	cmp	r0, #8
 80057c6:	b508      	push	{r3, lr}
 80057c8:	d807      	bhi.n	80057da <memp_malloc+0x16>
 80057ca:	4b08      	ldr	r3, [pc, #32]	; (80057ec <memp_malloc+0x28>)
 80057cc:	f853 3020 	ldr.w	r3, [r3, r0, lsl #2]
 80057d0:	6898      	ldr	r0, [r3, #8]
 80057d2:	e8bd 4008 	ldmia.w	sp!, {r3, lr}
 80057d6:	f7ff bfa5 	b.w	8005724 <do_memp_malloc_pool.isra.0>
 80057da:	f240 1287 	movw	r2, #391	; 0x187
 80057de:	4b04      	ldr	r3, [pc, #16]	; (80057f0 <memp_malloc+0x2c>)
 80057e0:	4904      	ldr	r1, [pc, #16]	; (80057f4 <memp_malloc+0x30>)
 80057e2:	4805      	ldr	r0, [pc, #20]	; (80057f8 <memp_malloc+0x34>)
 80057e4:	f005 f848 	bl	800a878 <iprintf>
 80057e8:	2000      	movs	r0, #0
 80057ea:	bd08      	pop	{r3, pc}
 80057ec:	0800bfb0 	.word	0x0800bfb0
 80057f0:	0800be99 	.word	0x0800be99
 80057f4:	0800bf0c 	.word	0x0800bf0c
 80057f8:	0800bcae 	.word	0x0800bcae

080057fc <memp_free>:
 80057fc:	2808      	cmp	r0, #8
 80057fe:	d906      	bls.n	800580e <memp_free+0x12>
 8005800:	f240 12db 	movw	r2, #475	; 0x1db
 8005804:	4b06      	ldr	r3, [pc, #24]	; (8005820 <memp_free+0x24>)
 8005806:	4907      	ldr	r1, [pc, #28]	; (8005824 <memp_free+0x28>)
 8005808:	4807      	ldr	r0, [pc, #28]	; (8005828 <memp_free+0x2c>)
 800580a:	f005 b835 	b.w	800a878 <iprintf>
 800580e:	b129      	cbz	r1, 800581c <memp_free+0x20>
 8005810:	4b06      	ldr	r3, [pc, #24]	; (800582c <memp_free+0x30>)
 8005812:	f853 0020 	ldr.w	r0, [r3, r0, lsl #2]
 8005816:	3008      	adds	r0, #8
 8005818:	f7ff bf9a 	b.w	8005750 <do_memp_free_pool.isra.0>
 800581c:	4770      	bx	lr
 800581e:	bf00      	nop
 8005820:	0800be99 	.word	0x0800be99
 8005824:	0800bf29 	.word	0x0800bf29
 8005828:	0800bcae 	.word	0x0800bcae
 800582c:	0800bfb0 	.word	0x0800bfb0

08005830 <netif_issue_reports.part.0>:
 8005830:	f890 302f 	ldrb.w	r3, [r0, #47]	; 0x2f
 8005834:	4601      	mov	r1, r0
 8005836:	071b      	lsls	r3, r3, #28
 8005838:	d502      	bpl.n	8005840 <netif_issue_reports.part.0+0x10>
 800583a:	3104      	adds	r1, #4
 800583c:	f003 bdde 	b.w	80093fc <etharp_request>
 8005840:	4770      	bx	lr

08005842 <netif_init>:
 8005842:	4770      	bx	lr

08005844 <netif_set_ipaddr>:
 8005844:	b573      	push	{r0, r1, r4, r5, r6, lr}
 8005846:	4604      	mov	r4, r0
 8005848:	460d      	mov	r5, r1
 800584a:	b191      	cbz	r1, 8005872 <netif_set_ipaddr+0x2e>
 800584c:	680b      	ldr	r3, [r1, #0]
 800584e:	9301      	str	r3, [sp, #4]
 8005850:	9a01      	ldr	r2, [sp, #4]
 8005852:	6863      	ldr	r3, [r4, #4]
 8005854:	429a      	cmp	r2, r3
 8005856:	d00a      	beq.n	800586e <netif_set_ipaddr+0x2a>
 8005858:	1d26      	adds	r6, r4, #4
 800585a:	4630      	mov	r0, r6
 800585c:	a901      	add	r1, sp, #4
 800585e:	f001 fa0d 	bl	8006c7c <tcp_netif_ip_addr_changed>
 8005862:	4630      	mov	r0, r6
 8005864:	a901      	add	r1, sp, #4
 8005866:	f003 fbf9 	bl	800905c <udp_netif_ip_addr_changed>
 800586a:	b92d      	cbnz	r5, 8005878 <netif_set_ipaddr+0x34>
 800586c:	6065      	str	r5, [r4, #4]
 800586e:	b002      	add	sp, #8
 8005870:	bd70      	pop	{r4, r5, r6, pc}
 8005872:	4b05      	ldr	r3, [pc, #20]	; (8005888 <netif_set_ipaddr+0x44>)
 8005874:	681b      	ldr	r3, [r3, #0]
 8005876:	e7ea      	b.n	800584e <netif_set_ipaddr+0xa>
 8005878:	682b      	ldr	r3, [r5, #0]
 800587a:	6063      	str	r3, [r4, #4]
 800587c:	2b00      	cmp	r3, #0
 800587e:	d0f6      	beq.n	800586e <netif_set_ipaddr+0x2a>
 8005880:	4620      	mov	r0, r4
 8005882:	f7ff ffd5 	bl	8005830 <netif_issue_reports.part.0>
 8005886:	e7f2      	b.n	800586e <netif_set_ipaddr+0x2a>
 8005888:	0800cf38 	.word	0x0800cf38

0800588c <netif_set_addr>:
 800588c:	b570      	push	{r4, r5, r6, lr}
 800588e:	4606      	mov	r6, r0
 8005890:	4615      	mov	r5, r2
 8005892:	461c      	mov	r4, r3
 8005894:	b109      	cbz	r1, 800589a <netif_set_addr+0xe>
 8005896:	680b      	ldr	r3, [r1, #0]
 8005898:	b94b      	cbnz	r3, 80058ae <netif_set_addr+0x22>
 800589a:	4630      	mov	r0, r6
 800589c:	f7ff ffd2 	bl	8005844 <netif_set_ipaddr>
 80058a0:	b105      	cbz	r5, 80058a4 <netif_set_addr+0x18>
 80058a2:	682d      	ldr	r5, [r5, #0]
 80058a4:	60b5      	str	r5, [r6, #8]
 80058a6:	b104      	cbz	r4, 80058aa <netif_set_addr+0x1e>
 80058a8:	6824      	ldr	r4, [r4, #0]
 80058aa:	60f4      	str	r4, [r6, #12]
 80058ac:	bd70      	pop	{r4, r5, r6, pc}
 80058ae:	b102      	cbz	r2, 80058b2 <netif_set_addr+0x26>
 80058b0:	6815      	ldr	r5, [r2, #0]
 80058b2:	60b5      	str	r5, [r6, #8]
 80058b4:	b104      	cbz	r4, 80058b8 <netif_set_addr+0x2c>
 80058b6:	6824      	ldr	r4, [r4, #0]
 80058b8:	4630      	mov	r0, r6
 80058ba:	60f4      	str	r4, [r6, #12]
 80058bc:	e8bd 4070 	ldmia.w	sp!, {r4, r5, r6, lr}
 80058c0:	f7ff bfc0 	b.w	8005844 <netif_set_ipaddr>

080058c4 <netif_add>:
 80058c4:	e92d 43f8 	stmdb	sp!, {r3, r4, r5, r6, r7, r8, r9, lr}
 80058c8:	f8dd 9024 	ldr.w	r9, [sp, #36]	; 0x24
 80058cc:	4604      	mov	r4, r0
 80058ce:	460e      	mov	r6, r1
 80058d0:	4617      	mov	r7, r2
 80058d2:	4698      	mov	r8, r3
 80058d4:	f1b9 0f00 	cmp.w	r9, #0
 80058d8:	d105      	bne.n	80058e6 <netif_add+0x22>
 80058da:	22fb      	movs	r2, #251	; 0xfb
 80058dc:	4b15      	ldr	r3, [pc, #84]	; (8005934 <netif_add+0x70>)
 80058de:	4916      	ldr	r1, [pc, #88]	; (8005938 <netif_add+0x74>)
 80058e0:	4816      	ldr	r0, [pc, #88]	; (800593c <netif_add+0x78>)
 80058e2:	f004 ffc9 	bl	800a878 <iprintf>
 80058e6:	2303      	movs	r3, #3
 80058e8:	2500      	movs	r5, #0
 80058ea:	4a15      	ldr	r2, [pc, #84]	; (8005940 <netif_add+0x7c>)
 80058ec:	f884 3024 	strb.w	r3, [r4, #36]	; 0x24
 80058f0:	9b08      	ldr	r3, [sp, #32]
 80058f2:	4620      	mov	r0, r4
 80058f4:	6223      	str	r3, [r4, #32]
 80058f6:	7813      	ldrb	r3, [r2, #0]
 80058f8:	e9c4 5501 	strd	r5, r5, [r4, #4]
 80058fc:	1c59      	adds	r1, r3, #1
 80058fe:	f884 3032 	strb.w	r3, [r4, #50]	; 0x32
 8005902:	9b0a      	ldr	r3, [sp, #40]	; 0x28
 8005904:	7011      	strb	r1, [r2, #0]
 8005906:	6123      	str	r3, [r4, #16]
 8005908:	463a      	mov	r2, r7
 800590a:	4643      	mov	r3, r8
 800590c:	4631      	mov	r1, r6
 800590e:	60e5      	str	r5, [r4, #12]
 8005910:	f884 502f 	strb.w	r5, [r4, #47]	; 0x2f
 8005914:	61e5      	str	r5, [r4, #28]
 8005916:	f7ff ffb9 	bl	800588c <netif_set_addr>
 800591a:	4620      	mov	r0, r4
 800591c:	47c8      	blx	r9
 800591e:	b930      	cbnz	r0, 800592e <netif_add+0x6a>
 8005920:	4b08      	ldr	r3, [pc, #32]	; (8005944 <netif_add+0x80>)
 8005922:	681a      	ldr	r2, [r3, #0]
 8005924:	6022      	str	r2, [r4, #0]
 8005926:	601c      	str	r4, [r3, #0]
 8005928:	4620      	mov	r0, r4
 800592a:	e8bd 83f8 	ldmia.w	sp!, {r3, r4, r5, r6, r7, r8, r9, pc}
 800592e:	462c      	mov	r4, r5
 8005930:	e7fa      	b.n	8005928 <netif_add+0x64>
 8005932:	bf00      	nop
 8005934:	0800bfd4 	.word	0x0800bfd4
 8005938:	0800c005 	.word	0x0800c005
 800593c:	0800bcae 	.word	0x0800bcae
 8005940:	2000040c 	.word	0x2000040c
 8005944:	20006b7c 	.word	0x20006b7c

08005948 <netif_set_default>:
 8005948:	4b01      	ldr	r3, [pc, #4]	; (8005950 <netif_set_default+0x8>)
 800594a:	6018      	str	r0, [r3, #0]
 800594c:	4770      	bx	lr
 800594e:	bf00      	nop
 8005950:	20006b80 	.word	0x20006b80

08005954 <netif_set_up>:
 8005954:	f890 202f 	ldrb.w	r2, [r0, #47]	; 0x2f
 8005958:	07d1      	lsls	r1, r2, #31
 800595a:	d409      	bmi.n	8005970 <netif_set_up+0x1c>
 800595c:	f042 0101 	orr.w	r1, r2, #1
 8005960:	0752      	lsls	r2, r2, #29
 8005962:	f880 102f 	strb.w	r1, [r0, #47]	; 0x2f
 8005966:	d503      	bpl.n	8005970 <netif_set_up+0x1c>
 8005968:	6843      	ldr	r3, [r0, #4]
 800596a:	b10b      	cbz	r3, 8005970 <netif_set_up+0x1c>
 800596c:	f7ff bf60 	b.w	8005830 <netif_issue_reports.part.0>
 8005970:	4770      	bx	lr

08005972 <netif_set_down>:
 8005972:	f890 202f 	ldrb.w	r2, [r0, #47]	; 0x2f
 8005976:	07d1      	lsls	r1, r2, #31
 8005978:	d507      	bpl.n	800598a <netif_set_down+0x18>
 800597a:	f022 0101 	bic.w	r1, r2, #1
 800597e:	0713      	lsls	r3, r2, #28
 8005980:	f880 102f 	strb.w	r1, [r0, #47]	; 0x2f
 8005984:	d501      	bpl.n	800598a <netif_set_down+0x18>
 8005986:	f003 bc8b 	b.w	80092a0 <etharp_cleanup_netif>
 800598a:	4770      	bx	lr

0800598c <netif_set_link_callback>:
 800598c:	b100      	cbz	r0, 8005990 <netif_set_link_callback+0x4>
 800598e:	61c1      	str	r1, [r0, #28]
 8005990:	4770      	bx	lr
	...

08005994 <pbuf_header_impl>:
 8005994:	b570      	push	{r4, r5, r6, lr}
 8005996:	4604      	mov	r4, r0
 8005998:	bb70      	cbnz	r0, 80059f8 <pbuf_header_impl+0x64>
 800599a:	f240 223f 	movw	r2, #575	; 0x23f
 800599e:	4b1f      	ldr	r3, [pc, #124]	; (8005a1c <pbuf_header_impl+0x88>)
 80059a0:	491f      	ldr	r1, [pc, #124]	; (8005a20 <pbuf_header_impl+0x8c>)
 80059a2:	4820      	ldr	r0, [pc, #128]	; (8005a24 <pbuf_header_impl+0x90>)
 80059a4:	f004 ff68 	bl	800a878 <iprintf>
 80059a8:	2000      	movs	r0, #0
 80059aa:	bd70      	pop	{r4, r5, r6, pc}
 80059ac:	461d      	mov	r5, r3
 80059ae:	7b26      	ldrb	r6, [r4, #12]
 80059b0:	6860      	ldr	r0, [r4, #4]
 80059b2:	b10e      	cbz	r6, 80059b8 <pbuf_header_impl+0x24>
 80059b4:	2e03      	cmp	r6, #3
 80059b6:	d106      	bne.n	80059c6 <pbuf_header_impl+0x32>
 80059b8:	1a40      	subs	r0, r0, r1
 80059ba:	f104 0210 	add.w	r2, r4, #16
 80059be:	4290      	cmp	r0, r2
 80059c0:	d20a      	bcs.n	80059d8 <pbuf_header_impl+0x44>
 80059c2:	2001      	movs	r0, #1
 80059c4:	e7f1      	b.n	80059aa <pbuf_header_impl+0x16>
 80059c6:	3e01      	subs	r6, #1
 80059c8:	2e01      	cmp	r6, #1
 80059ca:	d810      	bhi.n	80059ee <pbuf_header_impl+0x5a>
 80059cc:	2900      	cmp	r1, #0
 80059ce:	da0b      	bge.n	80059e8 <pbuf_header_impl+0x54>
 80059d0:	8962      	ldrh	r2, [r4, #10]
 80059d2:	42aa      	cmp	r2, r5
 80059d4:	d3f5      	bcc.n	80059c2 <pbuf_header_impl+0x2e>
 80059d6:	1a40      	subs	r0, r0, r1
 80059d8:	8962      	ldrh	r2, [r4, #10]
 80059da:	6060      	str	r0, [r4, #4]
 80059dc:	441a      	add	r2, r3
 80059de:	8162      	strh	r2, [r4, #10]
 80059e0:	8922      	ldrh	r2, [r4, #8]
 80059e2:	4413      	add	r3, r2
 80059e4:	8123      	strh	r3, [r4, #8]
 80059e6:	e7df      	b.n	80059a8 <pbuf_header_impl+0x14>
 80059e8:	2a00      	cmp	r2, #0
 80059ea:	d1f4      	bne.n	80059d6 <pbuf_header_impl+0x42>
 80059ec:	e7e9      	b.n	80059c2 <pbuf_header_impl+0x2e>
 80059ee:	f240 2277 	movw	r2, #631	; 0x277
 80059f2:	4b0a      	ldr	r3, [pc, #40]	; (8005a1c <pbuf_header_impl+0x88>)
 80059f4:	490c      	ldr	r1, [pc, #48]	; (8005a28 <pbuf_header_impl+0x94>)
 80059f6:	e00c      	b.n	8005a12 <pbuf_header_impl+0x7e>
 80059f8:	2900      	cmp	r1, #0
 80059fa:	d0d5      	beq.n	80059a8 <pbuf_header_impl+0x14>
 80059fc:	b28b      	uxth	r3, r1
 80059fe:	dad5      	bge.n	80059ac <pbuf_header_impl+0x18>
 8005a00:	8960      	ldrh	r0, [r4, #10]
 8005a02:	425d      	negs	r5, r3
 8005a04:	b2ad      	uxth	r5, r5
 8005a06:	42a8      	cmp	r0, r5
 8005a08:	d2d1      	bcs.n	80059ae <pbuf_header_impl+0x1a>
 8005a0a:	f240 2247 	movw	r2, #583	; 0x247
 8005a0e:	4b03      	ldr	r3, [pc, #12]	; (8005a1c <pbuf_header_impl+0x88>)
 8005a10:	4906      	ldr	r1, [pc, #24]	; (8005a2c <pbuf_header_impl+0x98>)
 8005a12:	4804      	ldr	r0, [pc, #16]	; (8005a24 <pbuf_header_impl+0x90>)
 8005a14:	f004 ff30 	bl	800a878 <iprintf>
 8005a18:	e7d3      	b.n	80059c2 <pbuf_header_impl+0x2e>
 8005a1a:	bf00      	nop
 8005a1c:	0800c01c 	.word	0x0800c01c
 8005a20:	0800c19e 	.word	0x0800c19e
 8005a24:	0800bcae 	.word	0x0800bcae
 8005a28:	0800c06a 	.word	0x0800c06a
 8005a2c:	0800c04c 	.word	0x0800c04c

08005a30 <pbuf_free_ooseq>:
 8005a30:	2200      	movs	r2, #0
 8005a32:	4b07      	ldr	r3, [pc, #28]	; (8005a50 <pbuf_free_ooseq+0x20>)
 8005a34:	b510      	push	{r4, lr}
 8005a36:	701a      	strb	r2, [r3, #0]
 8005a38:	4b06      	ldr	r3, [pc, #24]	; (8005a54 <pbuf_free_ooseq+0x24>)
 8005a3a:	681c      	ldr	r4, [r3, #0]
 8005a3c:	b12c      	cbz	r4, 8005a4a <pbuf_free_ooseq+0x1a>
 8005a3e:	6f20      	ldr	r0, [r4, #112]	; 0x70
 8005a40:	b120      	cbz	r0, 8005a4c <pbuf_free_ooseq+0x1c>
 8005a42:	f000 fc1f 	bl	8006284 <tcp_segs_free>
 8005a46:	2300      	movs	r3, #0
 8005a48:	6723      	str	r3, [r4, #112]	; 0x70
 8005a4a:	bd10      	pop	{r4, pc}
 8005a4c:	68e4      	ldr	r4, [r4, #12]
 8005a4e:	e7f5      	b.n	8005a3c <pbuf_free_ooseq+0xc>
 8005a50:	20006b84 	.word	0x20006b84
 8005a54:	20006b8c 	.word	0x20006b8c

08005a58 <pbuf_alloced_custom>:
 8005a58:	b570      	push	{r4, r5, r6, lr}
 8005a5a:	2804      	cmp	r0, #4
 8005a5c:	9d04      	ldr	r5, [sp, #16]
 8005a5e:	d80c      	bhi.n	8005a7a <pbuf_alloced_custom+0x22>
 8005a60:	4c11      	ldr	r4, [pc, #68]	; (8005aa8 <pbuf_alloced_custom+0x50>)
 8005a62:	5c24      	ldrb	r4, [r4, r0]
 8005a64:	f8bd 0014 	ldrh.w	r0, [sp, #20]
 8005a68:	3403      	adds	r4, #3
 8005a6a:	f024 0403 	bic.w	r4, r4, #3
 8005a6e:	190e      	adds	r6, r1, r4
 8005a70:	4286      	cmp	r6, r0
 8005a72:	f04f 0000 	mov.w	r0, #0
 8005a76:	d909      	bls.n	8005a8c <pbuf_alloced_custom+0x34>
 8005a78:	bd70      	pop	{r4, r5, r6, pc}
 8005a7a:	f240 12c5 	movw	r2, #453	; 0x1c5
 8005a7e:	4b0b      	ldr	r3, [pc, #44]	; (8005aac <pbuf_alloced_custom+0x54>)
 8005a80:	490b      	ldr	r1, [pc, #44]	; (8005ab0 <pbuf_alloced_custom+0x58>)
 8005a82:	480c      	ldr	r0, [pc, #48]	; (8005ab4 <pbuf_alloced_custom+0x5c>)
 8005a84:	f004 fef8 	bl	800a878 <iprintf>
 8005a88:	2000      	movs	r0, #0
 8005a8a:	e7f5      	b.n	8005a78 <pbuf_alloced_custom+0x20>
 8005a8c:	6018      	str	r0, [r3, #0]
 8005a8e:	b105      	cbz	r5, 8005a92 <pbuf_alloced_custom+0x3a>
 8005a90:	4425      	add	r5, r4
 8005a92:	2002      	movs	r0, #2
 8005a94:	731a      	strb	r2, [r3, #12]
 8005a96:	2201      	movs	r2, #1
 8005a98:	7358      	strb	r0, [r3, #13]
 8005a9a:	605d      	str	r5, [r3, #4]
 8005a9c:	4618      	mov	r0, r3
 8005a9e:	8119      	strh	r1, [r3, #8]
 8005aa0:	8159      	strh	r1, [r3, #10]
 8005aa2:	81da      	strh	r2, [r3, #14]
 8005aa4:	e7e8      	b.n	8005a78 <pbuf_alloced_custom+0x20>
 8005aa6:	bf00      	nop
 8005aa8:	0800c3e7 	.word	0x0800c3e7
 8005aac:	0800c01c 	.word	0x0800c01c
 8005ab0:	0800c078 	.word	0x0800c078
 8005ab4:	0800bcae 	.word	0x0800bcae

08005ab8 <pbuf_header>:
 8005ab8:	2200      	movs	r2, #0
 8005aba:	f7ff bf6b 	b.w	8005994 <pbuf_header_impl>

08005abe <pbuf_header_force>:
 8005abe:	2201      	movs	r2, #1
 8005ac0:	f7ff bf68 	b.w	8005994 <pbuf_header_impl>

08005ac4 <pbuf_free>:
 8005ac4:	e92d 43f8 	stmdb	sp!, {r3, r4, r5, r6, r7, r8, r9, lr}
 8005ac8:	4604      	mov	r4, r0
 8005aca:	b950      	cbnz	r0, 8005ae2 <pbuf_free+0x1e>
 8005acc:	f240 22d2 	movw	r2, #722	; 0x2d2
 8005ad0:	4b28      	ldr	r3, [pc, #160]	; (8005b74 <pbuf_free+0xb0>)
 8005ad2:	4929      	ldr	r1, [pc, #164]	; (8005b78 <pbuf_free+0xb4>)
 8005ad4:	4829      	ldr	r0, [pc, #164]	; (8005b7c <pbuf_free+0xb8>)
 8005ad6:	f004 fecf 	bl	800a878 <iprintf>
 8005ada:	4625      	mov	r5, r4
 8005adc:	4628      	mov	r0, r5
 8005ade:	e8bd 83f8 	ldmia.w	sp!, {r3, r4, r5, r6, r7, r8, r9, pc}
 8005ae2:	7b03      	ldrb	r3, [r0, #12]
 8005ae4:	2b03      	cmp	r3, #3
 8005ae6:	d906      	bls.n	8005af6 <pbuf_free+0x32>
 8005ae8:	f44f 7237 	mov.w	r2, #732	; 0x2dc
 8005aec:	4b21      	ldr	r3, [pc, #132]	; (8005b74 <pbuf_free+0xb0>)
 8005aee:	4924      	ldr	r1, [pc, #144]	; (8005b80 <pbuf_free+0xbc>)
 8005af0:	4822      	ldr	r0, [pc, #136]	; (8005b7c <pbuf_free+0xb8>)
 8005af2:	f004 fec1 	bl	800a878 <iprintf>
 8005af6:	2500      	movs	r5, #0
 8005af8:	4e1e      	ldr	r6, [pc, #120]	; (8005b74 <pbuf_free+0xb0>)
 8005afa:	f8df 808c 	ldr.w	r8, [pc, #140]	; 8005b88 <pbuf_free+0xc4>
 8005afe:	4f1f      	ldr	r7, [pc, #124]	; (8005b7c <pbuf_free+0xb8>)
 8005b00:	89e3      	ldrh	r3, [r4, #14]
 8005b02:	b933      	cbnz	r3, 8005b12 <pbuf_free+0x4e>
 8005b04:	4633      	mov	r3, r6
 8005b06:	f240 22eb 	movw	r2, #747	; 0x2eb
 8005b0a:	4641      	mov	r1, r8
 8005b0c:	4638      	mov	r0, r7
 8005b0e:	f004 feb3 	bl	800a878 <iprintf>
 8005b12:	89e3      	ldrh	r3, [r4, #14]
 8005b14:	3b01      	subs	r3, #1
 8005b16:	b29b      	uxth	r3, r3
 8005b18:	81e3      	strh	r3, [r4, #14]
 8005b1a:	2b00      	cmp	r3, #0
 8005b1c:	d1de      	bne.n	8005adc <pbuf_free+0x18>
 8005b1e:	7b63      	ldrb	r3, [r4, #13]
 8005b20:	f8d4 9000 	ldr.w	r9, [r4]
 8005b24:	079b      	lsls	r3, r3, #30
 8005b26:	d512      	bpl.n	8005b4e <pbuf_free+0x8a>
 8005b28:	6923      	ldr	r3, [r4, #16]
 8005b2a:	b933      	cbnz	r3, 8005b3a <pbuf_free+0x76>
 8005b2c:	4633      	mov	r3, r6
 8005b2e:	f240 22f9 	movw	r2, #761	; 0x2f9
 8005b32:	4638      	mov	r0, r7
 8005b34:	4913      	ldr	r1, [pc, #76]	; (8005b84 <pbuf_free+0xc0>)
 8005b36:	f004 fe9f 	bl	800a878 <iprintf>
 8005b3a:	4620      	mov	r0, r4
 8005b3c:	6923      	ldr	r3, [r4, #16]
 8005b3e:	4798      	blx	r3
 8005b40:	3501      	adds	r5, #1
 8005b42:	b2ed      	uxtb	r5, r5
 8005b44:	f1b9 0f00 	cmp.w	r9, #0
 8005b48:	d0c8      	beq.n	8005adc <pbuf_free+0x18>
 8005b4a:	464c      	mov	r4, r9
 8005b4c:	e7d8      	b.n	8005b00 <pbuf_free+0x3c>
 8005b4e:	7b23      	ldrb	r3, [r4, #12]
 8005b50:	2b03      	cmp	r3, #3
 8005b52:	d104      	bne.n	8005b5e <pbuf_free+0x9a>
 8005b54:	4621      	mov	r1, r4
 8005b56:	2008      	movs	r0, #8
 8005b58:	f7ff fe50 	bl	80057fc <memp_free>
 8005b5c:	e7f0      	b.n	8005b40 <pbuf_free+0x7c>
 8005b5e:	3b01      	subs	r3, #1
 8005b60:	2b01      	cmp	r3, #1
 8005b62:	d802      	bhi.n	8005b6a <pbuf_free+0xa6>
 8005b64:	4621      	mov	r1, r4
 8005b66:	2007      	movs	r0, #7
 8005b68:	e7f6      	b.n	8005b58 <pbuf_free+0x94>
 8005b6a:	4620      	mov	r0, r4
 8005b6c:	f7ff fc2a 	bl	80053c4 <mem_free>
 8005b70:	e7e6      	b.n	8005b40 <pbuf_free+0x7c>
 8005b72:	bf00      	nop
 8005b74:	0800c01c 	.word	0x0800c01c
 8005b78:	0800c19e 	.word	0x0800c19e
 8005b7c:	0800bcae 	.word	0x0800bcae
 8005b80:	0800c09c 	.word	0x0800c09c
 8005b84:	0800c0c7 	.word	0x0800c0c7
 8005b88:	0800c0b1 	.word	0x0800c0b1

08005b8c <pbuf_alloc>:
 8005b8c:	2804      	cmp	r0, #4
 8005b8e:	e92d 4ff8 	stmdb	sp!, {r3, r4, r5, r6, r7, r8, r9, sl, fp, lr}
 8005b92:	460e      	mov	r6, r1
 8005b94:	4617      	mov	r7, r2
 8005b96:	d819      	bhi.n	8005bcc <pbuf_alloc+0x40>
 8005b98:	4b5d      	ldr	r3, [pc, #372]	; (8005d10 <pbuf_alloc+0x184>)
 8005b9a:	2a02      	cmp	r2, #2
 8005b9c:	5c1d      	ldrb	r5, [r3, r0]
 8005b9e:	d80e      	bhi.n	8005bbe <pbuf_alloc+0x32>
 8005ba0:	2a00      	cmp	r2, #0
 8005ba2:	f000 809a 	beq.w	8005cda <pbuf_alloc+0x14e>
 8005ba6:	2007      	movs	r0, #7
 8005ba8:	f7ff fe0c 	bl	80057c4 <memp_malloc>
 8005bac:	4604      	mov	r4, r0
 8005bae:	2800      	cmp	r0, #0
 8005bb0:	d05a      	beq.n	8005c68 <pbuf_alloc+0xdc>
 8005bb2:	2300      	movs	r3, #0
 8005bb4:	8106      	strh	r6, [r0, #8]
 8005bb6:	6043      	str	r3, [r0, #4]
 8005bb8:	8146      	strh	r6, [r0, #10]
 8005bba:	6003      	str	r3, [r0, #0]
 8005bbc:	e0a5      	b.n	8005d0a <pbuf_alloc+0x17e>
 8005bbe:	2a03      	cmp	r2, #3
 8005bc0:	d00c      	beq.n	8005bdc <pbuf_alloc+0x50>
 8005bc2:	f44f 72c6 	mov.w	r2, #396	; 0x18c
 8005bc6:	4b53      	ldr	r3, [pc, #332]	; (8005d14 <pbuf_alloc+0x188>)
 8005bc8:	4953      	ldr	r1, [pc, #332]	; (8005d18 <pbuf_alloc+0x18c>)
 8005bca:	e003      	b.n	8005bd4 <pbuf_alloc+0x48>
 8005bcc:	f44f 728b 	mov.w	r2, #278	; 0x116
 8005bd0:	4b50      	ldr	r3, [pc, #320]	; (8005d14 <pbuf_alloc+0x188>)
 8005bd2:	4952      	ldr	r1, [pc, #328]	; (8005d1c <pbuf_alloc+0x190>)
 8005bd4:	4852      	ldr	r0, [pc, #328]	; (8005d20 <pbuf_alloc+0x194>)
 8005bd6:	f004 fe4f 	bl	800a878 <iprintf>
 8005bda:	e045      	b.n	8005c68 <pbuf_alloc+0xdc>
 8005bdc:	2008      	movs	r0, #8
 8005bde:	f7ff fdf1 	bl	80057c4 <memp_malloc>
 8005be2:	4604      	mov	r4, r0
 8005be4:	b928      	cbnz	r0, 8005bf2 <pbuf_alloc+0x66>
 8005be6:	2201      	movs	r2, #1
 8005be8:	4b4e      	ldr	r3, [pc, #312]	; (8005d24 <pbuf_alloc+0x198>)
 8005bea:	701a      	strb	r2, [r3, #0]
 8005bec:	4620      	mov	r0, r4
 8005bee:	e8bd 8ff8 	ldmia.w	sp!, {r3, r4, r5, r6, r7, r8, r9, sl, fp, pc}
 8005bf2:	2300      	movs	r3, #0
 8005bf4:	6003      	str	r3, [r0, #0]
 8005bf6:	1943      	adds	r3, r0, r5
 8005bf8:	3503      	adds	r5, #3
 8005bfa:	f025 0503 	bic.w	r5, r5, #3
 8005bfe:	f5c5 7514 	rsb	r5, r5, #592	; 0x250
 8005c02:	42b5      	cmp	r5, r6
 8005c04:	bf28      	it	cs
 8005c06:	4635      	movcs	r5, r6
 8005c08:	3313      	adds	r3, #19
 8005c0a:	f023 0303 	bic.w	r3, r3, #3
 8005c0e:	7307      	strb	r7, [r0, #12]
 8005c10:	6043      	str	r3, [r0, #4]
 8005c12:	f500 7718 	add.w	r7, r0, #608	; 0x260
 8005c16:	442b      	add	r3, r5
 8005c18:	429f      	cmp	r7, r3
 8005c1a:	8106      	strh	r6, [r0, #8]
 8005c1c:	8145      	strh	r5, [r0, #10]
 8005c1e:	d206      	bcs.n	8005c2e <pbuf_alloc+0xa2>
 8005c20:	f44f 7297 	mov.w	r2, #302	; 0x12e
 8005c24:	4b3b      	ldr	r3, [pc, #236]	; (8005d14 <pbuf_alloc+0x188>)
 8005c26:	4940      	ldr	r1, [pc, #256]	; (8005d28 <pbuf_alloc+0x19c>)
 8005c28:	483d      	ldr	r0, [pc, #244]	; (8005d20 <pbuf_alloc+0x194>)
 8005c2a:	f004 fe25 	bl	800a878 <iprintf>
 8005c2e:	2301      	movs	r3, #1
 8005c30:	46a3      	mov	fp, r4
 8005c32:	8961      	ldrh	r1, [r4, #10]
 8005c34:	f8df 80dc 	ldr.w	r8, [pc, #220]	; 8005d14 <pbuf_alloc+0x188>
 8005c38:	f8df a0f4 	ldr.w	sl, [pc, #244]	; 8005d30 <pbuf_alloc+0x1a4>
 8005c3c:	f8df 90e0 	ldr.w	r9, [pc, #224]	; 8005d20 <pbuf_alloc+0x194>
 8005c40:	81e3      	strh	r3, [r4, #14]
 8005c42:	1a76      	subs	r6, r6, r1
 8005c44:	2e00      	cmp	r6, #0
 8005c46:	dc04      	bgt.n	8005c52 <pbuf_alloc+0xc6>
 8005c48:	2301      	movs	r3, #1
 8005c4a:	81e3      	strh	r3, [r4, #14]
 8005c4c:	2300      	movs	r3, #0
 8005c4e:	7363      	strb	r3, [r4, #13]
 8005c50:	e7cc      	b.n	8005bec <pbuf_alloc+0x60>
 8005c52:	2008      	movs	r0, #8
 8005c54:	f7ff fdb6 	bl	80057c4 <memp_malloc>
 8005c58:	4605      	mov	r5, r0
 8005c5a:	b938      	cbnz	r0, 8005c6c <pbuf_alloc+0xe0>
 8005c5c:	2201      	movs	r2, #1
 8005c5e:	4b31      	ldr	r3, [pc, #196]	; (8005d24 <pbuf_alloc+0x198>)
 8005c60:	4620      	mov	r0, r4
 8005c62:	701a      	strb	r2, [r3, #0]
 8005c64:	f7ff ff2e 	bl	8005ac4 <pbuf_free>
 8005c68:	2400      	movs	r4, #0
 8005c6a:	e7bf      	b.n	8005bec <pbuf_alloc+0x60>
 8005c6c:	2303      	movs	r3, #3
 8005c6e:	8183      	strh	r3, [r0, #12]
 8005c70:	2300      	movs	r3, #0
 8005c72:	6003      	str	r3, [r0, #0]
 8005c74:	f64f 73ff 	movw	r3, #65535	; 0xffff
 8005c78:	429e      	cmp	r6, r3
 8005c7a:	f8cb 0000 	str.w	r0, [fp]
 8005c7e:	d106      	bne.n	8005c8e <pbuf_alloc+0x102>
 8005c80:	4643      	mov	r3, r8
 8005c82:	f44f 72a6 	mov.w	r2, #332	; 0x14c
 8005c86:	4651      	mov	r1, sl
 8005c88:	4648      	mov	r0, r9
 8005c8a:	f004 fdf5 	bl	800a878 <iprintf>
 8005c8e:	b2b3      	uxth	r3, r6
 8005c90:	f5b3 7f14 	cmp.w	r3, #592	; 0x250
 8005c94:	812b      	strh	r3, [r5, #8]
 8005c96:	bf28      	it	cs
 8005c98:	f44f 7314 	movcs.w	r3, #592	; 0x250
 8005c9c:	816b      	strh	r3, [r5, #10]
 8005c9e:	f105 0310 	add.w	r3, r5, #16
 8005ca2:	606b      	str	r3, [r5, #4]
 8005ca4:	079b      	lsls	r3, r3, #30
 8005ca6:	d006      	beq.n	8005cb6 <pbuf_alloc+0x12a>
 8005ca8:	4643      	mov	r3, r8
 8005caa:	f240 1251 	movw	r2, #337	; 0x151
 8005cae:	4648      	mov	r0, r9
 8005cb0:	491e      	ldr	r1, [pc, #120]	; (8005d2c <pbuf_alloc+0x1a0>)
 8005cb2:	f004 fde1 	bl	800a878 <iprintf>
 8005cb6:	8962      	ldrh	r2, [r4, #10]
 8005cb8:	6863      	ldr	r3, [r4, #4]
 8005cba:	4413      	add	r3, r2
 8005cbc:	429f      	cmp	r7, r3
 8005cbe:	d206      	bcs.n	8005cce <pbuf_alloc+0x142>
 8005cc0:	4643      	mov	r3, r8
 8005cc2:	f240 1253 	movw	r2, #339	; 0x153
 8005cc6:	4648      	mov	r0, r9
 8005cc8:	4917      	ldr	r1, [pc, #92]	; (8005d28 <pbuf_alloc+0x19c>)
 8005cca:	f004 fdd5 	bl	800a878 <iprintf>
 8005cce:	2301      	movs	r3, #1
 8005cd0:	81eb      	strh	r3, [r5, #14]
 8005cd2:	896b      	ldrh	r3, [r5, #10]
 8005cd4:	46ab      	mov	fp, r5
 8005cd6:	1af6      	subs	r6, r6, r3
 8005cd8:	e7b4      	b.n	8005c44 <pbuf_alloc+0xb8>
 8005cda:	f105 0013 	add.w	r0, r5, #19
 8005cde:	1ccb      	adds	r3, r1, #3
 8005ce0:	f023 0303 	bic.w	r3, r3, #3
 8005ce4:	f020 0003 	bic.w	r0, r0, #3
 8005ce8:	4418      	add	r0, r3
 8005cea:	b280      	uxth	r0, r0
 8005cec:	4298      	cmp	r0, r3
 8005cee:	d3bb      	bcc.n	8005c68 <pbuf_alloc+0xdc>
 8005cf0:	f7ff fc8a 	bl	8005608 <mem_malloc>
 8005cf4:	4604      	mov	r4, r0
 8005cf6:	2800      	cmp	r0, #0
 8005cf8:	d0b6      	beq.n	8005c68 <pbuf_alloc+0xdc>
 8005cfa:	4405      	add	r5, r0
 8005cfc:	3513      	adds	r5, #19
 8005cfe:	f025 0503 	bic.w	r5, r5, #3
 8005d02:	6045      	str	r5, [r0, #4]
 8005d04:	8106      	strh	r6, [r0, #8]
 8005d06:	8146      	strh	r6, [r0, #10]
 8005d08:	6007      	str	r7, [r0, #0]
 8005d0a:	7327      	strb	r7, [r4, #12]
 8005d0c:	e79c      	b.n	8005c48 <pbuf_alloc+0xbc>
 8005d0e:	bf00      	nop
 8005d10:	0800c3e7 	.word	0x0800c3e7
 8005d14:	0800c01c 	.word	0x0800c01c
 8005d18:	0800c175 	.word	0x0800c175
 8005d1c:	0800c0e8 	.word	0x0800c0e8
 8005d20:	0800bcae 	.word	0x0800bcae
 8005d24:	20006b84 	.word	0x20006b84
 8005d28:	0800c103 	.word	0x0800c103
 8005d2c:	0800c148 	.word	0x0800c148
 8005d30:	0800c134 	.word	0x0800c134

08005d34 <pbuf_realloc>:
 8005d34:	e92d 43f8 	stmdb	sp!, {r3, r4, r5, r6, r7, r8, r9, lr}
 8005d38:	460d      	mov	r5, r1
 8005d3a:	4604      	mov	r4, r0
 8005d3c:	b930      	cbnz	r0, 8005d4c <pbuf_realloc+0x18>
 8005d3e:	f240 12f3 	movw	r2, #499	; 0x1f3
 8005d42:	4b2d      	ldr	r3, [pc, #180]	; (8005df8 <pbuf_realloc+0xc4>)
 8005d44:	492d      	ldr	r1, [pc, #180]	; (8005dfc <pbuf_realloc+0xc8>)
 8005d46:	482e      	ldr	r0, [pc, #184]	; (8005e00 <pbuf_realloc+0xcc>)
 8005d48:	f004 fd96 	bl	800a878 <iprintf>
 8005d4c:	7b23      	ldrb	r3, [r4, #12]
 8005d4e:	2b03      	cmp	r3, #3
 8005d50:	d906      	bls.n	8005d60 <pbuf_realloc+0x2c>
 8005d52:	f44f 72fa 	mov.w	r2, #500	; 0x1f4
 8005d56:	4b28      	ldr	r3, [pc, #160]	; (8005df8 <pbuf_realloc+0xc4>)
 8005d58:	492a      	ldr	r1, [pc, #168]	; (8005e04 <pbuf_realloc+0xd0>)
 8005d5a:	4829      	ldr	r0, [pc, #164]	; (8005e00 <pbuf_realloc+0xcc>)
 8005d5c:	f004 fd8c 	bl	800a878 <iprintf>
 8005d60:	8926      	ldrh	r6, [r4, #8]
 8005d62:	42ae      	cmp	r6, r5
 8005d64:	d945      	bls.n	8005df2 <pbuf_realloc+0xbe>
 8005d66:	f8df 9090 	ldr.w	r9, [pc, #144]	; 8005df8 <pbuf_realloc+0xc4>
 8005d6a:	f8df 80a4 	ldr.w	r8, [pc, #164]	; 8005e10 <pbuf_realloc+0xdc>
 8005d6e:	4f24      	ldr	r7, [pc, #144]	; (8005e00 <pbuf_realloc+0xcc>)
 8005d70:	1bae      	subs	r6, r5, r6
 8005d72:	8961      	ldrh	r1, [r4, #10]
 8005d74:	42a9      	cmp	r1, r5
 8005d76:	d319      	bcc.n	8005dac <pbuf_realloc+0x78>
 8005d78:	7b23      	ldrb	r3, [r4, #12]
 8005d7a:	2b00      	cmp	r3, #0
 8005d7c:	d131      	bne.n	8005de2 <pbuf_realloc+0xae>
 8005d7e:	42a9      	cmp	r1, r5
 8005d80:	d02f      	beq.n	8005de2 <pbuf_realloc+0xae>
 8005d82:	7b63      	ldrb	r3, [r4, #13]
 8005d84:	079b      	lsls	r3, r3, #30
 8005d86:	d42c      	bmi.n	8005de2 <pbuf_realloc+0xae>
 8005d88:	6861      	ldr	r1, [r4, #4]
 8005d8a:	4620      	mov	r0, r4
 8005d8c:	1b09      	subs	r1, r1, r4
 8005d8e:	4429      	add	r1, r5
 8005d90:	b289      	uxth	r1, r1
 8005d92:	f7ff fbc1 	bl	8005518 <mem_trim>
 8005d96:	4604      	mov	r4, r0
 8005d98:	bb18      	cbnz	r0, 8005de2 <pbuf_realloc+0xae>
 8005d9a:	f240 221d 	movw	r2, #541	; 0x21d
 8005d9e:	4b16      	ldr	r3, [pc, #88]	; (8005df8 <pbuf_realloc+0xc4>)
 8005da0:	4919      	ldr	r1, [pc, #100]	; (8005e08 <pbuf_realloc+0xd4>)
 8005da2:	4817      	ldr	r0, [pc, #92]	; (8005e00 <pbuf_realloc+0xcc>)
 8005da4:	f004 fd68 	bl	800a878 <iprintf>
 8005da8:	8164      	strh	r4, [r4, #10]
 8005daa:	deff      	udf	#255	; 0xff
 8005dac:	f64f 73ff 	movw	r3, #65535	; 0xffff
 8005db0:	1a6d      	subs	r5, r5, r1
 8005db2:	429e      	cmp	r6, r3
 8005db4:	b2ad      	uxth	r5, r5
 8005db6:	d106      	bne.n	8005dc6 <pbuf_realloc+0x92>
 8005db8:	464b      	mov	r3, r9
 8005dba:	f240 220b 	movw	r2, #523	; 0x20b
 8005dbe:	4641      	mov	r1, r8
 8005dc0:	4638      	mov	r0, r7
 8005dc2:	f004 fd59 	bl	800a878 <iprintf>
 8005dc6:	8922      	ldrh	r2, [r4, #8]
 8005dc8:	4432      	add	r2, r6
 8005dca:	8122      	strh	r2, [r4, #8]
 8005dcc:	6824      	ldr	r4, [r4, #0]
 8005dce:	2c00      	cmp	r4, #0
 8005dd0:	d1cf      	bne.n	8005d72 <pbuf_realloc+0x3e>
 8005dd2:	464b      	mov	r3, r9
 8005dd4:	f240 220f 	movw	r2, #527	; 0x20f
 8005dd8:	4638      	mov	r0, r7
 8005dda:	490c      	ldr	r1, [pc, #48]	; (8005e0c <pbuf_realloc+0xd8>)
 8005ddc:	f004 fd4c 	bl	800a878 <iprintf>
 8005de0:	e7c7      	b.n	8005d72 <pbuf_realloc+0x3e>
 8005de2:	6820      	ldr	r0, [r4, #0]
 8005de4:	8165      	strh	r5, [r4, #10]
 8005de6:	8125      	strh	r5, [r4, #8]
 8005de8:	b108      	cbz	r0, 8005dee <pbuf_realloc+0xba>
 8005dea:	f7ff fe6b 	bl	8005ac4 <pbuf_free>
 8005dee:	2300      	movs	r3, #0
 8005df0:	6023      	str	r3, [r4, #0]
 8005df2:	e8bd 83f8 	ldmia.w	sp!, {r3, r4, r5, r6, r7, r8, r9, pc}
 8005df6:	bf00      	nop
 8005df8:	0800c01c 	.word	0x0800c01c
 8005dfc:	0800c190 	.word	0x0800c190
 8005e00:	0800bcae 	.word	0x0800bcae
 8005e04:	0800c1a8 	.word	0x0800c1a8
 8005e08:	0800c1ec 	.word	0x0800c1ec
 8005e0c:	0800c1d4 	.word	0x0800c1d4
 8005e10:	0800c1c3 	.word	0x0800c1c3

08005e14 <pbuf_clen>:
 8005e14:	4603      	mov	r3, r0
 8005e16:	2200      	movs	r2, #0
 8005e18:	b290      	uxth	r0, r2
 8005e1a:	3201      	adds	r2, #1
 8005e1c:	b903      	cbnz	r3, 8005e20 <pbuf_clen+0xc>
 8005e1e:	4770      	bx	lr
 8005e20:	681b      	ldr	r3, [r3, #0]
 8005e22:	e7f9      	b.n	8005e18 <pbuf_clen+0x4>

08005e24 <pbuf_ref>:
 8005e24:	b158      	cbz	r0, 8005e3e <pbuf_ref+0x1a>
 8005e26:	89c3      	ldrh	r3, [r0, #14]
 8005e28:	3301      	adds	r3, #1
 8005e2a:	b29b      	uxth	r3, r3
 8005e2c:	81c3      	strh	r3, [r0, #14]
 8005e2e:	b933      	cbnz	r3, 8005e3e <pbuf_ref+0x1a>
 8005e30:	f240 3239 	movw	r2, #825	; 0x339
 8005e34:	4b02      	ldr	r3, [pc, #8]	; (8005e40 <pbuf_ref+0x1c>)
 8005e36:	4903      	ldr	r1, [pc, #12]	; (8005e44 <pbuf_ref+0x20>)
 8005e38:	4803      	ldr	r0, [pc, #12]	; (8005e48 <pbuf_ref+0x24>)
 8005e3a:	f004 bd1d 	b.w	800a878 <iprintf>
 8005e3e:	4770      	bx	lr
 8005e40:	0800c01c 	.word	0x0800c01c
 8005e44:	0800c208 	.word	0x0800c208
 8005e48:	0800bcae 	.word	0x0800bcae

08005e4c <pbuf_cat>:
 8005e4c:	b570      	push	{r4, r5, r6, lr}
 8005e4e:	460d      	mov	r5, r1
 8005e50:	4604      	mov	r4, r0
 8005e52:	b100      	cbz	r0, 8005e56 <pbuf_cat+0xa>
 8005e54:	b961      	cbnz	r1, 8005e70 <pbuf_cat+0x24>
 8005e56:	e8bd 4070 	ldmia.w	sp!, {r4, r5, r6, lr}
 8005e5a:	f44f 7253 	mov.w	r2, #844	; 0x34c
 8005e5e:	4b13      	ldr	r3, [pc, #76]	; (8005eac <pbuf_cat+0x60>)
 8005e60:	4913      	ldr	r1, [pc, #76]	; (8005eb0 <pbuf_cat+0x64>)
 8005e62:	4814      	ldr	r0, [pc, #80]	; (8005eb4 <pbuf_cat+0x68>)
 8005e64:	f004 bd08 	b.w	800a878 <iprintf>
 8005e68:	8929      	ldrh	r1, [r5, #8]
 8005e6a:	440b      	add	r3, r1
 8005e6c:	8123      	strh	r3, [r4, #8]
 8005e6e:	4614      	mov	r4, r2
 8005e70:	6822      	ldr	r2, [r4, #0]
 8005e72:	8923      	ldrh	r3, [r4, #8]
 8005e74:	2a00      	cmp	r2, #0
 8005e76:	d1f7      	bne.n	8005e68 <pbuf_cat+0x1c>
 8005e78:	8962      	ldrh	r2, [r4, #10]
 8005e7a:	429a      	cmp	r2, r3
 8005e7c:	d00f      	beq.n	8005e9e <pbuf_cat+0x52>
 8005e7e:	4b0b      	ldr	r3, [pc, #44]	; (8005eac <pbuf_cat+0x60>)
 8005e80:	f240 3255 	movw	r2, #853	; 0x355
 8005e84:	490c      	ldr	r1, [pc, #48]	; (8005eb8 <pbuf_cat+0x6c>)
 8005e86:	480b      	ldr	r0, [pc, #44]	; (8005eb4 <pbuf_cat+0x68>)
 8005e88:	f004 fcf6 	bl	800a878 <iprintf>
 8005e8c:	6823      	ldr	r3, [r4, #0]
 8005e8e:	b133      	cbz	r3, 8005e9e <pbuf_cat+0x52>
 8005e90:	f240 3256 	movw	r2, #854	; 0x356
 8005e94:	4b05      	ldr	r3, [pc, #20]	; (8005eac <pbuf_cat+0x60>)
 8005e96:	4909      	ldr	r1, [pc, #36]	; (8005ebc <pbuf_cat+0x70>)
 8005e98:	4806      	ldr	r0, [pc, #24]	; (8005eb4 <pbuf_cat+0x68>)
 8005e9a:	f004 fced 	bl	800a878 <iprintf>
 8005e9e:	892a      	ldrh	r2, [r5, #8]
 8005ea0:	8923      	ldrh	r3, [r4, #8]
 8005ea2:	6025      	str	r5, [r4, #0]
 8005ea4:	4413      	add	r3, r2
 8005ea6:	8123      	strh	r3, [r4, #8]
 8005ea8:	bd70      	pop	{r4, r5, r6, pc}
 8005eaa:	bf00      	nop
 8005eac:	0800c01c 	.word	0x0800c01c
 8005eb0:	0800c21a 	.word	0x0800c21a
 8005eb4:	0800bcae 	.word	0x0800bcae
 8005eb8:	0800c24f 	.word	0x0800c24f
 8005ebc:	0800c27c 	.word	0x0800c27c

08005ec0 <pbuf_chain>:
 8005ec0:	b510      	push	{r4, lr}
 8005ec2:	460c      	mov	r4, r1
 8005ec4:	f7ff ffc2 	bl	8005e4c <pbuf_cat>
 8005ec8:	4620      	mov	r0, r4
 8005eca:	e8bd 4010 	ldmia.w	sp!, {r4, lr}
 8005ece:	f7ff bfa9 	b.w	8005e24 <pbuf_ref>
	...

08005ed4 <pbuf_copy>:
 8005ed4:	e92d 4ff8 	stmdb	sp!, {r3, r4, r5, r6, r7, r8, r9, sl, fp, lr}
 8005ed8:	460c      	mov	r4, r1
 8005eda:	4605      	mov	r5, r0
 8005edc:	b120      	cbz	r0, 8005ee8 <pbuf_copy+0x14>
 8005ede:	b119      	cbz	r1, 8005ee8 <pbuf_copy+0x14>
 8005ee0:	8902      	ldrh	r2, [r0, #8]
 8005ee2:	890b      	ldrh	r3, [r1, #8]
 8005ee4:	429a      	cmp	r2, r3
 8005ee6:	d20a      	bcs.n	8005efe <pbuf_copy+0x2a>
 8005ee8:	f44f 726f 	mov.w	r2, #956	; 0x3bc
 8005eec:	4b35      	ldr	r3, [pc, #212]	; (8005fc4 <pbuf_copy+0xf0>)
 8005eee:	4936      	ldr	r1, [pc, #216]	; (8005fc8 <pbuf_copy+0xf4>)
 8005ef0:	4836      	ldr	r0, [pc, #216]	; (8005fcc <pbuf_copy+0xf8>)
 8005ef2:	f004 fcc1 	bl	800a878 <iprintf>
 8005ef6:	f06f 000f 	mvn.w	r0, #15
 8005efa:	e8bd 8ff8 	ldmia.w	sp!, {r3, r4, r5, r6, r7, r8, r9, sl, fp, pc}
 8005efe:	f04f 0b00 	mov.w	fp, #0
 8005f02:	465f      	mov	r7, fp
 8005f04:	f8df 80bc 	ldr.w	r8, [pc, #188]	; 8005fc4 <pbuf_copy+0xf0>
 8005f08:	f8df a0d0 	ldr.w	sl, [pc, #208]	; 8005fdc <pbuf_copy+0x108>
 8005f0c:	f8df 90bc 	ldr.w	r9, [pc, #188]	; 8005fcc <pbuf_copy+0xf8>
 8005f10:	896e      	ldrh	r6, [r5, #10]
 8005f12:	8962      	ldrh	r2, [r4, #10]
 8005f14:	1bf6      	subs	r6, r6, r7
 8005f16:	eba2 020b 	sub.w	r2, r2, fp
 8005f1a:	4296      	cmp	r6, r2
 8005f1c:	6868      	ldr	r0, [r5, #4]
 8005f1e:	6861      	ldr	r1, [r4, #4]
 8005f20:	bfac      	ite	ge
 8005f22:	b296      	uxthge	r6, r2
 8005f24:	b2b6      	uxthlt	r6, r6
 8005f26:	4632      	mov	r2, r6
 8005f28:	4459      	add	r1, fp
 8005f2a:	4438      	add	r0, r7
 8005f2c:	f004 fbce 	bl	800a6cc <memcpy>
 8005f30:	4437      	add	r7, r6
 8005f32:	896b      	ldrh	r3, [r5, #10]
 8005f34:	b2bf      	uxth	r7, r7
 8005f36:	445e      	add	r6, fp
 8005f38:	42bb      	cmp	r3, r7
 8005f3a:	fa1f fb86 	uxth.w	fp, r6
 8005f3e:	d206      	bcs.n	8005f4e <pbuf_copy+0x7a>
 8005f40:	4643      	mov	r3, r8
 8005f42:	f240 32cd 	movw	r2, #973	; 0x3cd
 8005f46:	4651      	mov	r1, sl
 8005f48:	4648      	mov	r0, r9
 8005f4a:	f004 fc95 	bl	800a878 <iprintf>
 8005f4e:	8963      	ldrh	r3, [r4, #10]
 8005f50:	455b      	cmp	r3, fp
 8005f52:	d206      	bcs.n	8005f62 <pbuf_copy+0x8e>
 8005f54:	4643      	mov	r3, r8
 8005f56:	f240 32ce 	movw	r2, #974	; 0x3ce
 8005f5a:	4648      	mov	r0, r9
 8005f5c:	491c      	ldr	r1, [pc, #112]	; (8005fd0 <pbuf_copy+0xfc>)
 8005f5e:	f004 fc8b 	bl	800a878 <iprintf>
 8005f62:	8963      	ldrh	r3, [r4, #10]
 8005f64:	455b      	cmp	r3, fp
 8005f66:	896b      	ldrh	r3, [r5, #10]
 8005f68:	bf9c      	itt	ls
 8005f6a:	f04f 0b00 	movls.w	fp, #0
 8005f6e:	6824      	ldrls	r4, [r4, #0]
 8005f70:	42bb      	cmp	r3, r7
 8005f72:	d108      	bne.n	8005f86 <pbuf_copy+0xb2>
 8005f74:	682d      	ldr	r5, [r5, #0]
 8005f76:	b92d      	cbnz	r5, 8005f84 <pbuf_copy+0xb0>
 8005f78:	b314      	cbz	r4, 8005fc0 <pbuf_copy+0xec>
 8005f7a:	f44f 7276 	mov.w	r2, #984	; 0x3d8
 8005f7e:	4b11      	ldr	r3, [pc, #68]	; (8005fc4 <pbuf_copy+0xf0>)
 8005f80:	4914      	ldr	r1, [pc, #80]	; (8005fd4 <pbuf_copy+0x100>)
 8005f82:	e7b5      	b.n	8005ef0 <pbuf_copy+0x1c>
 8005f84:	2700      	movs	r7, #0
 8005f86:	b17c      	cbz	r4, 8005fa8 <pbuf_copy+0xd4>
 8005f88:	8962      	ldrh	r2, [r4, #10]
 8005f8a:	8923      	ldrh	r3, [r4, #8]
 8005f8c:	429a      	cmp	r2, r3
 8005f8e:	d10b      	bne.n	8005fa8 <pbuf_copy+0xd4>
 8005f90:	6823      	ldr	r3, [r4, #0]
 8005f92:	b14b      	cbz	r3, 8005fa8 <pbuf_copy+0xd4>
 8005f94:	f240 32dd 	movw	r2, #989	; 0x3dd
 8005f98:	4b0a      	ldr	r3, [pc, #40]	; (8005fc4 <pbuf_copy+0xf0>)
 8005f9a:	490f      	ldr	r1, [pc, #60]	; (8005fd8 <pbuf_copy+0x104>)
 8005f9c:	480b      	ldr	r0, [pc, #44]	; (8005fcc <pbuf_copy+0xf8>)
 8005f9e:	f004 fc6b 	bl	800a878 <iprintf>
 8005fa2:	f06f 0005 	mvn.w	r0, #5
 8005fa6:	e7a8      	b.n	8005efa <pbuf_copy+0x26>
 8005fa8:	896a      	ldrh	r2, [r5, #10]
 8005faa:	892b      	ldrh	r3, [r5, #8]
 8005fac:	429a      	cmp	r2, r3
 8005fae:	d105      	bne.n	8005fbc <pbuf_copy+0xe8>
 8005fb0:	682b      	ldr	r3, [r5, #0]
 8005fb2:	b11b      	cbz	r3, 8005fbc <pbuf_copy+0xe8>
 8005fb4:	f240 32e2 	movw	r2, #994	; 0x3e2
 8005fb8:	4b02      	ldr	r3, [pc, #8]	; (8005fc4 <pbuf_copy+0xf0>)
 8005fba:	e7ee      	b.n	8005f9a <pbuf_copy+0xc6>
 8005fbc:	2c00      	cmp	r4, #0
 8005fbe:	d1a7      	bne.n	8005f10 <pbuf_copy+0x3c>
 8005fc0:	4620      	mov	r0, r4
 8005fc2:	e79a      	b.n	8005efa <pbuf_copy+0x26>
 8005fc4:	0800c01c 	.word	0x0800c01c
 8005fc8:	0800c28c 	.word	0x0800c28c
 8005fcc:	0800bcae 	.word	0x0800bcae
 8005fd0:	0800c2d3 	.word	0x0800c2d3
 8005fd4:	0800c2ee 	.word	0x0800c2ee
 8005fd8:	0800c2fb 	.word	0x0800c2fb
 8005fdc:	0800c2bc 	.word	0x0800c2bc

08005fe0 <pbuf_copy_partial>:
 8005fe0:	e92d 43f8 	stmdb	sp!, {r3, r4, r5, r6, r7, r8, r9, lr}
 8005fe4:	4688      	mov	r8, r1
 8005fe6:	4691      	mov	r9, r2
 8005fe8:	4606      	mov	r6, r0
 8005fea:	b950      	cbnz	r0, 8006002 <pbuf_copy_partial+0x22>
 8005fec:	f240 32fe 	movw	r2, #1022	; 0x3fe
 8005ff0:	4b1a      	ldr	r3, [pc, #104]	; (800605c <pbuf_copy_partial+0x7c>)
 8005ff2:	491b      	ldr	r1, [pc, #108]	; (8006060 <pbuf_copy_partial+0x80>)
 8005ff4:	481b      	ldr	r0, [pc, #108]	; (8006064 <pbuf_copy_partial+0x84>)
 8005ff6:	f004 fc3f 	bl	800a878 <iprintf>
 8005ffa:	4637      	mov	r7, r6
 8005ffc:	4638      	mov	r0, r7
 8005ffe:	e8bd 83f8 	ldmia.w	sp!, {r3, r4, r5, r6, r7, r8, r9, pc}
 8006002:	bb49      	cbnz	r1, 8006058 <pbuf_copy_partial+0x78>
 8006004:	f240 32ff 	movw	r2, #1023	; 0x3ff
 8006008:	4b14      	ldr	r3, [pc, #80]	; (800605c <pbuf_copy_partial+0x7c>)
 800600a:	4917      	ldr	r1, [pc, #92]	; (8006068 <pbuf_copy_partial+0x88>)
 800600c:	4815      	ldr	r0, [pc, #84]	; (8006064 <pbuf_copy_partial+0x84>)
 800600e:	f004 fc33 	bl	800a878 <iprintf>
 8006012:	4647      	mov	r7, r8
 8006014:	e7f2      	b.n	8005ffc <pbuf_copy_partial+0x1c>
 8006016:	8975      	ldrh	r5, [r6, #10]
 8006018:	b153      	cbz	r3, 8006030 <pbuf_copy_partial+0x50>
 800601a:	42ab      	cmp	r3, r5
 800601c:	d308      	bcc.n	8006030 <pbuf_copy_partial+0x50>
 800601e:	1b5b      	subs	r3, r3, r5
 8006020:	b29b      	uxth	r3, r3
 8006022:	6836      	ldr	r6, [r6, #0]
 8006024:	f1b9 0f00 	cmp.w	r9, #0
 8006028:	d0e8      	beq.n	8005ffc <pbuf_copy_partial+0x1c>
 800602a:	2e00      	cmp	r6, #0
 800602c:	d1f3      	bne.n	8006016 <pbuf_copy_partial+0x36>
 800602e:	e7e5      	b.n	8005ffc <pbuf_copy_partial+0x1c>
 8006030:	1aec      	subs	r4, r5, r3
 8006032:	b2a4      	uxth	r4, r4
 8006034:	454c      	cmp	r4, r9
 8006036:	bf28      	it	cs
 8006038:	464c      	movcs	r4, r9
 800603a:	6871      	ldr	r1, [r6, #4]
 800603c:	4622      	mov	r2, r4
 800603e:	4419      	add	r1, r3
 8006040:	eb08 0007 	add.w	r0, r8, r7
 8006044:	4427      	add	r7, r4
 8006046:	eba9 0404 	sub.w	r4, r9, r4
 800604a:	f004 fb3f 	bl	800a6cc <memcpy>
 800604e:	b2bf      	uxth	r7, r7
 8006050:	2300      	movs	r3, #0
 8006052:	fa1f f984 	uxth.w	r9, r4
 8006056:	e7e4      	b.n	8006022 <pbuf_copy_partial+0x42>
 8006058:	2700      	movs	r7, #0
 800605a:	e7e3      	b.n	8006024 <pbuf_copy_partial+0x44>
 800605c:	0800c01c 	.word	0x0800c01c
 8006060:	0800c325 	.word	0x0800c325
 8006064:	0800bcae 	.word	0x0800bcae
 8006068:	0800c344 	.word	0x0800c344

0800606c <pbuf_take>:
 800606c:	e92d 4ff7 	stmdb	sp!, {r0, r1, r2, r4, r5, r6, r7, r8, r9, sl, fp, lr}
 8006070:	4688      	mov	r8, r1
 8006072:	4616      	mov	r6, r2
 8006074:	4605      	mov	r5, r0
 8006076:	b958      	cbnz	r0, 8006090 <pbuf_take+0x24>
 8006078:	f240 4284 	movw	r2, #1156	; 0x484
 800607c:	4b25      	ldr	r3, [pc, #148]	; (8006114 <pbuf_take+0xa8>)
 800607e:	4926      	ldr	r1, [pc, #152]	; (8006118 <pbuf_take+0xac>)
 8006080:	4826      	ldr	r0, [pc, #152]	; (800611c <pbuf_take+0xb0>)
 8006082:	f004 fbf9 	bl	800a878 <iprintf>
 8006086:	f06f 000f 	mvn.w	r0, #15
 800608a:	b003      	add	sp, #12
 800608c:	e8bd 8ff0 	ldmia.w	sp!, {r4, r5, r6, r7, r8, r9, sl, fp, pc}
 8006090:	b921      	cbnz	r1, 800609c <pbuf_take+0x30>
 8006092:	f240 4285 	movw	r2, #1157	; 0x485
 8006096:	4b1f      	ldr	r3, [pc, #124]	; (8006114 <pbuf_take+0xa8>)
 8006098:	4921      	ldr	r1, [pc, #132]	; (8006120 <pbuf_take+0xb4>)
 800609a:	e7f1      	b.n	8006080 <pbuf_take+0x14>
 800609c:	8903      	ldrh	r3, [r0, #8]
 800609e:	4293      	cmp	r3, r2
 80060a0:	d22e      	bcs.n	8006100 <pbuf_take+0x94>
 80060a2:	f240 4286 	movw	r2, #1158	; 0x486
 80060a6:	4b1b      	ldr	r3, [pc, #108]	; (8006114 <pbuf_take+0xa8>)
 80060a8:	491e      	ldr	r1, [pc, #120]	; (8006124 <pbuf_take+0xb8>)
 80060aa:	481c      	ldr	r0, [pc, #112]	; (800611c <pbuf_take+0xb0>)
 80060ac:	f004 fbe4 	bl	800a878 <iprintf>
 80060b0:	f04f 30ff 	mov.w	r0, #4294967295
 80060b4:	e7e9      	b.n	800608a <pbuf_take+0x1e>
 80060b6:	b935      	cbnz	r5, 80060c6 <pbuf_take+0x5a>
 80060b8:	464b      	mov	r3, r9
 80060ba:	f240 428e 	movw	r2, #1166	; 0x48e
 80060be:	4651      	mov	r1, sl
 80060c0:	4658      	mov	r0, fp
 80060c2:	f004 fbd9 	bl	800a878 <iprintf>
 80060c6:	896a      	ldrh	r2, [r5, #10]
 80060c8:	6868      	ldr	r0, [r5, #4]
 80060ca:	42a2      	cmp	r2, r4
 80060cc:	bf28      	it	cs
 80060ce:	4622      	movcs	r2, r4
 80060d0:	eb08 0107 	add.w	r1, r8, r7
 80060d4:	9201      	str	r2, [sp, #4]
 80060d6:	f004 faf9 	bl	800a6cc <memcpy>
 80060da:	9a01      	ldr	r2, [sp, #4]
 80060dc:	682d      	ldr	r5, [r5, #0]
 80060de:	1aa4      	subs	r4, r4, r2
 80060e0:	4417      	add	r7, r2
 80060e2:	b2a4      	uxth	r4, r4
 80060e4:	b2bf      	uxth	r7, r7
 80060e6:	2c00      	cmp	r4, #0
 80060e8:	d1e5      	bne.n	80060b6 <pbuf_take+0x4a>
 80060ea:	42be      	cmp	r6, r7
 80060ec:	d006      	beq.n	80060fc <pbuf_take+0x90>
 80060ee:	f240 4299 	movw	r2, #1177	; 0x499
 80060f2:	4b08      	ldr	r3, [pc, #32]	; (8006114 <pbuf_take+0xa8>)
 80060f4:	490c      	ldr	r1, [pc, #48]	; (8006128 <pbuf_take+0xbc>)
 80060f6:	4809      	ldr	r0, [pc, #36]	; (800611c <pbuf_take+0xb0>)
 80060f8:	f004 fbbe 	bl	800a878 <iprintf>
 80060fc:	4620      	mov	r0, r4
 80060fe:	e7c4      	b.n	800608a <pbuf_take+0x1e>
 8006100:	4614      	mov	r4, r2
 8006102:	2700      	movs	r7, #0
 8006104:	f8df 900c 	ldr.w	r9, [pc, #12]	; 8006114 <pbuf_take+0xa8>
 8006108:	f8df a020 	ldr.w	sl, [pc, #32]	; 800612c <pbuf_take+0xc0>
 800610c:	f8df b00c 	ldr.w	fp, [pc, #12]	; 800611c <pbuf_take+0xb0>
 8006110:	e7e9      	b.n	80060e6 <pbuf_take+0x7a>
 8006112:	bf00      	nop
 8006114:	0800c01c 	.word	0x0800c01c
 8006118:	0800c367 	.word	0x0800c367
 800611c:	0800bcae 	.word	0x0800bcae
 8006120:	0800c37e 	.word	0x0800c37e
 8006124:	0800c399 	.word	0x0800c399
 8006128:	0800c3d1 	.word	0x0800c3d1
 800612c:	0800c3b9 	.word	0x0800c3b9

08006130 <tcp_close_shutdown_fin>:
 8006130:	b510      	push	{r4, lr}
 8006132:	4604      	mov	r4, r0
 8006134:	b930      	cbnz	r0, 8006144 <tcp_close_shutdown_fin+0x14>
 8006136:	f240 124d 	movw	r2, #333	; 0x14d
 800613a:	4b12      	ldr	r3, [pc, #72]	; (8006184 <tcp_close_shutdown_fin+0x54>)
 800613c:	4912      	ldr	r1, [pc, #72]	; (8006188 <tcp_close_shutdown_fin+0x58>)
 800613e:	4813      	ldr	r0, [pc, #76]	; (800618c <tcp_close_shutdown_fin+0x5c>)
 8006140:	f004 fb9a 	bl	800a878 <iprintf>
 8006144:	7d23      	ldrb	r3, [r4, #20]
 8006146:	2b04      	cmp	r3, #4
 8006148:	d003      	beq.n	8006152 <tcp_close_shutdown_fin+0x22>
 800614a:	2b07      	cmp	r3, #7
 800614c:	d00c      	beq.n	8006168 <tcp_close_shutdown_fin+0x38>
 800614e:	2b03      	cmp	r3, #3
 8006150:	d108      	bne.n	8006164 <tcp_close_shutdown_fin+0x34>
 8006152:	4620      	mov	r0, r4
 8006154:	f002 f990 	bl	8008478 <tcp_send_fin>
 8006158:	b960      	cbnz	r0, 8006174 <tcp_close_shutdown_fin+0x44>
 800615a:	2305      	movs	r3, #5
 800615c:	4620      	mov	r0, r4
 800615e:	7523      	strb	r3, [r4, #20]
 8006160:	f002 f9e2 	bl	8008528 <tcp_output>
 8006164:	2000      	movs	r0, #0
 8006166:	bd10      	pop	{r4, pc}
 8006168:	4620      	mov	r0, r4
 800616a:	f002 f985 	bl	8008478 <tcp_send_fin>
 800616e:	b908      	cbnz	r0, 8006174 <tcp_close_shutdown_fin+0x44>
 8006170:	2309      	movs	r3, #9
 8006172:	e7f3      	b.n	800615c <tcp_close_shutdown_fin+0x2c>
 8006174:	1c43      	adds	r3, r0, #1
 8006176:	d1f6      	bne.n	8006166 <tcp_close_shutdown_fin+0x36>
 8006178:	7ea3      	ldrb	r3, [r4, #26]
 800617a:	f043 0308 	orr.w	r3, r3, #8
 800617e:	76a3      	strb	r3, [r4, #26]
 8006180:	e7f0      	b.n	8006164 <tcp_close_shutdown_fin+0x34>
 8006182:	bf00      	nop
 8006184:	0800c3ec 	.word	0x0800c3ec
 8006188:	0800c41b 	.word	0x0800c41b
 800618c:	0800bcae 	.word	0x0800bcae

08006190 <tcp_init>:
 8006190:	4770      	bx	lr
	...

08006194 <tcp_update_rcv_ann_wnd>:
 8006194:	b538      	push	{r3, r4, r5, lr}
 8006196:	4604      	mov	r4, r0
 8006198:	8d01      	ldrh	r1, [r0, #40]	; 0x28
 800619a:	6ac2      	ldr	r2, [r0, #44]	; 0x2c
 800619c:	6a45      	ldr	r5, [r0, #36]	; 0x24
 800619e:	1a8b      	subs	r3, r1, r2
 80061a0:	1958      	adds	r0, r3, r5
 80061a2:	8e63      	ldrh	r3, [r4, #50]	; 0x32
 80061a4:	f5b3 6f86 	cmp.w	r3, #1072	; 0x430
 80061a8:	bf94      	ite	ls
 80061aa:	1ac3      	subls	r3, r0, r3
 80061ac:	f5a0 6386 	subhi.w	r3, r0, #1072	; 0x430
 80061b0:	2b00      	cmp	r3, #0
 80061b2:	db01      	blt.n	80061b8 <tcp_update_rcv_ann_wnd+0x24>
 80061b4:	8561      	strh	r1, [r4, #42]	; 0x2a
 80061b6:	bd38      	pop	{r3, r4, r5, pc}
 80061b8:	1aab      	subs	r3, r5, r2
 80061ba:	2b00      	cmp	r3, #0
 80061bc:	dd02      	ble.n	80061c4 <tcp_update_rcv_ann_wnd+0x30>
 80061be:	2000      	movs	r0, #0
 80061c0:	8560      	strh	r0, [r4, #42]	; 0x2a
 80061c2:	e7f8      	b.n	80061b6 <tcp_update_rcv_ann_wnd+0x22>
 80061c4:	1b55      	subs	r5, r2, r5
 80061c6:	f5b5 3f80 	cmp.w	r5, #65536	; 0x10000
 80061ca:	d306      	bcc.n	80061da <tcp_update_rcv_ann_wnd+0x46>
 80061cc:	f44f 7242 	mov.w	r2, #776	; 0x308
 80061d0:	4b03      	ldr	r3, [pc, #12]	; (80061e0 <tcp_update_rcv_ann_wnd+0x4c>)
 80061d2:	4904      	ldr	r1, [pc, #16]	; (80061e4 <tcp_update_rcv_ann_wnd+0x50>)
 80061d4:	4804      	ldr	r0, [pc, #16]	; (80061e8 <tcp_update_rcv_ann_wnd+0x54>)
 80061d6:	f004 fb4f 	bl	800a878 <iprintf>
 80061da:	2000      	movs	r0, #0
 80061dc:	8565      	strh	r5, [r4, #42]	; 0x2a
 80061de:	e7ea      	b.n	80061b6 <tcp_update_rcv_ann_wnd+0x22>
 80061e0:	0800c3ec 	.word	0x0800c3ec
 80061e4:	0800c427 	.word	0x0800c427
 80061e8:	0800bcae 	.word	0x0800bcae

080061ec <tcp_recved>:
 80061ec:	b538      	push	{r3, r4, r5, lr}
 80061ee:	7d03      	ldrb	r3, [r0, #20]
 80061f0:	4604      	mov	r4, r0
 80061f2:	2b01      	cmp	r3, #1
 80061f4:	460d      	mov	r5, r1
 80061f6:	d106      	bne.n	8006206 <tcp_recved+0x1a>
 80061f8:	f240 321f 	movw	r2, #799	; 0x31f
 80061fc:	4b16      	ldr	r3, [pc, #88]	; (8006258 <tcp_recved+0x6c>)
 80061fe:	4917      	ldr	r1, [pc, #92]	; (800625c <tcp_recved+0x70>)
 8006200:	4817      	ldr	r0, [pc, #92]	; (8006260 <tcp_recved+0x74>)
 8006202:	f004 fb39 	bl	800a878 <iprintf>
 8006206:	8d21      	ldrh	r1, [r4, #40]	; 0x28
 8006208:	4429      	add	r1, r5
 800620a:	b289      	uxth	r1, r1
 800620c:	f5b1 6f06 	cmp.w	r1, #2144	; 0x860
 8006210:	8521      	strh	r1, [r4, #40]	; 0x28
 8006212:	d911      	bls.n	8006238 <tcp_recved+0x4c>
 8006214:	f44f 6306 	mov.w	r3, #2144	; 0x860
 8006218:	8523      	strh	r3, [r4, #40]	; 0x28
 800621a:	4620      	mov	r0, r4
 800621c:	f7ff ffba 	bl	8006194 <tcp_update_rcv_ann_wnd>
 8006220:	f5b0 7f06 	cmp.w	r0, #536	; 0x218
 8006224:	db17      	blt.n	8006256 <tcp_recved+0x6a>
 8006226:	7ea3      	ldrb	r3, [r4, #26]
 8006228:	4620      	mov	r0, r4
 800622a:	f043 0302 	orr.w	r3, r3, #2
 800622e:	76a3      	strb	r3, [r4, #26]
 8006230:	e8bd 4038 	ldmia.w	sp!, {r3, r4, r5, lr}
 8006234:	f002 b978 	b.w	8008528 <tcp_output>
 8006238:	2900      	cmp	r1, #0
 800623a:	d1ee      	bne.n	800621a <tcp_recved+0x2e>
 800623c:	7d23      	ldrb	r3, [r4, #20]
 800623e:	2b07      	cmp	r3, #7
 8006240:	d0e8      	beq.n	8006214 <tcp_recved+0x28>
 8006242:	2b09      	cmp	r3, #9
 8006244:	d0e6      	beq.n	8006214 <tcp_recved+0x28>
 8006246:	f240 322d 	movw	r2, #813	; 0x32d
 800624a:	4b03      	ldr	r3, [pc, #12]	; (8006258 <tcp_recved+0x6c>)
 800624c:	4905      	ldr	r1, [pc, #20]	; (8006264 <tcp_recved+0x78>)
 800624e:	4804      	ldr	r0, [pc, #16]	; (8006260 <tcp_recved+0x74>)
 8006250:	f004 fb12 	bl	800a878 <iprintf>
 8006254:	e7e1      	b.n	800621a <tcp_recved+0x2e>
 8006256:	bd38      	pop	{r3, r4, r5, pc}
 8006258:	0800c3ec 	.word	0x0800c3ec
 800625c:	0800c441 	.word	0x0800c441
 8006260:	0800bcae 	.word	0x0800bcae
 8006264:	0800c467 	.word	0x0800c467

08006268 <tcp_seg_free>:
 8006268:	b510      	push	{r4, lr}
 800626a:	4604      	mov	r4, r0
 800626c:	b148      	cbz	r0, 8006282 <tcp_seg_free+0x1a>
 800626e:	6840      	ldr	r0, [r0, #4]
 8006270:	b108      	cbz	r0, 8006276 <tcp_seg_free+0xe>
 8006272:	f7ff fc27 	bl	8005ac4 <pbuf_free>
 8006276:	4621      	mov	r1, r4
 8006278:	e8bd 4010 	ldmia.w	sp!, {r4, lr}
 800627c:	2003      	movs	r0, #3
 800627e:	f7ff babd 	b.w	80057fc <memp_free>
 8006282:	bd10      	pop	{r4, pc}

08006284 <tcp_segs_free>:
 8006284:	b510      	push	{r4, lr}
 8006286:	b900      	cbnz	r0, 800628a <tcp_segs_free+0x6>
 8006288:	bd10      	pop	{r4, pc}
 800628a:	6804      	ldr	r4, [r0, #0]
 800628c:	f7ff ffec 	bl	8006268 <tcp_seg_free>
 8006290:	4620      	mov	r0, r4
 8006292:	e7f8      	b.n	8006286 <tcp_segs_free+0x2>

08006294 <tcp_seg_copy>:
 8006294:	b538      	push	{r3, r4, r5, lr}
 8006296:	4604      	mov	r4, r0
 8006298:	2003      	movs	r0, #3
 800629a:	f7ff fa93 	bl	80057c4 <memp_malloc>
 800629e:	4605      	mov	r5, r0
 80062a0:	b160      	cbz	r0, 80062bc <tcp_seg_copy+0x28>
 80062a2:	4623      	mov	r3, r4
 80062a4:	4602      	mov	r2, r0
 80062a6:	f104 0110 	add.w	r1, r4, #16
 80062aa:	f853 0b04 	ldr.w	r0, [r3], #4
 80062ae:	428b      	cmp	r3, r1
 80062b0:	f842 0b04 	str.w	r0, [r2], #4
 80062b4:	d1f9      	bne.n	80062aa <tcp_seg_copy+0x16>
 80062b6:	6868      	ldr	r0, [r5, #4]
 80062b8:	f7ff fdb4 	bl	8005e24 <pbuf_ref>
 80062bc:	4628      	mov	r0, r5
 80062be:	bd38      	pop	{r3, r4, r5, pc}

080062c0 <tcp_pcb_purge>:
 80062c0:	b538      	push	{r3, r4, r5, lr}
 80062c2:	7d03      	ldrb	r3, [r0, #20]
 80062c4:	4604      	mov	r4, r0
 80062c6:	2b01      	cmp	r3, #1
 80062c8:	d919      	bls.n	80062fe <tcp_pcb_purge+0x3e>
 80062ca:	2b0a      	cmp	r3, #10
 80062cc:	d017      	beq.n	80062fe <tcp_pcb_purge+0x3e>
 80062ce:	6f40      	ldr	r0, [r0, #116]	; 0x74
 80062d0:	b118      	cbz	r0, 80062da <tcp_pcb_purge+0x1a>
 80062d2:	f7ff fbf7 	bl	8005ac4 <pbuf_free>
 80062d6:	2300      	movs	r3, #0
 80062d8:	6763      	str	r3, [r4, #116]	; 0x74
 80062da:	6f20      	ldr	r0, [r4, #112]	; 0x70
 80062dc:	f7ff ffd2 	bl	8006284 <tcp_segs_free>
 80062e0:	2500      	movs	r5, #0
 80062e2:	f64f 73ff 	movw	r3, #65535	; 0xffff
 80062e6:	6ea0      	ldr	r0, [r4, #104]	; 0x68
 80062e8:	8623      	strh	r3, [r4, #48]	; 0x30
 80062ea:	6725      	str	r5, [r4, #112]	; 0x70
 80062ec:	f7ff ffca 	bl	8006284 <tcp_segs_free>
 80062f0:	6ee0      	ldr	r0, [r4, #108]	; 0x6c
 80062f2:	f7ff ffc7 	bl	8006284 <tcp_segs_free>
 80062f6:	e9c4 551a 	strd	r5, r5, [r4, #104]	; 0x68
 80062fa:	f8a4 5064 	strh.w	r5, [r4, #100]	; 0x64
 80062fe:	bd38      	pop	{r3, r4, r5, pc}

08006300 <tcp_slowtmr>:
 8006300:	e92d 4ff0 	stmdb	sp!, {r4, r5, r6, r7, r8, r9, sl, fp, lr}
 8006304:	4ebb      	ldr	r6, [pc, #748]	; (80065f4 <tcp_slowtmr+0x2f4>)
 8006306:	b085      	sub	sp, #20
 8006308:	6833      	ldr	r3, [r6, #0]
 800630a:	f8df a2f0 	ldr.w	sl, [pc, #752]	; 80065fc <tcp_slowtmr+0x2fc>
 800630e:	3301      	adds	r3, #1
 8006310:	6033      	str	r3, [r6, #0]
 8006312:	4bb9      	ldr	r3, [pc, #740]	; (80065f8 <tcp_slowtmr+0x2f8>)
 8006314:	f8df 8310 	ldr.w	r8, [pc, #784]	; 8006628 <tcp_slowtmr+0x328>
 8006318:	781a      	ldrb	r2, [r3, #0]
 800631a:	9302      	str	r3, [sp, #8]
 800631c:	3201      	adds	r2, #1
 800631e:	701a      	strb	r2, [r3, #0]
 8006320:	2700      	movs	r7, #0
 8006322:	4bb6      	ldr	r3, [pc, #728]	; (80065fc <tcp_slowtmr+0x2fc>)
 8006324:	f8df 9304 	ldr.w	r9, [pc, #772]	; 800662c <tcp_slowtmr+0x32c>
 8006328:	681c      	ldr	r4, [r3, #0]
 800632a:	b96c      	cbnz	r4, 8006348 <tcp_slowtmr+0x48>
 800632c:	4fb4      	ldr	r7, [pc, #720]	; (8006600 <tcp_slowtmr+0x300>)
 800632e:	f8df 82f8 	ldr.w	r8, [pc, #760]	; 8006628 <tcp_slowtmr+0x328>
 8006332:	683d      	ldr	r5, [r7, #0]
 8006334:	f8df a2f8 	ldr.w	sl, [pc, #760]	; 8006630 <tcp_slowtmr+0x330>
 8006338:	f8df 92f0 	ldr.w	r9, [pc, #752]	; 800662c <tcp_slowtmr+0x32c>
 800633c:	2d00      	cmp	r5, #0
 800633e:	f040 8183 	bne.w	8006648 <tcp_slowtmr+0x348>
 8006342:	b005      	add	sp, #20
 8006344:	e8bd 8ff0 	ldmia.w	sp!, {r4, r5, r6, r7, r8, r9, sl, fp, pc}
 8006348:	7d23      	ldrb	r3, [r4, #20]
 800634a:	b933      	cbnz	r3, 800635a <tcp_slowtmr+0x5a>
 800634c:	4643      	mov	r3, r8
 800634e:	f44f 727c 	mov.w	r2, #1008	; 0x3f0
 8006352:	4648      	mov	r0, r9
 8006354:	49ab      	ldr	r1, [pc, #684]	; (8006604 <tcp_slowtmr+0x304>)
 8006356:	f004 fa8f 	bl	800a878 <iprintf>
 800635a:	7d23      	ldrb	r3, [r4, #20]
 800635c:	2b01      	cmp	r3, #1
 800635e:	d106      	bne.n	800636e <tcp_slowtmr+0x6e>
 8006360:	4643      	mov	r3, r8
 8006362:	f240 32f1 	movw	r2, #1009	; 0x3f1
 8006366:	4648      	mov	r0, r9
 8006368:	49a7      	ldr	r1, [pc, #668]	; (8006608 <tcp_slowtmr+0x308>)
 800636a:	f004 fa85 	bl	800a878 <iprintf>
 800636e:	7d23      	ldrb	r3, [r4, #20]
 8006370:	2b0a      	cmp	r3, #10
 8006372:	d106      	bne.n	8006382 <tcp_slowtmr+0x82>
 8006374:	4643      	mov	r3, r8
 8006376:	f240 32f2 	movw	r2, #1010	; 0x3f2
 800637a:	4648      	mov	r0, r9
 800637c:	49a3      	ldr	r1, [pc, #652]	; (800660c <tcp_slowtmr+0x30c>)
 800637e:	f004 fa7b 	bl	800a878 <iprintf>
 8006382:	9b02      	ldr	r3, [sp, #8]
 8006384:	7f62      	ldrb	r2, [r4, #29]
 8006386:	781b      	ldrb	r3, [r3, #0]
 8006388:	429a      	cmp	r2, r3
 800638a:	d102      	bne.n	8006392 <tcp_slowtmr+0x92>
 800638c:	68e5      	ldr	r5, [r4, #12]
 800638e:	462c      	mov	r4, r5
 8006390:	e7cb      	b.n	800632a <tcp_slowtmr+0x2a>
 8006392:	7d21      	ldrb	r1, [r4, #20]
 8006394:	f894 2042 	ldrb.w	r2, [r4, #66]	; 0x42
 8006398:	2902      	cmp	r1, #2
 800639a:	7763      	strb	r3, [r4, #29]
 800639c:	f040 809b 	bne.w	80064d6 <tcp_slowtmr+0x1d6>
 80063a0:	2a05      	cmp	r2, #5
 80063a2:	f200 80e4 	bhi.w	800656e <tcp_slowtmr+0x26e>
 80063a6:	f894 b095 	ldrb.w	fp, [r4, #149]	; 0x95
 80063aa:	f1bb 0f00 	cmp.w	fp, #0
 80063ae:	f000 80a7 	beq.w	8006500 <tcp_slowtmr+0x200>
 80063b2:	4897      	ldr	r0, [pc, #604]	; (8006610 <tcp_slowtmr+0x310>)
 80063b4:	f894 3094 	ldrb.w	r3, [r4, #148]	; 0x94
 80063b8:	4483      	add	fp, r0
 80063ba:	f81b 2c01 	ldrb.w	r2, [fp, #-1]
 80063be:	4293      	cmp	r3, r2
 80063c0:	f0c0 808b 	bcc.w	80064da <tcp_slowtmr+0x1da>
 80063c4:	4620      	mov	r0, r4
 80063c6:	f002 fb1c 	bl	8008a02 <tcp_zero_window_probe>
 80063ca:	2800      	cmp	r0, #0
 80063cc:	f000 808d 	beq.w	80064ea <tcp_slowtmr+0x1ea>
 80063d0:	f04f 0b00 	mov.w	fp, #0
 80063d4:	7d23      	ldrb	r3, [r4, #20]
 80063d6:	2b06      	cmp	r3, #6
 80063d8:	d10b      	bne.n	80063f2 <tcp_slowtmr+0xf2>
 80063da:	7ea2      	ldrb	r2, [r4, #26]
 80063dc:	06d2      	lsls	r2, r2, #27
 80063de:	d508      	bpl.n	80063f2 <tcp_slowtmr+0xf2>
 80063e0:	6832      	ldr	r2, [r6, #0]
 80063e2:	6a21      	ldr	r1, [r4, #32]
 80063e4:	1a52      	subs	r2, r2, r1
 80063e6:	2a28      	cmp	r2, #40	; 0x28
 80063e8:	bf84      	itt	hi
 80063ea:	f10b 0b01 	addhi.w	fp, fp, #1
 80063ee:	fa5f fb8b 	uxtbhi.w	fp, fp
 80063f2:	7a25      	ldrb	r5, [r4, #8]
 80063f4:	f015 0508 	ands.w	r5, r5, #8
 80063f8:	d019      	beq.n	800642e <tcp_slowtmr+0x12e>
 80063fa:	2b04      	cmp	r3, #4
 80063fc:	d002      	beq.n	8006404 <tcp_slowtmr+0x104>
 80063fe:	2b07      	cmp	r3, #7
 8006400:	f040 80cc 	bne.w	800659c <tcp_slowtmr+0x29c>
 8006404:	f44f 70fa 	mov.w	r0, #500	; 0x1f4
 8006408:	f8d4 5090 	ldr.w	r5, [r4, #144]	; 0x90
 800640c:	6831      	ldr	r1, [r6, #0]
 800640e:	f505 2224 	add.w	r2, r5, #671744	; 0xa4000
 8006412:	f602 42b8 	addw	r2, r2, #3256	; 0xcb8
 8006416:	fbb2 f2f0 	udiv	r2, r2, r0
 800641a:	6a23      	ldr	r3, [r4, #32]
 800641c:	1ac9      	subs	r1, r1, r3
 800641e:	4291      	cmp	r1, r2
 8006420:	f240 80a8 	bls.w	8006574 <tcp_slowtmr+0x274>
 8006424:	2501      	movs	r5, #1
 8006426:	f10b 0b01 	add.w	fp, fp, #1
 800642a:	fa5f fb8b 	uxtb.w	fp, fp
 800642e:	6f20      	ldr	r0, [r4, #112]	; 0x70
 8006430:	b160      	cbz	r0, 800644c <tcp_slowtmr+0x14c>
 8006432:	6833      	ldr	r3, [r6, #0]
 8006434:	6a22      	ldr	r2, [r4, #32]
 8006436:	f9b4 1040 	ldrsh.w	r1, [r4, #64]	; 0x40
 800643a:	1a9a      	subs	r2, r3, r2
 800643c:	2306      	movs	r3, #6
 800643e:	434b      	muls	r3, r1
 8006440:	429a      	cmp	r2, r3
 8006442:	d303      	bcc.n	800644c <tcp_slowtmr+0x14c>
 8006444:	f7ff ff1e 	bl	8006284 <tcp_segs_free>
 8006448:	2300      	movs	r3, #0
 800644a:	6723      	str	r3, [r4, #112]	; 0x70
 800644c:	7d23      	ldrb	r3, [r4, #20]
 800644e:	2b03      	cmp	r3, #3
 8006450:	f040 80a6 	bne.w	80065a0 <tcp_slowtmr+0x2a0>
 8006454:	6833      	ldr	r3, [r6, #0]
 8006456:	6a22      	ldr	r2, [r4, #32]
 8006458:	1a9b      	subs	r3, r3, r2
 800645a:	2b28      	cmp	r3, #40	; 0x28
 800645c:	d803      	bhi.n	8006466 <tcp_slowtmr+0x166>
 800645e:	f1bb 0f00 	cmp.w	fp, #0
 8006462:	f000 80b2 	beq.w	80065ca <tcp_slowtmr+0x2ca>
 8006466:	4620      	mov	r0, r4
 8006468:	f8d4 b08c 	ldr.w	fp, [r4, #140]	; 0x8c
 800646c:	f7ff ff28 	bl	80062c0 <tcp_pcb_purge>
 8006470:	f8da 3000 	ldr.w	r3, [sl]
 8006474:	2f00      	cmp	r7, #0
 8006476:	f000 809b 	beq.w	80065b0 <tcp_slowtmr+0x2b0>
 800647a:	42a3      	cmp	r3, r4
 800647c:	d106      	bne.n	800648c <tcp_slowtmr+0x18c>
 800647e:	4643      	mov	r3, r8
 8006480:	f240 4289 	movw	r2, #1161	; 0x489
 8006484:	4648      	mov	r0, r9
 8006486:	4963      	ldr	r1, [pc, #396]	; (8006614 <tcp_slowtmr+0x314>)
 8006488:	f004 f9f6 	bl	800a878 <iprintf>
 800648c:	68e3      	ldr	r3, [r4, #12]
 800648e:	60fb      	str	r3, [r7, #12]
 8006490:	b14d      	cbz	r5, 80064a6 <tcp_slowtmr+0x1a6>
 8006492:	8b23      	ldrh	r3, [r4, #24]
 8006494:	4622      	mov	r2, r4
 8006496:	9301      	str	r3, [sp, #4]
 8006498:	8ae3      	ldrh	r3, [r4, #22]
 800649a:	9300      	str	r3, [sp, #0]
 800649c:	6a61      	ldr	r1, [r4, #36]	; 0x24
 800649e:	6ce0      	ldr	r0, [r4, #76]	; 0x4c
 80064a0:	1d23      	adds	r3, r4, #4
 80064a2:	f002 f9c3 	bl	800882c <tcp_rst>
 80064a6:	6923      	ldr	r3, [r4, #16]
 80064a8:	4621      	mov	r1, r4
 80064aa:	2001      	movs	r0, #1
 80064ac:	68e5      	ldr	r5, [r4, #12]
 80064ae:	9303      	str	r3, [sp, #12]
 80064b0:	f7ff f9a4 	bl	80057fc <memp_free>
 80064b4:	2200      	movs	r2, #0
 80064b6:	4c58      	ldr	r4, [pc, #352]	; (8006618 <tcp_slowtmr+0x318>)
 80064b8:	7022      	strb	r2, [r4, #0]
 80064ba:	f1bb 0f00 	cmp.w	fp, #0
 80064be:	f43f af66 	beq.w	800638e <tcp_slowtmr+0x8e>
 80064c2:	9b03      	ldr	r3, [sp, #12]
 80064c4:	f06f 010c 	mvn.w	r1, #12
 80064c8:	4618      	mov	r0, r3
 80064ca:	47d8      	blx	fp
 80064cc:	7823      	ldrb	r3, [r4, #0]
 80064ce:	2b00      	cmp	r3, #0
 80064d0:	f43f af5d 	beq.w	800638e <tcp_slowtmr+0x8e>
 80064d4:	e724      	b.n	8006320 <tcp_slowtmr+0x20>
 80064d6:	2a0b      	cmp	r2, #11
 80064d8:	e763      	b.n	80063a2 <tcp_slowtmr+0xa2>
 80064da:	3301      	adds	r3, #1
 80064dc:	b2db      	uxtb	r3, r3
 80064de:	4293      	cmp	r3, r2
 80064e0:	f884 3094 	strb.w	r3, [r4, #148]	; 0x94
 80064e4:	f4ff af74 	bcc.w	80063d0 <tcp_slowtmr+0xd0>
 80064e8:	e76c      	b.n	80063c4 <tcp_slowtmr+0xc4>
 80064ea:	f894 3095 	ldrb.w	r3, [r4, #149]	; 0x95
 80064ee:	f884 0094 	strb.w	r0, [r4, #148]	; 0x94
 80064f2:	2b06      	cmp	r3, #6
 80064f4:	f63f af6c 	bhi.w	80063d0 <tcp_slowtmr+0xd0>
 80064f8:	3301      	adds	r3, #1
 80064fa:	f884 3095 	strb.w	r3, [r4, #149]	; 0x95
 80064fe:	e767      	b.n	80063d0 <tcp_slowtmr+0xd0>
 8006500:	f9b4 3030 	ldrsh.w	r3, [r4, #48]	; 0x30
 8006504:	2b00      	cmp	r3, #0
 8006506:	bfa4      	itt	ge
 8006508:	3301      	addge	r3, #1
 800650a:	8623      	strhge	r3, [r4, #48]	; 0x30
 800650c:	6ee3      	ldr	r3, [r4, #108]	; 0x6c
 800650e:	2b00      	cmp	r3, #0
 8006510:	f43f af5e 	beq.w	80063d0 <tcp_slowtmr+0xd0>
 8006514:	f9b4 0030 	ldrsh.w	r0, [r4, #48]	; 0x30
 8006518:	f9b4 3040 	ldrsh.w	r3, [r4, #64]	; 0x40
 800651c:	4298      	cmp	r0, r3
 800651e:	f6ff af57 	blt.w	80063d0 <tcp_slowtmr+0xd0>
 8006522:	2902      	cmp	r1, #2
 8006524:	d00a      	beq.n	800653c <tcp_slowtmr+0x23c>
 8006526:	f9b4 103c 	ldrsh.w	r1, [r4, #60]	; 0x3c
 800652a:	f9b4 303e 	ldrsh.w	r3, [r4, #62]	; 0x3e
 800652e:	eb03 03e1 	add.w	r3, r3, r1, asr #3
 8006532:	493a      	ldr	r1, [pc, #232]	; (800661c <tcp_slowtmr+0x31c>)
 8006534:	5c8a      	ldrb	r2, [r1, r2]
 8006536:	4093      	lsls	r3, r2
 8006538:	f8a4 3040 	strh.w	r3, [r4, #64]	; 0x40
 800653c:	2300      	movs	r3, #0
 800653e:	f8b4 205c 	ldrh.w	r2, [r4, #92]	; 0x5c
 8006542:	8623      	strh	r3, [r4, #48]	; 0x30
 8006544:	f8b4 3048 	ldrh.w	r3, [r4, #72]	; 0x48
 8006548:	8e61      	ldrh	r1, [r4, #50]	; 0x32
 800654a:	429a      	cmp	r2, r3
 800654c:	bf28      	it	cs
 800654e:	461a      	movcs	r2, r3
 8006550:	004b      	lsls	r3, r1, #1
 8006552:	b29b      	uxth	r3, r3
 8006554:	0850      	lsrs	r0, r2, #1
 8006556:	ebb3 0f52 	cmp.w	r3, r2, lsr #1
 800655a:	bf98      	it	ls
 800655c:	4603      	movls	r3, r0
 800655e:	f8a4 1048 	strh.w	r1, [r4, #72]	; 0x48
 8006562:	4620      	mov	r0, r4
 8006564:	f8a4 304a 	strh.w	r3, [r4, #74]	; 0x4a
 8006568:	f002 f9ba 	bl	80088e0 <tcp_rexmit_rto>
 800656c:	e732      	b.n	80063d4 <tcp_slowtmr+0xd4>
 800656e:	f04f 0b01 	mov.w	fp, #1
 8006572:	e72f      	b.n	80063d4 <tcp_slowtmr+0xd4>
 8006574:	f894 3096 	ldrb.w	r3, [r4, #150]	; 0x96
 8006578:	4a29      	ldr	r2, [pc, #164]	; (8006620 <tcp_slowtmr+0x320>)
 800657a:	fb02 5303 	mla	r3, r2, r3, r5
 800657e:	fbb3 f3f0 	udiv	r3, r3, r0
 8006582:	4299      	cmp	r1, r3
 8006584:	d90a      	bls.n	800659c <tcp_slowtmr+0x29c>
 8006586:	4620      	mov	r0, r4
 8006588:	f002 fa11 	bl	80089ae <tcp_keepalive>
 800658c:	4605      	mov	r5, r0
 800658e:	b928      	cbnz	r0, 800659c <tcp_slowtmr+0x29c>
 8006590:	f894 3096 	ldrb.w	r3, [r4, #150]	; 0x96
 8006594:	3301      	adds	r3, #1
 8006596:	f884 3096 	strb.w	r3, [r4, #150]	; 0x96
 800659a:	e748      	b.n	800642e <tcp_slowtmr+0x12e>
 800659c:	2500      	movs	r5, #0
 800659e:	e746      	b.n	800642e <tcp_slowtmr+0x12e>
 80065a0:	2b09      	cmp	r3, #9
 80065a2:	f47f af5c 	bne.w	800645e <tcp_slowtmr+0x15e>
 80065a6:	6833      	ldr	r3, [r6, #0]
 80065a8:	6a22      	ldr	r2, [r4, #32]
 80065aa:	1a9b      	subs	r3, r3, r2
 80065ac:	2bf0      	cmp	r3, #240	; 0xf0
 80065ae:	e755      	b.n	800645c <tcp_slowtmr+0x15c>
 80065b0:	42a3      	cmp	r3, r4
 80065b2:	d006      	beq.n	80065c2 <tcp_slowtmr+0x2c2>
 80065b4:	4643      	mov	r3, r8
 80065b6:	f240 428d 	movw	r2, #1165	; 0x48d
 80065ba:	4648      	mov	r0, r9
 80065bc:	4919      	ldr	r1, [pc, #100]	; (8006624 <tcp_slowtmr+0x324>)
 80065be:	f004 f95b 	bl	800a878 <iprintf>
 80065c2:	68e3      	ldr	r3, [r4, #12]
 80065c4:	f8ca 3000 	str.w	r3, [sl]
 80065c8:	e762      	b.n	8006490 <tcp_slowtmr+0x190>
 80065ca:	7ee3      	ldrb	r3, [r4, #27]
 80065cc:	7f22      	ldrb	r2, [r4, #28]
 80065ce:	3301      	adds	r3, #1
 80065d0:	b2db      	uxtb	r3, r3
 80065d2:	429a      	cmp	r2, r3
 80065d4:	68e5      	ldr	r5, [r4, #12]
 80065d6:	76e3      	strb	r3, [r4, #27]
 80065d8:	d80a      	bhi.n	80065f0 <tcp_slowtmr+0x2f0>
 80065da:	4f0f      	ldr	r7, [pc, #60]	; (8006618 <tcp_slowtmr+0x318>)
 80065dc:	f8d4 3088 	ldr.w	r3, [r4, #136]	; 0x88
 80065e0:	f884 b01b 	strb.w	fp, [r4, #27]
 80065e4:	f887 b000 	strb.w	fp, [r7]
 80065e8:	bb23      	cbnz	r3, 8006634 <tcp_slowtmr+0x334>
 80065ea:	4620      	mov	r0, r4
 80065ec:	f001 ff9c 	bl	8008528 <tcp_output>
 80065f0:	4627      	mov	r7, r4
 80065f2:	e6cc      	b.n	800638e <tcp_slowtmr+0x8e>
 80065f4:	20006b90 	.word	0x20006b90
 80065f8:	2000040e 	.word	0x2000040e
 80065fc:	20006b8c 	.word	0x20006b8c
 8006600:	20006b9c 	.word	0x20006b9c
 8006604:	0800c488 	.word	0x0800c488
 8006608:	0800c4b2 	.word	0x0800c4b2
 800660c:	0800c4dc 	.word	0x0800c4dc
 8006610:	0800c68c 	.word	0x0800c68c
 8006614:	0800c509 	.word	0x0800c509
 8006618:	20006b88 	.word	0x20006b88
 800661c:	0800c66c 	.word	0x0800c66c
 8006620:	000124f8 	.word	0x000124f8
 8006624:	0800c534 	.word	0x0800c534
 8006628:	0800c3ec 	.word	0x0800c3ec
 800662c:	0800bcae 	.word	0x0800bcae
 8006630:	0800c55e 	.word	0x0800c55e
 8006634:	4621      	mov	r1, r4
 8006636:	6920      	ldr	r0, [r4, #16]
 8006638:	4798      	blx	r3
 800663a:	783b      	ldrb	r3, [r7, #0]
 800663c:	2b00      	cmp	r3, #0
 800663e:	f47f ae6f 	bne.w	8006320 <tcp_slowtmr+0x20>
 8006642:	2800      	cmp	r0, #0
 8006644:	d1d4      	bne.n	80065f0 <tcp_slowtmr+0x2f0>
 8006646:	e7d0      	b.n	80065ea <tcp_slowtmr+0x2ea>
 8006648:	7d2b      	ldrb	r3, [r5, #20]
 800664a:	2b0a      	cmp	r3, #10
 800664c:	d006      	beq.n	800665c <tcp_slowtmr+0x35c>
 800664e:	4643      	mov	r3, r8
 8006650:	f240 42bd 	movw	r2, #1213	; 0x4bd
 8006654:	4651      	mov	r1, sl
 8006656:	4648      	mov	r0, r9
 8006658:	f004 f90e 	bl	800a878 <iprintf>
 800665c:	6833      	ldr	r3, [r6, #0]
 800665e:	6a2a      	ldr	r2, [r5, #32]
 8006660:	1a9b      	subs	r3, r3, r2
 8006662:	2bf0      	cmp	r3, #240	; 0xf0
 8006664:	d802      	bhi.n	800666c <tcp_slowtmr+0x36c>
 8006666:	462c      	mov	r4, r5
 8006668:	68ed      	ldr	r5, [r5, #12]
 800666a:	e667      	b.n	800633c <tcp_slowtmr+0x3c>
 800666c:	4628      	mov	r0, r5
 800666e:	f7ff fe27 	bl	80062c0 <tcp_pcb_purge>
 8006672:	683b      	ldr	r3, [r7, #0]
 8006674:	b194      	cbz	r4, 800669c <tcp_slowtmr+0x39c>
 8006676:	42ab      	cmp	r3, r5
 8006678:	d106      	bne.n	8006688 <tcp_slowtmr+0x388>
 800667a:	4643      	mov	r3, r8
 800667c:	f240 42cb 	movw	r2, #1227	; 0x4cb
 8006680:	4648      	mov	r0, r9
 8006682:	490c      	ldr	r1, [pc, #48]	; (80066b4 <tcp_slowtmr+0x3b4>)
 8006684:	f004 f8f8 	bl	800a878 <iprintf>
 8006688:	68eb      	ldr	r3, [r5, #12]
 800668a:	60e3      	str	r3, [r4, #12]
 800668c:	f8d5 b00c 	ldr.w	fp, [r5, #12]
 8006690:	4629      	mov	r1, r5
 8006692:	2001      	movs	r0, #1
 8006694:	f7ff f8b2 	bl	80057fc <memp_free>
 8006698:	465d      	mov	r5, fp
 800669a:	e64f      	b.n	800633c <tcp_slowtmr+0x3c>
 800669c:	42ab      	cmp	r3, r5
 800669e:	d006      	beq.n	80066ae <tcp_slowtmr+0x3ae>
 80066a0:	4643      	mov	r3, r8
 80066a2:	f240 42cf 	movw	r2, #1231	; 0x4cf
 80066a6:	4648      	mov	r0, r9
 80066a8:	4903      	ldr	r1, [pc, #12]	; (80066b8 <tcp_slowtmr+0x3b8>)
 80066aa:	f004 f8e5 	bl	800a878 <iprintf>
 80066ae:	68eb      	ldr	r3, [r5, #12]
 80066b0:	603b      	str	r3, [r7, #0]
 80066b2:	e7eb      	b.n	800668c <tcp_slowtmr+0x38c>
 80066b4:	0800c58d 	.word	0x0800c58d
 80066b8:	0800c5b4 	.word	0x0800c5b4

080066bc <tcp_pcb_remove>:
 80066bc:	6803      	ldr	r3, [r0, #0]
 80066be:	b510      	push	{r4, lr}
 80066c0:	428b      	cmp	r3, r1
 80066c2:	460c      	mov	r4, r1
 80066c4:	d11f      	bne.n	8006706 <tcp_pcb_remove+0x4a>
 80066c6:	68cb      	ldr	r3, [r1, #12]
 80066c8:	6003      	str	r3, [r0, #0]
 80066ca:	2300      	movs	r3, #0
 80066cc:	4620      	mov	r0, r4
 80066ce:	60e3      	str	r3, [r4, #12]
 80066d0:	f7ff fdf6 	bl	80062c0 <tcp_pcb_purge>
 80066d4:	7d23      	ldrb	r3, [r4, #20]
 80066d6:	2b0a      	cmp	r3, #10
 80066d8:	d11d      	bne.n	8006716 <tcp_pcb_remove+0x5a>
 80066da:	6ea3      	ldr	r3, [r4, #104]	; 0x68
 80066dc:	bb6b      	cbnz	r3, 800673a <tcp_pcb_remove+0x7e>
 80066de:	6ee3      	ldr	r3, [r4, #108]	; 0x6c
 80066e0:	b133      	cbz	r3, 80066f0 <tcp_pcb_remove+0x34>
 80066e2:	f240 7254 	movw	r2, #1876	; 0x754
 80066e6:	4b19      	ldr	r3, [pc, #100]	; (800674c <tcp_pcb_remove+0x90>)
 80066e8:	4919      	ldr	r1, [pc, #100]	; (8006750 <tcp_pcb_remove+0x94>)
 80066ea:	481a      	ldr	r0, [pc, #104]	; (8006754 <tcp_pcb_remove+0x98>)
 80066ec:	f004 f8c4 	bl	800a878 <iprintf>
 80066f0:	6f23      	ldr	r3, [r4, #112]	; 0x70
 80066f2:	b1f3      	cbz	r3, 8006732 <tcp_pcb_remove+0x76>
 80066f4:	f240 7256 	movw	r2, #1878	; 0x756
 80066f8:	4b14      	ldr	r3, [pc, #80]	; (800674c <tcp_pcb_remove+0x90>)
 80066fa:	4917      	ldr	r1, [pc, #92]	; (8006758 <tcp_pcb_remove+0x9c>)
 80066fc:	4815      	ldr	r0, [pc, #84]	; (8006754 <tcp_pcb_remove+0x98>)
 80066fe:	f004 f8bb 	bl	800a878 <iprintf>
 8006702:	e016      	b.n	8006732 <tcp_pcb_remove+0x76>
 8006704:	4613      	mov	r3, r2
 8006706:	2b00      	cmp	r3, #0
 8006708:	d0df      	beq.n	80066ca <tcp_pcb_remove+0xe>
 800670a:	68da      	ldr	r2, [r3, #12]
 800670c:	42a2      	cmp	r2, r4
 800670e:	d1f9      	bne.n	8006704 <tcp_pcb_remove+0x48>
 8006710:	68e2      	ldr	r2, [r4, #12]
 8006712:	60da      	str	r2, [r3, #12]
 8006714:	e7d9      	b.n	80066ca <tcp_pcb_remove+0xe>
 8006716:	2b01      	cmp	r3, #1
 8006718:	d00b      	beq.n	8006732 <tcp_pcb_remove+0x76>
 800671a:	7ea3      	ldrb	r3, [r4, #26]
 800671c:	07da      	lsls	r2, r3, #31
 800671e:	d5dc      	bpl.n	80066da <tcp_pcb_remove+0x1e>
 8006720:	f043 0302 	orr.w	r3, r3, #2
 8006724:	76a3      	strb	r3, [r4, #26]
 8006726:	4620      	mov	r0, r4
 8006728:	f001 fefe 	bl	8008528 <tcp_output>
 800672c:	7d23      	ldrb	r3, [r4, #20]
 800672e:	2b01      	cmp	r3, #1
 8006730:	d1d3      	bne.n	80066da <tcp_pcb_remove+0x1e>
 8006732:	2300      	movs	r3, #0
 8006734:	7523      	strb	r3, [r4, #20]
 8006736:	82e3      	strh	r3, [r4, #22]
 8006738:	bd10      	pop	{r4, pc}
 800673a:	f240 7253 	movw	r2, #1875	; 0x753
 800673e:	4b03      	ldr	r3, [pc, #12]	; (800674c <tcp_pcb_remove+0x90>)
 8006740:	4906      	ldr	r1, [pc, #24]	; (800675c <tcp_pcb_remove+0xa0>)
 8006742:	4804      	ldr	r0, [pc, #16]	; (8006754 <tcp_pcb_remove+0x98>)
 8006744:	f004 f898 	bl	800a878 <iprintf>
 8006748:	e7c9      	b.n	80066de <tcp_pcb_remove+0x22>
 800674a:	bf00      	nop
 800674c:	0800c3ec 	.word	0x0800c3ec
 8006750:	0800c5f2 	.word	0x0800c5f2
 8006754:	0800bcae 	.word	0x0800bcae
 8006758:	0800c60b 	.word	0x0800c60b
 800675c:	0800c5da 	.word	0x0800c5da

08006760 <tcp_close_shutdown>:
 8006760:	b537      	push	{r0, r1, r2, r4, r5, lr}
 8006762:	4604      	mov	r4, r0
 8006764:	7d03      	ldrb	r3, [r0, #20]
 8006766:	2900      	cmp	r1, #0
 8006768:	d049      	beq.n	80067fe <tcp_close_shutdown+0x9e>
 800676a:	2b04      	cmp	r3, #4
 800676c:	d001      	beq.n	8006772 <tcp_close_shutdown+0x12>
 800676e:	2b07      	cmp	r3, #7
 8006770:	d145      	bne.n	80067fe <tcp_close_shutdown+0x9e>
 8006772:	6f62      	ldr	r2, [r4, #116]	; 0x74
 8006774:	b91a      	cbnz	r2, 800677e <tcp_close_shutdown+0x1e>
 8006776:	8d22      	ldrh	r2, [r4, #40]	; 0x28
 8006778:	f5b2 6f06 	cmp.w	r2, #2144	; 0x860
 800677c:	d03f      	beq.n	80067fe <tcp_close_shutdown+0x9e>
 800677e:	7ea3      	ldrb	r3, [r4, #26]
 8006780:	06db      	lsls	r3, r3, #27
 8006782:	d406      	bmi.n	8006792 <tcp_close_shutdown+0x32>
 8006784:	f240 120f 	movw	r2, #271	; 0x10f
 8006788:	4b3e      	ldr	r3, [pc, #248]	; (8006884 <tcp_close_shutdown+0x124>)
 800678a:	493f      	ldr	r1, [pc, #252]	; (8006888 <tcp_close_shutdown+0x128>)
 800678c:	483f      	ldr	r0, [pc, #252]	; (800688c <tcp_close_shutdown+0x12c>)
 800678e:	f004 f873 	bl	800a878 <iprintf>
 8006792:	8b23      	ldrh	r3, [r4, #24]
 8006794:	4622      	mov	r2, r4
 8006796:	9301      	str	r3, [sp, #4]
 8006798:	8ae3      	ldrh	r3, [r4, #22]
 800679a:	6a61      	ldr	r1, [r4, #36]	; 0x24
 800679c:	6ce0      	ldr	r0, [r4, #76]	; 0x4c
 800679e:	9300      	str	r3, [sp, #0]
 80067a0:	1d23      	adds	r3, r4, #4
 80067a2:	f002 f843 	bl	800882c <tcp_rst>
 80067a6:	4620      	mov	r0, r4
 80067a8:	f7ff fd8a 	bl	80062c0 <tcp_pcb_purge>
 80067ac:	4a38      	ldr	r2, [pc, #224]	; (8006890 <tcp_close_shutdown+0x130>)
 80067ae:	6813      	ldr	r3, [r2, #0]
 80067b0:	42a3      	cmp	r3, r4
 80067b2:	d115      	bne.n	80067e0 <tcp_close_shutdown+0x80>
 80067b4:	68e3      	ldr	r3, [r4, #12]
 80067b6:	6013      	str	r3, [r2, #0]
 80067b8:	2300      	movs	r3, #0
 80067ba:	2201      	movs	r2, #1
 80067bc:	60e3      	str	r3, [r4, #12]
 80067be:	4b35      	ldr	r3, [pc, #212]	; (8006894 <tcp_close_shutdown+0x134>)
 80067c0:	701a      	strb	r2, [r3, #0]
 80067c2:	7d23      	ldrb	r3, [r4, #20]
 80067c4:	2b04      	cmp	r3, #4
 80067c6:	d113      	bne.n	80067f0 <tcp_close_shutdown+0x90>
 80067c8:	230a      	movs	r3, #10
 80067ca:	7523      	strb	r3, [r4, #20]
 80067cc:	4b32      	ldr	r3, [pc, #200]	; (8006898 <tcp_close_shutdown+0x138>)
 80067ce:	681a      	ldr	r2, [r3, #0]
 80067d0:	601c      	str	r4, [r3, #0]
 80067d2:	60e2      	str	r2, [r4, #12]
 80067d4:	f002 f9c4 	bl	8008b60 <tcp_timer_needed>
 80067d8:	2000      	movs	r0, #0
 80067da:	b003      	add	sp, #12
 80067dc:	bd30      	pop	{r4, r5, pc}
 80067de:	4613      	mov	r3, r2
 80067e0:	2b00      	cmp	r3, #0
 80067e2:	d0e9      	beq.n	80067b8 <tcp_close_shutdown+0x58>
 80067e4:	68da      	ldr	r2, [r3, #12]
 80067e6:	42a2      	cmp	r2, r4
 80067e8:	d1f9      	bne.n	80067de <tcp_close_shutdown+0x7e>
 80067ea:	68e2      	ldr	r2, [r4, #12]
 80067ec:	60da      	str	r2, [r3, #12]
 80067ee:	e7e3      	b.n	80067b8 <tcp_close_shutdown+0x58>
 80067f0:	4b2a      	ldr	r3, [pc, #168]	; (800689c <tcp_close_shutdown+0x13c>)
 80067f2:	681b      	ldr	r3, [r3, #0]
 80067f4:	42a3      	cmp	r3, r4
 80067f6:	d112      	bne.n	800681e <tcp_close_shutdown+0xbe>
 80067f8:	f001 fd02 	bl	8008200 <tcp_trigger_input_pcb_close>
 80067fc:	e7ec      	b.n	80067d8 <tcp_close_shutdown+0x78>
 80067fe:	2b01      	cmp	r3, #1
 8006800:	d01b      	beq.n	800683a <tcp_close_shutdown+0xda>
 8006802:	2b02      	cmp	r3, #2
 8006804:	d02f      	beq.n	8006866 <tcp_close_shutdown+0x106>
 8006806:	2b00      	cmp	r3, #0
 8006808:	d136      	bne.n	8006878 <tcp_close_shutdown+0x118>
 800680a:	8ae3      	ldrh	r3, [r4, #22]
 800680c:	b13b      	cbz	r3, 800681e <tcp_close_shutdown+0xbe>
 800680e:	4a24      	ldr	r2, [pc, #144]	; (80068a0 <tcp_close_shutdown+0x140>)
 8006810:	6813      	ldr	r3, [r2, #0]
 8006812:	42a3      	cmp	r3, r4
 8006814:	d109      	bne.n	800682a <tcp_close_shutdown+0xca>
 8006816:	68e3      	ldr	r3, [r4, #12]
 8006818:	6013      	str	r3, [r2, #0]
 800681a:	2300      	movs	r3, #0
 800681c:	60e3      	str	r3, [r4, #12]
 800681e:	4621      	mov	r1, r4
 8006820:	2001      	movs	r0, #1
 8006822:	f7fe ffeb 	bl	80057fc <memp_free>
 8006826:	e7d7      	b.n	80067d8 <tcp_close_shutdown+0x78>
 8006828:	4613      	mov	r3, r2
 800682a:	2b00      	cmp	r3, #0
 800682c:	d0f5      	beq.n	800681a <tcp_close_shutdown+0xba>
 800682e:	68da      	ldr	r2, [r3, #12]
 8006830:	42a2      	cmp	r2, r4
 8006832:	d1f9      	bne.n	8006828 <tcp_close_shutdown+0xc8>
 8006834:	68e2      	ldr	r2, [r4, #12]
 8006836:	60da      	str	r2, [r3, #12]
 8006838:	e7ef      	b.n	800681a <tcp_close_shutdown+0xba>
 800683a:	2000      	movs	r0, #0
 800683c:	4919      	ldr	r1, [pc, #100]	; (80068a4 <tcp_close_shutdown+0x144>)
 800683e:	f851 2023 	ldr.w	r2, [r1, r3, lsl #2]
 8006842:	6812      	ldr	r2, [r2, #0]
 8006844:	b94a      	cbnz	r2, 800685a <tcp_close_shutdown+0xfa>
 8006846:	3301      	adds	r3, #1
 8006848:	2b04      	cmp	r3, #4
 800684a:	d1f8      	bne.n	800683e <tcp_close_shutdown+0xde>
 800684c:	4621      	mov	r1, r4
 800684e:	4816      	ldr	r0, [pc, #88]	; (80068a8 <tcp_close_shutdown+0x148>)
 8006850:	f7ff ff34 	bl	80066bc <tcp_pcb_remove>
 8006854:	4621      	mov	r1, r4
 8006856:	2002      	movs	r0, #2
 8006858:	e7e3      	b.n	8006822 <tcp_close_shutdown+0xc2>
 800685a:	6f95      	ldr	r5, [r2, #120]	; 0x78
 800685c:	42ac      	cmp	r4, r5
 800685e:	bf08      	it	eq
 8006860:	6790      	streq	r0, [r2, #120]	; 0x78
 8006862:	68d2      	ldr	r2, [r2, #12]
 8006864:	e7ee      	b.n	8006844 <tcp_close_shutdown+0xe4>
 8006866:	4621      	mov	r1, r4
 8006868:	4809      	ldr	r0, [pc, #36]	; (8006890 <tcp_close_shutdown+0x130>)
 800686a:	f7ff ff27 	bl	80066bc <tcp_pcb_remove>
 800686e:	2001      	movs	r0, #1
 8006870:	4b08      	ldr	r3, [pc, #32]	; (8006894 <tcp_close_shutdown+0x134>)
 8006872:	4621      	mov	r1, r4
 8006874:	7018      	strb	r0, [r3, #0]
 8006876:	e7d4      	b.n	8006822 <tcp_close_shutdown+0xc2>
 8006878:	4620      	mov	r0, r4
 800687a:	b003      	add	sp, #12
 800687c:	e8bd 4030 	ldmia.w	sp!, {r4, r5, lr}
 8006880:	f7ff bc56 	b.w	8006130 <tcp_close_shutdown_fin>
 8006884:	0800c3ec 	.word	0x0800c3ec
 8006888:	0800c622 	.word	0x0800c622
 800688c:	0800bcae 	.word	0x0800bcae
 8006890:	20006b8c 	.word	0x20006b8c
 8006894:	20006b88 	.word	0x20006b88
 8006898:	20006b9c 	.word	0x20006b9c
 800689c:	20006ba0 	.word	0x20006ba0
 80068a0:	20006b98 	.word	0x20006b98
 80068a4:	0800c67c 	.word	0x0800c67c
 80068a8:	20006b94 	.word	0x20006b94

080068ac <tcp_close>:
 80068ac:	7d03      	ldrb	r3, [r0, #20]
 80068ae:	2101      	movs	r1, #1
 80068b0:	2b01      	cmp	r3, #1
 80068b2:	bf1e      	ittt	ne
 80068b4:	7e83      	ldrbne	r3, [r0, #26]
 80068b6:	f043 0310 	orrne.w	r3, r3, #16
 80068ba:	7683      	strbne	r3, [r0, #26]
 80068bc:	f7ff bf50 	b.w	8006760 <tcp_close_shutdown>

080068c0 <tcp_recv_null>:
 80068c0:	b510      	push	{r4, lr}
 80068c2:	4608      	mov	r0, r1
 80068c4:	4614      	mov	r4, r2
 80068c6:	b13a      	cbz	r2, 80068d8 <tcp_recv_null+0x18>
 80068c8:	8911      	ldrh	r1, [r2, #8]
 80068ca:	f7ff fc8f 	bl	80061ec <tcp_recved>
 80068ce:	4620      	mov	r0, r4
 80068d0:	f7ff f8f8 	bl	8005ac4 <pbuf_free>
 80068d4:	2000      	movs	r0, #0
 80068d6:	bd10      	pop	{r4, pc}
 80068d8:	2b00      	cmp	r3, #0
 80068da:	d1fb      	bne.n	80068d4 <tcp_recv_null+0x14>
 80068dc:	e8bd 4010 	ldmia.w	sp!, {r4, lr}
 80068e0:	f7ff bfe4 	b.w	80068ac <tcp_close>

080068e4 <tcp_process_refused_data>:
 80068e4:	b5f8      	push	{r3, r4, r5, r6, r7, lr}
 80068e6:	2300      	movs	r3, #0
 80068e8:	6f46      	ldr	r6, [r0, #116]	; 0x74
 80068ea:	f8d0 5080 	ldr.w	r5, [r0, #128]	; 0x80
 80068ee:	7b77      	ldrb	r7, [r6, #13]
 80068f0:	4604      	mov	r4, r0
 80068f2:	6743      	str	r3, [r0, #116]	; 0x74
 80068f4:	b1dd      	cbz	r5, 800692e <tcp_process_refused_data+0x4a>
 80068f6:	4601      	mov	r1, r0
 80068f8:	4632      	mov	r2, r6
 80068fa:	6900      	ldr	r0, [r0, #16]
 80068fc:	47a8      	blx	r5
 80068fe:	4605      	mov	r5, r0
 8006900:	b9e0      	cbnz	r0, 800693c <tcp_process_refused_data+0x58>
 8006902:	06bb      	lsls	r3, r7, #26
 8006904:	d511      	bpl.n	800692a <tcp_process_refused_data+0x46>
 8006906:	8d23      	ldrh	r3, [r4, #40]	; 0x28
 8006908:	f8d4 6080 	ldr.w	r6, [r4, #128]	; 0x80
 800690c:	f5b3 6f06 	cmp.w	r3, #2144	; 0x860
 8006910:	bf1c      	itt	ne
 8006912:	3301      	addne	r3, #1
 8006914:	8523      	strhne	r3, [r4, #40]	; 0x28
 8006916:	b146      	cbz	r6, 800692a <tcp_process_refused_data+0x46>
 8006918:	2300      	movs	r3, #0
 800691a:	4621      	mov	r1, r4
 800691c:	461a      	mov	r2, r3
 800691e:	6920      	ldr	r0, [r4, #16]
 8006920:	47b0      	blx	r6
 8006922:	300d      	adds	r0, #13
 8006924:	d101      	bne.n	800692a <tcp_process_refused_data+0x46>
 8006926:	f06f 050c 	mvn.w	r5, #12
 800692a:	4628      	mov	r0, r5
 800692c:	bdf8      	pop	{r3, r4, r5, r6, r7, pc}
 800692e:	4601      	mov	r1, r0
 8006930:	462b      	mov	r3, r5
 8006932:	4632      	mov	r2, r6
 8006934:	4628      	mov	r0, r5
 8006936:	f7ff ffc3 	bl	80068c0 <tcp_recv_null>
 800693a:	e7e0      	b.n	80068fe <tcp_process_refused_data+0x1a>
 800693c:	350d      	adds	r5, #13
 800693e:	d0f2      	beq.n	8006926 <tcp_process_refused_data+0x42>
 8006940:	f06f 0504 	mvn.w	r5, #4
 8006944:	6766      	str	r6, [r4, #116]	; 0x74
 8006946:	e7f0      	b.n	800692a <tcp_process_refused_data+0x46>

08006948 <tcp_fasttmr>:
 8006948:	e92d 43f8 	stmdb	sp!, {r3, r4, r5, r6, r7, r8, r9, lr}
 800694c:	4d1b      	ldr	r5, [pc, #108]	; (80069bc <tcp_fasttmr+0x74>)
 800694e:	4f1c      	ldr	r7, [pc, #112]	; (80069c0 <tcp_fasttmr+0x78>)
 8006950:	782b      	ldrb	r3, [r5, #0]
 8006952:	4e1c      	ldr	r6, [pc, #112]	; (80069c4 <tcp_fasttmr+0x7c>)
 8006954:	3301      	adds	r3, #1
 8006956:	702b      	strb	r3, [r5, #0]
 8006958:	f04f 0800 	mov.w	r8, #0
 800695c:	683c      	ldr	r4, [r7, #0]
 800695e:	b90c      	cbnz	r4, 8006964 <tcp_fasttmr+0x1c>
 8006960:	e8bd 83f8 	ldmia.w	sp!, {r3, r4, r5, r6, r7, r8, r9, pc}
 8006964:	782b      	ldrb	r3, [r5, #0]
 8006966:	7f62      	ldrb	r2, [r4, #29]
 8006968:	429a      	cmp	r2, r3
 800696a:	d024      	beq.n	80069b6 <tcp_fasttmr+0x6e>
 800696c:	7763      	strb	r3, [r4, #29]
 800696e:	7ea3      	ldrb	r3, [r4, #26]
 8006970:	07d9      	lsls	r1, r3, #31
 8006972:	d509      	bpl.n	8006988 <tcp_fasttmr+0x40>
 8006974:	f043 0302 	orr.w	r3, r3, #2
 8006978:	76a3      	strb	r3, [r4, #26]
 800697a:	4620      	mov	r0, r4
 800697c:	f001 fdd4 	bl	8008528 <tcp_output>
 8006980:	7ea3      	ldrb	r3, [r4, #26]
 8006982:	f023 0303 	bic.w	r3, r3, #3
 8006986:	76a3      	strb	r3, [r4, #26]
 8006988:	7ea3      	ldrb	r3, [r4, #26]
 800698a:	071a      	lsls	r2, r3, #28
 800698c:	d505      	bpl.n	800699a <tcp_fasttmr+0x52>
 800698e:	f023 0308 	bic.w	r3, r3, #8
 8006992:	4620      	mov	r0, r4
 8006994:	76a3      	strb	r3, [r4, #26]
 8006996:	f7ff fbcb 	bl	8006130 <tcp_close_shutdown_fin>
 800699a:	6f63      	ldr	r3, [r4, #116]	; 0x74
 800699c:	f8d4 900c 	ldr.w	r9, [r4, #12]
 80069a0:	b13b      	cbz	r3, 80069b2 <tcp_fasttmr+0x6a>
 80069a2:	4620      	mov	r0, r4
 80069a4:	f886 8000 	strb.w	r8, [r6]
 80069a8:	f7ff ff9c 	bl	80068e4 <tcp_process_refused_data>
 80069ac:	7833      	ldrb	r3, [r6, #0]
 80069ae:	2b00      	cmp	r3, #0
 80069b0:	d1d2      	bne.n	8006958 <tcp_fasttmr+0x10>
 80069b2:	464c      	mov	r4, r9
 80069b4:	e7d3      	b.n	800695e <tcp_fasttmr+0x16>
 80069b6:	f8d4 900c 	ldr.w	r9, [r4, #12]
 80069ba:	e7fa      	b.n	80069b2 <tcp_fasttmr+0x6a>
 80069bc:	2000040e 	.word	0x2000040e
 80069c0:	20006b8c 	.word	0x20006b8c
 80069c4:	20006b88 	.word	0x20006b88

080069c8 <tcp_tmr>:
 80069c8:	b508      	push	{r3, lr}
 80069ca:	f7ff ffbd 	bl	8006948 <tcp_fasttmr>
 80069ce:	4a06      	ldr	r2, [pc, #24]	; (80069e8 <tcp_tmr+0x20>)
 80069d0:	7813      	ldrb	r3, [r2, #0]
 80069d2:	3301      	adds	r3, #1
 80069d4:	b2db      	uxtb	r3, r3
 80069d6:	7013      	strb	r3, [r2, #0]
 80069d8:	07db      	lsls	r3, r3, #31
 80069da:	d503      	bpl.n	80069e4 <tcp_tmr+0x1c>
 80069dc:	e8bd 4008 	ldmia.w	sp!, {r3, lr}
 80069e0:	f7ff bc8e 	b.w	8006300 <tcp_slowtmr>
 80069e4:	bd08      	pop	{r3, pc}
 80069e6:	bf00      	nop
 80069e8:	2000040d 	.word	0x2000040d

080069ec <tcp_abandon>:
 80069ec:	e92d 47f3 	stmdb	sp!, {r0, r1, r4, r5, r6, r7, r8, r9, sl, lr}
 80069f0:	7d03      	ldrb	r3, [r0, #20]
 80069f2:	4604      	mov	r4, r0
 80069f4:	2b01      	cmp	r3, #1
 80069f6:	460e      	mov	r6, r1
 80069f8:	d106      	bne.n	8006a08 <tcp_abandon+0x1c>
 80069fa:	f240 12df 	movw	r2, #479	; 0x1df
 80069fe:	4b2f      	ldr	r3, [pc, #188]	; (8006abc <tcp_abandon+0xd0>)
 8006a00:	492f      	ldr	r1, [pc, #188]	; (8006ac0 <tcp_abandon+0xd4>)
 8006a02:	4830      	ldr	r0, [pc, #192]	; (8006ac4 <tcp_abandon+0xd8>)
 8006a04:	f003 ff38 	bl	800a878 <iprintf>
 8006a08:	7d23      	ldrb	r3, [r4, #20]
 8006a0a:	2b0a      	cmp	r3, #10
 8006a0c:	d10a      	bne.n	8006a24 <tcp_abandon+0x38>
 8006a0e:	4621      	mov	r1, r4
 8006a10:	482d      	ldr	r0, [pc, #180]	; (8006ac8 <tcp_abandon+0xdc>)
 8006a12:	f7ff fe53 	bl	80066bc <tcp_pcb_remove>
 8006a16:	4621      	mov	r1, r4
 8006a18:	2001      	movs	r0, #1
 8006a1a:	b002      	add	sp, #8
 8006a1c:	e8bd 47f0 	ldmia.w	sp!, {r4, r5, r6, r7, r8, r9, sl, lr}
 8006a20:	f7fe beec 	b.w	80057fc <memp_free>
 8006a24:	f8d4 904c 	ldr.w	r9, [r4, #76]	; 0x4c
 8006a28:	f8d4 a024 	ldr.w	sl, [r4, #36]	; 0x24
 8006a2c:	f8d4 708c 	ldr.w	r7, [r4, #140]	; 0x8c
 8006a30:	f8d4 8010 	ldr.w	r8, [r4, #16]
 8006a34:	8ae5      	ldrh	r5, [r4, #22]
 8006a36:	b99b      	cbnz	r3, 8006a60 <tcp_abandon+0x74>
 8006a38:	b13d      	cbz	r5, 8006a4a <tcp_abandon+0x5e>
 8006a3a:	4a24      	ldr	r2, [pc, #144]	; (8006acc <tcp_abandon+0xe0>)
 8006a3c:	6813      	ldr	r3, [r2, #0]
 8006a3e:	42a3      	cmp	r3, r4
 8006a40:	d106      	bne.n	8006a50 <tcp_abandon+0x64>
 8006a42:	68e3      	ldr	r3, [r4, #12]
 8006a44:	6013      	str	r3, [r2, #0]
 8006a46:	2500      	movs	r5, #0
 8006a48:	60e5      	str	r5, [r4, #12]
 8006a4a:	462e      	mov	r6, r5
 8006a4c:	e00f      	b.n	8006a6e <tcp_abandon+0x82>
 8006a4e:	4613      	mov	r3, r2
 8006a50:	2b00      	cmp	r3, #0
 8006a52:	d0f8      	beq.n	8006a46 <tcp_abandon+0x5a>
 8006a54:	68da      	ldr	r2, [r3, #12]
 8006a56:	42a2      	cmp	r2, r4
 8006a58:	d1f9      	bne.n	8006a4e <tcp_abandon+0x62>
 8006a5a:	68e2      	ldr	r2, [r4, #12]
 8006a5c:	60da      	str	r2, [r3, #12]
 8006a5e:	e7f2      	b.n	8006a46 <tcp_abandon+0x5a>
 8006a60:	4621      	mov	r1, r4
 8006a62:	481b      	ldr	r0, [pc, #108]	; (8006ad0 <tcp_abandon+0xe4>)
 8006a64:	f7ff fe2a 	bl	80066bc <tcp_pcb_remove>
 8006a68:	2201      	movs	r2, #1
 8006a6a:	4b1a      	ldr	r3, [pc, #104]	; (8006ad4 <tcp_abandon+0xe8>)
 8006a6c:	701a      	strb	r2, [r3, #0]
 8006a6e:	6ee0      	ldr	r0, [r4, #108]	; 0x6c
 8006a70:	b108      	cbz	r0, 8006a76 <tcp_abandon+0x8a>
 8006a72:	f7ff fc07 	bl	8006284 <tcp_segs_free>
 8006a76:	6ea0      	ldr	r0, [r4, #104]	; 0x68
 8006a78:	b108      	cbz	r0, 8006a7e <tcp_abandon+0x92>
 8006a7a:	f7ff fc03 	bl	8006284 <tcp_segs_free>
 8006a7e:	6f20      	ldr	r0, [r4, #112]	; 0x70
 8006a80:	b108      	cbz	r0, 8006a86 <tcp_abandon+0x9a>
 8006a82:	f7ff fbff 	bl	8006284 <tcp_segs_free>
 8006a86:	b146      	cbz	r6, 8006a9a <tcp_abandon+0xae>
 8006a88:	8b23      	ldrh	r3, [r4, #24]
 8006a8a:	4622      	mov	r2, r4
 8006a8c:	e9cd 5300 	strd	r5, r3, [sp]
 8006a90:	4651      	mov	r1, sl
 8006a92:	4648      	mov	r0, r9
 8006a94:	1d23      	adds	r3, r4, #4
 8006a96:	f001 fec9 	bl	800882c <tcp_rst>
 8006a9a:	4621      	mov	r1, r4
 8006a9c:	2001      	movs	r0, #1
 8006a9e:	f7fe fead 	bl	80057fc <memp_free>
 8006aa2:	b13f      	cbz	r7, 8006ab4 <tcp_abandon+0xc8>
 8006aa4:	f06f 010c 	mvn.w	r1, #12
 8006aa8:	4640      	mov	r0, r8
 8006aaa:	463b      	mov	r3, r7
 8006aac:	b002      	add	sp, #8
 8006aae:	e8bd 47f0 	ldmia.w	sp!, {r4, r5, r6, r7, r8, r9, sl, lr}
 8006ab2:	4718      	bx	r3
 8006ab4:	b002      	add	sp, #8
 8006ab6:	e8bd 87f0 	ldmia.w	sp!, {r4, r5, r6, r7, r8, r9, sl, pc}
 8006aba:	bf00      	nop
 8006abc:	0800c3ec 	.word	0x0800c3ec
 8006ac0:	0800c63b 	.word	0x0800c63b
 8006ac4:	0800bcae 	.word	0x0800bcae
 8006ac8:	20006b9c 	.word	0x20006b9c
 8006acc:	20006b98 	.word	0x20006b98
 8006ad0:	20006b8c 	.word	0x20006b8c
 8006ad4:	20006b88 	.word	0x20006b88

08006ad8 <tcp_abort>:
 8006ad8:	2101      	movs	r1, #1
 8006ada:	f7ff bf87 	b.w	80069ec <tcp_abandon>

08006ade <tcp_netif_ip_addr_changed_pcblist.isra.0>:
 8006ade:	b538      	push	{r3, r4, r5, lr}
 8006ae0:	4604      	mov	r4, r0
 8006ae2:	4608      	mov	r0, r1
 8006ae4:	b900      	cbnz	r0, 8006ae8 <tcp_netif_ip_addr_changed_pcblist.isra.0+0xa>
 8006ae6:	bd38      	pop	{r3, r4, r5, pc}
 8006ae8:	6802      	ldr	r2, [r0, #0]
 8006aea:	6823      	ldr	r3, [r4, #0]
 8006aec:	68c5      	ldr	r5, [r0, #12]
 8006aee:	429a      	cmp	r2, r3
 8006af0:	d101      	bne.n	8006af6 <tcp_netif_ip_addr_changed_pcblist.isra.0+0x18>
 8006af2:	f7ff fff1 	bl	8006ad8 <tcp_abort>
 8006af6:	4628      	mov	r0, r5
 8006af8:	e7f4      	b.n	8006ae4 <tcp_netif_ip_addr_changed_pcblist.isra.0+0x6>
	...

08006afc <tcp_kill_state>:
 8006afc:	2200      	movs	r2, #0
 8006afe:	b430      	push	{r4, r5}
 8006b00:	4604      	mov	r4, r0
 8006b02:	4610      	mov	r0, r2
 8006b04:	4b0a      	ldr	r3, [pc, #40]	; (8006b30 <tcp_kill_state+0x34>)
 8006b06:	6819      	ldr	r1, [r3, #0]
 8006b08:	4b0a      	ldr	r3, [pc, #40]	; (8006b34 <tcp_kill_state+0x38>)
 8006b0a:	681d      	ldr	r5, [r3, #0]
 8006b0c:	b919      	cbnz	r1, 8006b16 <tcp_kill_state+0x1a>
 8006b0e:	b168      	cbz	r0, 8006b2c <tcp_kill_state+0x30>
 8006b10:	bc30      	pop	{r4, r5}
 8006b12:	f7ff bf6b 	b.w	80069ec <tcp_abandon>
 8006b16:	7d0b      	ldrb	r3, [r1, #20]
 8006b18:	42a3      	cmp	r3, r4
 8006b1a:	d105      	bne.n	8006b28 <tcp_kill_state+0x2c>
 8006b1c:	6a0b      	ldr	r3, [r1, #32]
 8006b1e:	1aeb      	subs	r3, r5, r3
 8006b20:	4293      	cmp	r3, r2
 8006b22:	bf24      	itt	cs
 8006b24:	461a      	movcs	r2, r3
 8006b26:	4608      	movcs	r0, r1
 8006b28:	68c9      	ldr	r1, [r1, #12]
 8006b2a:	e7ef      	b.n	8006b0c <tcp_kill_state+0x10>
 8006b2c:	bc30      	pop	{r4, r5}
 8006b2e:	4770      	bx	lr
 8006b30:	20006b8c 	.word	0x20006b8c
 8006b34:	20006b90 	.word	0x20006b90

08006b38 <tcp_alloc>:
 8006b38:	b5f8      	push	{r3, r4, r5, r6, r7, lr}
 8006b3a:	4604      	mov	r4, r0
 8006b3c:	2001      	movs	r0, #1
 8006b3e:	f7fe fe41 	bl	80057c4 <memp_malloc>
 8006b42:	4d37      	ldr	r5, [pc, #220]	; (8006c20 <tcp_alloc+0xe8>)
 8006b44:	4603      	mov	r3, r0
 8006b46:	bb90      	cbnz	r0, 8006bae <tcp_alloc+0x76>
 8006b48:	4a36      	ldr	r2, [pc, #216]	; (8006c24 <tcp_alloc+0xec>)
 8006b4a:	682e      	ldr	r6, [r5, #0]
 8006b4c:	6812      	ldr	r2, [r2, #0]
 8006b4e:	2a00      	cmp	r2, #0
 8006b50:	d151      	bne.n	8006bf6 <tcp_alloc+0xbe>
 8006b52:	b113      	cbz	r3, 8006b5a <tcp_alloc+0x22>
 8006b54:	4618      	mov	r0, r3
 8006b56:	f7ff ffbf 	bl	8006ad8 <tcp_abort>
 8006b5a:	2001      	movs	r0, #1
 8006b5c:	f7fe fe32 	bl	80057c4 <memp_malloc>
 8006b60:	4603      	mov	r3, r0
 8006b62:	bb20      	cbnz	r0, 8006bae <tcp_alloc+0x76>
 8006b64:	2009      	movs	r0, #9
 8006b66:	f7ff ffc9 	bl	8006afc <tcp_kill_state>
 8006b6a:	2001      	movs	r0, #1
 8006b6c:	f7fe fe2a 	bl	80057c4 <memp_malloc>
 8006b70:	4603      	mov	r3, r0
 8006b72:	b9e0      	cbnz	r0, 8006bae <tcp_alloc+0x76>
 8006b74:	2008      	movs	r0, #8
 8006b76:	f7ff ffc1 	bl	8006afc <tcp_kill_state>
 8006b7a:	2001      	movs	r0, #1
 8006b7c:	f7fe fe22 	bl	80057c4 <memp_malloc>
 8006b80:	4603      	mov	r3, r0
 8006b82:	b9a0      	cbnz	r0, 8006bae <tcp_alloc+0x76>
 8006b84:	f014 0f80 	tst.w	r4, #128	; 0x80
 8006b88:	bf0c      	ite	eq
 8006b8a:	4620      	moveq	r0, r4
 8006b8c:	207f      	movne	r0, #127	; 0x7f
 8006b8e:	461e      	mov	r6, r3
 8006b90:	4a25      	ldr	r2, [pc, #148]	; (8006c28 <tcp_alloc+0xf0>)
 8006b92:	f8d5 c000 	ldr.w	ip, [r5]
 8006b96:	6812      	ldr	r2, [r2, #0]
 8006b98:	2a00      	cmp	r2, #0
 8006b9a:	d134      	bne.n	8006c06 <tcp_alloc+0xce>
 8006b9c:	b113      	cbz	r3, 8006ba4 <tcp_alloc+0x6c>
 8006b9e:	4618      	mov	r0, r3
 8006ba0:	f7ff ff9a 	bl	8006ad8 <tcp_abort>
 8006ba4:	2001      	movs	r0, #1
 8006ba6:	f7fe fe0d 	bl	80057c4 <memp_malloc>
 8006baa:	4603      	mov	r3, r0
 8006bac:	b308      	cbz	r0, 8006bf2 <tcp_alloc+0xba>
 8006bae:	2298      	movs	r2, #152	; 0x98
 8006bb0:	4618      	mov	r0, r3
 8006bb2:	2100      	movs	r1, #0
 8006bb4:	f003 fdb2 	bl	800a71c <memset>
 8006bb8:	f44f 6286 	mov.w	r2, #1072	; 0x430
 8006bbc:	f8a0 2060 	strh.w	r2, [r0, #96]	; 0x60
 8006bc0:	4a1a      	ldr	r2, [pc, #104]	; (8006c2c <tcp_alloc+0xf4>)
 8006bc2:	4603      	mov	r3, r0
 8006bc4:	6282      	str	r2, [r0, #40]	; 0x28
 8006bc6:	22ff      	movs	r2, #255	; 0xff
 8006bc8:	7282      	strb	r2, [r0, #10]
 8006bca:	2206      	movs	r2, #6
 8006bcc:	f8a0 2040 	strh.w	r2, [r0, #64]	; 0x40
 8006bd0:	87c2      	strh	r2, [r0, #62]	; 0x3e
 8006bd2:	4a17      	ldr	r2, [pc, #92]	; (8006c30 <tcp_alloc+0xf8>)
 8006bd4:	7544      	strb	r4, [r0, #21]
 8006bd6:	6302      	str	r2, [r0, #48]	; 0x30
 8006bd8:	682a      	ldr	r2, [r5, #0]
 8006bda:	6202      	str	r2, [r0, #32]
 8006bdc:	4a15      	ldr	r2, [pc, #84]	; (8006c34 <tcp_alloc+0xfc>)
 8006bde:	7812      	ldrb	r2, [r2, #0]
 8006be0:	7742      	strb	r2, [r0, #29]
 8006be2:	4a15      	ldr	r2, [pc, #84]	; (8006c38 <tcp_alloc+0x100>)
 8006be4:	6482      	str	r2, [r0, #72]	; 0x48
 8006be6:	4a15      	ldr	r2, [pc, #84]	; (8006c3c <tcp_alloc+0x104>)
 8006be8:	f8c0 2080 	str.w	r2, [r0, #128]	; 0x80
 8006bec:	4a14      	ldr	r2, [pc, #80]	; (8006c40 <tcp_alloc+0x108>)
 8006bee:	f8c0 2090 	str.w	r2, [r0, #144]	; 0x90
 8006bf2:	4618      	mov	r0, r3
 8006bf4:	bdf8      	pop	{r3, r4, r5, r6, r7, pc}
 8006bf6:	6a11      	ldr	r1, [r2, #32]
 8006bf8:	1a71      	subs	r1, r6, r1
 8006bfa:	4281      	cmp	r1, r0
 8006bfc:	bf24      	itt	cs
 8006bfe:	4613      	movcs	r3, r2
 8006c00:	4608      	movcs	r0, r1
 8006c02:	68d2      	ldr	r2, [r2, #12]
 8006c04:	e7a3      	b.n	8006b4e <tcp_alloc+0x16>
 8006c06:	7d57      	ldrb	r7, [r2, #21]
 8006c08:	4287      	cmp	r7, r0
 8006c0a:	d807      	bhi.n	8006c1c <tcp_alloc+0xe4>
 8006c0c:	6a11      	ldr	r1, [r2, #32]
 8006c0e:	ebac 0101 	sub.w	r1, ip, r1
 8006c12:	42b1      	cmp	r1, r6
 8006c14:	bf22      	ittt	cs
 8006c16:	4638      	movcs	r0, r7
 8006c18:	460e      	movcs	r6, r1
 8006c1a:	4613      	movcs	r3, r2
 8006c1c:	68d2      	ldr	r2, [r2, #12]
 8006c1e:	e7bb      	b.n	8006b98 <tcp_alloc+0x60>
 8006c20:	20006b90 	.word	0x20006b90
 8006c24:	20006b9c 	.word	0x20006b9c
 8006c28:	20006b8c 	.word	0x20006b8c
 8006c2c:	08600860 	.word	0x08600860
 8006c30:	0218ffff 	.word	0x0218ffff
 8006c34:	2000040e 	.word	0x2000040e
 8006c38:	04300001 	.word	0x04300001
 8006c3c:	080068c1 	.word	0x080068c1
 8006c40:	006ddd00 	.word	0x006ddd00

08006c44 <tcp_next_iss>:
 8006c44:	4b03      	ldr	r3, [pc, #12]	; (8006c54 <tcp_next_iss+0x10>)
 8006c46:	4a04      	ldr	r2, [pc, #16]	; (8006c58 <tcp_next_iss+0x14>)
 8006c48:	6818      	ldr	r0, [r3, #0]
 8006c4a:	6812      	ldr	r2, [r2, #0]
 8006c4c:	4410      	add	r0, r2
 8006c4e:	6018      	str	r0, [r3, #0]
 8006c50:	4770      	bx	lr
 8006c52:	bf00      	nop
 8006c54:	20000010 	.word	0x20000010
 8006c58:	20006b90 	.word	0x20006b90

08006c5c <tcp_eff_send_mss_impl>:
 8006c5c:	b510      	push	{r4, lr}
 8006c5e:	4604      	mov	r4, r0
 8006c60:	4608      	mov	r0, r1
 8006c62:	f002 fe6d 	bl	8009940 <ip4_route>
 8006c66:	b130      	cbz	r0, 8006c76 <tcp_eff_send_mss_impl+0x1a>
 8006c68:	8cc3      	ldrh	r3, [r0, #38]	; 0x26
 8006c6a:	b123      	cbz	r3, 8006c76 <tcp_eff_send_mss_impl+0x1a>
 8006c6c:	3b28      	subs	r3, #40	; 0x28
 8006c6e:	b29b      	uxth	r3, r3
 8006c70:	429c      	cmp	r4, r3
 8006c72:	bf28      	it	cs
 8006c74:	461c      	movcs	r4, r3
 8006c76:	4620      	mov	r0, r4
 8006c78:	bd10      	pop	{r4, pc}
	...

08006c7c <tcp_netif_ip_addr_changed>:
 8006c7c:	b538      	push	{r3, r4, r5, lr}
 8006c7e:	460d      	mov	r5, r1
 8006c80:	4604      	mov	r4, r0
 8006c82:	b180      	cbz	r0, 8006ca6 <tcp_netif_ip_addr_changed+0x2a>
 8006c84:	6803      	ldr	r3, [r0, #0]
 8006c86:	b173      	cbz	r3, 8006ca6 <tcp_netif_ip_addr_changed+0x2a>
 8006c88:	4b0c      	ldr	r3, [pc, #48]	; (8006cbc <tcp_netif_ip_addr_changed+0x40>)
 8006c8a:	6819      	ldr	r1, [r3, #0]
 8006c8c:	f7ff ff27 	bl	8006ade <tcp_netif_ip_addr_changed_pcblist.isra.0>
 8006c90:	4b0b      	ldr	r3, [pc, #44]	; (8006cc0 <tcp_netif_ip_addr_changed+0x44>)
 8006c92:	4620      	mov	r0, r4
 8006c94:	6819      	ldr	r1, [r3, #0]
 8006c96:	f7ff ff22 	bl	8006ade <tcp_netif_ip_addr_changed_pcblist.isra.0>
 8006c9a:	b125      	cbz	r5, 8006ca6 <tcp_netif_ip_addr_changed+0x2a>
 8006c9c:	682b      	ldr	r3, [r5, #0]
 8006c9e:	b113      	cbz	r3, 8006ca6 <tcp_netif_ip_addr_changed+0x2a>
 8006ca0:	4b08      	ldr	r3, [pc, #32]	; (8006cc4 <tcp_netif_ip_addr_changed+0x48>)
 8006ca2:	681b      	ldr	r3, [r3, #0]
 8006ca4:	b903      	cbnz	r3, 8006ca8 <tcp_netif_ip_addr_changed+0x2c>
 8006ca6:	bd38      	pop	{r3, r4, r5, pc}
 8006ca8:	6818      	ldr	r0, [r3, #0]
 8006caa:	6821      	ldr	r1, [r4, #0]
 8006cac:	68da      	ldr	r2, [r3, #12]
 8006cae:	4288      	cmp	r0, r1
 8006cb0:	bf04      	itt	eq
 8006cb2:	6829      	ldreq	r1, [r5, #0]
 8006cb4:	6019      	streq	r1, [r3, #0]
 8006cb6:	4613      	mov	r3, r2
 8006cb8:	e7f4      	b.n	8006ca4 <tcp_netif_ip_addr_changed+0x28>
 8006cba:	bf00      	nop
 8006cbc:	20006b8c 	.word	0x20006b8c
 8006cc0:	20006b98 	.word	0x20006b98
 8006cc4:	20006b94 	.word	0x20006b94

08006cc8 <tcp_oos_insert_segment>:
 8006cc8:	b5f8      	push	{r3, r4, r5, r6, r7, lr}
 8006cca:	68c3      	ldr	r3, [r0, #12]
 8006ccc:	4605      	mov	r5, r0
 8006cce:	8998      	ldrh	r0, [r3, #12]
 8006cd0:	460c      	mov	r4, r1
 8006cd2:	f7fe fb41 	bl	8005358 <lwip_htons>
 8006cd6:	07c2      	lsls	r2, r0, #31
 8006cd8:	d414      	bmi.n	8006d04 <tcp_oos_insert_segment+0x3c>
 8006cda:	4e18      	ldr	r6, [pc, #96]	; (8006d3c <tcp_oos_insert_segment+0x74>)
 8006cdc:	68e7      	ldr	r7, [r4, #12]
 8006cde:	6830      	ldr	r0, [r6, #0]
 8006ce0:	892b      	ldrh	r3, [r5, #8]
 8006ce2:	6879      	ldr	r1, [r7, #4]
 8006ce4:	8922      	ldrh	r2, [r4, #8]
 8006ce6:	4403      	add	r3, r0
 8006ce8:	440a      	add	r2, r1
 8006cea:	1a9a      	subs	r2, r3, r2
 8006cec:	2a00      	cmp	r2, #0
 8006cee:	da0f      	bge.n	8006d10 <tcp_oos_insert_segment+0x48>
 8006cf0:	1a5b      	subs	r3, r3, r1
 8006cf2:	2b00      	cmp	r3, #0
 8006cf4:	dd0a      	ble.n	8006d0c <tcp_oos_insert_segment+0x44>
 8006cf6:	1a09      	subs	r1, r1, r0
 8006cf8:	b289      	uxth	r1, r1
 8006cfa:	6868      	ldr	r0, [r5, #4]
 8006cfc:	8129      	strh	r1, [r5, #8]
 8006cfe:	f7ff f819 	bl	8005d34 <pbuf_realloc>
 8006d02:	e003      	b.n	8006d0c <tcp_oos_insert_segment+0x44>
 8006d04:	4620      	mov	r0, r4
 8006d06:	f7ff fabd 	bl	8006284 <tcp_segs_free>
 8006d0a:	2400      	movs	r4, #0
 8006d0c:	602c      	str	r4, [r5, #0]
 8006d0e:	bdf8      	pop	{r3, r4, r5, r6, r7, pc}
 8006d10:	89b8      	ldrh	r0, [r7, #12]
 8006d12:	f7fe fb21 	bl	8005358 <lwip_htons>
 8006d16:	07c3      	lsls	r3, r0, #31
 8006d18:	d507      	bpl.n	8006d2a <tcp_oos_insert_segment+0x62>
 8006d1a:	68eb      	ldr	r3, [r5, #12]
 8006d1c:	2001      	movs	r0, #1
 8006d1e:	899f      	ldrh	r7, [r3, #12]
 8006d20:	f7fe fb1a 	bl	8005358 <lwip_htons>
 8006d24:	68eb      	ldr	r3, [r5, #12]
 8006d26:	4307      	orrs	r7, r0
 8006d28:	819f      	strh	r7, [r3, #12]
 8006d2a:	6827      	ldr	r7, [r4, #0]
 8006d2c:	4620      	mov	r0, r4
 8006d2e:	f7ff fa9b 	bl	8006268 <tcp_seg_free>
 8006d32:	463c      	mov	r4, r7
 8006d34:	2f00      	cmp	r7, #0
 8006d36:	d1d1      	bne.n	8006cdc <tcp_oos_insert_segment+0x14>
 8006d38:	e7e8      	b.n	8006d0c <tcp_oos_insert_segment+0x44>
 8006d3a:	bf00      	nop
 8006d3c:	20000434 	.word	0x20000434

08006d40 <tcp_receive>:
 8006d40:	e92d 4ff7 	stmdb	sp!, {r0, r1, r2, r4, r5, r6, r7, r8, r9, sl, fp, lr}
 8006d44:	7d03      	ldrb	r3, [r0, #20]
 8006d46:	4604      	mov	r4, r0
 8006d48:	2b03      	cmp	r3, #3
 8006d4a:	d806      	bhi.n	8006d5a <tcp_receive+0x1a>
 8006d4c:	f44f 6281 	mov.w	r2, #1032	; 0x408
 8006d50:	4b85      	ldr	r3, [pc, #532]	; (8006f68 <tcp_receive+0x228>)
 8006d52:	4986      	ldr	r1, [pc, #536]	; (8006f6c <tcp_receive+0x22c>)
 8006d54:	4886      	ldr	r0, [pc, #536]	; (8006f70 <tcp_receive+0x230>)
 8006d56:	f003 fd8f 	bl	800a878 <iprintf>
 8006d5a:	4b86      	ldr	r3, [pc, #536]	; (8006f74 <tcp_receive+0x234>)
 8006d5c:	4e86      	ldr	r6, [pc, #536]	; (8006f78 <tcp_receive+0x238>)
 8006d5e:	781b      	ldrb	r3, [r3, #0]
 8006d60:	f013 0f10 	tst.w	r3, #16
 8006d64:	f000 817d 	beq.w	8007062 <tcp_receive+0x322>
 8006d68:	e9d4 0c14 	ldrd	r0, ip, [r4, #80]	; 0x50
 8006d6c:	6831      	ldr	r1, [r6, #0]
 8006d6e:	4d83      	ldr	r5, [pc, #524]	; (8006f7c <tcp_receive+0x23c>)
 8006d70:	1a47      	subs	r7, r0, r1
 8006d72:	2f00      	cmp	r7, #0
 8006d74:	f8b4 205c 	ldrh.w	r2, [r4, #92]	; 0x5c
 8006d78:	682b      	ldr	r3, [r5, #0]
 8006d7a:	db0c      	blt.n	8006d96 <tcp_receive+0x56>
 8006d7c:	4288      	cmp	r0, r1
 8006d7e:	d103      	bne.n	8006d88 <tcp_receive+0x48>
 8006d80:	ebac 0003 	sub.w	r0, ip, r3
 8006d84:	2800      	cmp	r0, #0
 8006d86:	db06      	blt.n	8006d96 <tcp_receive+0x56>
 8006d88:	459c      	cmp	ip, r3
 8006d8a:	d11a      	bne.n	8006dc2 <tcp_receive+0x82>
 8006d8c:	487c      	ldr	r0, [pc, #496]	; (8006f80 <tcp_receive+0x240>)
 8006d8e:	6800      	ldr	r0, [r0, #0]
 8006d90:	89c0      	ldrh	r0, [r0, #14]
 8006d92:	4290      	cmp	r0, r2
 8006d94:	d915      	bls.n	8006dc2 <tcp_receive+0x82>
 8006d96:	487a      	ldr	r0, [pc, #488]	; (8006f80 <tcp_receive+0x240>)
 8006d98:	f8b4 e05e 	ldrh.w	lr, [r4, #94]	; 0x5e
 8006d9c:	6800      	ldr	r0, [r0, #0]
 8006d9e:	89c0      	ldrh	r0, [r0, #14]
 8006da0:	e9c4 1314 	strd	r1, r3, [r4, #80]	; 0x50
 8006da4:	b287      	uxth	r7, r0
 8006da6:	45be      	cmp	lr, r7
 8006da8:	f894 1095 	ldrb.w	r1, [r4, #149]	; 0x95
 8006dac:	f8a4 005c 	strh.w	r0, [r4, #92]	; 0x5c
 8006db0:	bf38      	it	cc
 8006db2:	f8a4 005e 	strhcc.w	r0, [r4, #94]	; 0x5e
 8006db6:	bba7      	cbnz	r7, 8006e22 <tcp_receive+0xe2>
 8006db8:	b919      	cbnz	r1, 8006dc2 <tcp_receive+0x82>
 8006dba:	f44f 7180 	mov.w	r1, #256	; 0x100
 8006dbe:	f8a4 1094 	strh.w	r1, [r4, #148]	; 0x94
 8006dc2:	6c60      	ldr	r0, [r4, #68]	; 0x44
 8006dc4:	4f6f      	ldr	r7, [pc, #444]	; (8006f84 <tcp_receive+0x244>)
 8006dc6:	1a19      	subs	r1, r3, r0
 8006dc8:	2900      	cmp	r1, #0
 8006dca:	dc39      	bgt.n	8006e40 <tcp_receive+0x100>
 8006dcc:	496e      	ldr	r1, [pc, #440]	; (8006f88 <tcp_receive+0x248>)
 8006dce:	8809      	ldrh	r1, [r1, #0]
 8006dd0:	bb91      	cbnz	r1, 8006e38 <tcp_receive+0xf8>
 8006dd2:	f8b4 e05c 	ldrh.w	lr, [r4, #92]	; 0x5c
 8006dd6:	6d61      	ldr	r1, [r4, #84]	; 0x54
 8006dd8:	4462      	add	r2, ip
 8006dda:	4471      	add	r1, lr
 8006ddc:	4291      	cmp	r1, r2
 8006dde:	d12b      	bne.n	8006e38 <tcp_receive+0xf8>
 8006de0:	f9b4 2030 	ldrsh.w	r2, [r4, #48]	; 0x30
 8006de4:	2a00      	cmp	r2, #0
 8006de6:	db27      	blt.n	8006e38 <tcp_receive+0xf8>
 8006de8:	4298      	cmp	r0, r3
 8006dea:	d125      	bne.n	8006e38 <tcp_receive+0xf8>
 8006dec:	f894 3043 	ldrb.w	r3, [r4, #67]	; 0x43
 8006df0:	2bff      	cmp	r3, #255	; 0xff
 8006df2:	bf1c      	itt	ne
 8006df4:	3301      	addne	r3, #1
 8006df6:	f884 3043 	strbne.w	r3, [r4, #67]	; 0x43
 8006dfa:	f894 3043 	ldrb.w	r3, [r4, #67]	; 0x43
 8006dfe:	2b03      	cmp	r3, #3
 8006e00:	d915      	bls.n	8006e2e <tcp_receive+0xee>
 8006e02:	f8b4 2048 	ldrh.w	r2, [r4, #72]	; 0x48
 8006e06:	8e63      	ldrh	r3, [r4, #50]	; 0x32
 8006e08:	4413      	add	r3, r2
 8006e0a:	b29b      	uxth	r3, r3
 8006e0c:	429a      	cmp	r2, r3
 8006e0e:	d201      	bcs.n	8006e14 <tcp_receive+0xd4>
 8006e10:	f8a4 3048 	strh.w	r3, [r4, #72]	; 0x48
 8006e14:	f8df 9150 	ldr.w	r9, [pc, #336]	; 8006f68 <tcp_receive+0x228>
 8006e18:	f8df b174 	ldr.w	fp, [pc, #372]	; 8006f90 <tcp_receive+0x250>
 8006e1c:	f8df a150 	ldr.w	sl, [pc, #336]	; 8006f70 <tcp_receive+0x230>
 8006e20:	e112      	b.n	8007048 <tcp_receive+0x308>
 8006e22:	2900      	cmp	r1, #0
 8006e24:	d0cd      	beq.n	8006dc2 <tcp_receive+0x82>
 8006e26:	2100      	movs	r1, #0
 8006e28:	f884 1095 	strb.w	r1, [r4, #149]	; 0x95
 8006e2c:	e7c9      	b.n	8006dc2 <tcp_receive+0x82>
 8006e2e:	d1f1      	bne.n	8006e14 <tcp_receive+0xd4>
 8006e30:	4620      	mov	r0, r4
 8006e32:	f001 fd98 	bl	8008966 <tcp_rexmit_fast>
 8006e36:	e7ed      	b.n	8006e14 <tcp_receive+0xd4>
 8006e38:	2300      	movs	r3, #0
 8006e3a:	f884 3043 	strb.w	r3, [r4, #67]	; 0x43
 8006e3e:	e7e9      	b.n	8006e14 <tcp_receive+0xd4>
 8006e40:	6ce2      	ldr	r2, [r4, #76]	; 0x4c
 8006e42:	1a9a      	subs	r2, r3, r2
 8006e44:	2a00      	cmp	r2, #0
 8006e46:	f300 808a 	bgt.w	8006f5e <tcp_receive+0x21e>
 8006e4a:	7ea2      	ldrb	r2, [r4, #26]
 8006e4c:	6463      	str	r3, [r4, #68]	; 0x44
 8006e4e:	0751      	lsls	r1, r2, #29
 8006e50:	bf42      	ittt	mi
 8006e52:	f022 0204 	bicmi.w	r2, r2, #4
 8006e56:	76a2      	strbmi	r2, [r4, #26]
 8006e58:	f8b4 204a 	ldrhmi.w	r2, [r4, #74]	; 0x4a
 8006e5c:	f9b4 103c 	ldrsh.w	r1, [r4, #60]	; 0x3c
 8006e60:	bf48      	it	mi
 8006e62:	f8a4 2048 	strhmi.w	r2, [r4, #72]	; 0x48
 8006e66:	8fe2      	ldrh	r2, [r4, #62]	; 0x3e
 8006e68:	7d23      	ldrb	r3, [r4, #20]
 8006e6a:	eb02 02e1 	add.w	r2, r2, r1, asr #3
 8006e6e:	f8a4 2040 	strh.w	r2, [r4, #64]	; 0x40
 8006e72:	2200      	movs	r2, #0
 8006e74:	2b03      	cmp	r3, #3
 8006e76:	f8a4 2042 	strh.w	r2, [r4, #66]	; 0x42
 8006e7a:	d90f      	bls.n	8006e9c <tcp_receive+0x15c>
 8006e7c:	f8b4 2048 	ldrh.w	r2, [r4, #72]	; 0x48
 8006e80:	f8b4 104a 	ldrh.w	r1, [r4, #74]	; 0x4a
 8006e84:	8e63      	ldrh	r3, [r4, #50]	; 0x32
 8006e86:	4291      	cmp	r1, r2
 8006e88:	bf9c      	itt	ls
 8006e8a:	435b      	mulls	r3, r3
 8006e8c:	fbb3 f3f2 	udivls	r3, r3, r2
 8006e90:	4413      	add	r3, r2
 8006e92:	b29b      	uxth	r3, r3
 8006e94:	429a      	cmp	r2, r3
 8006e96:	d201      	bcs.n	8006e9c <tcp_receive+0x15c>
 8006e98:	f8a4 3048 	strh.w	r3, [r4, #72]	; 0x48
 8006e9c:	f8df 90c8 	ldr.w	r9, [pc, #200]	; 8006f68 <tcp_receive+0x228>
 8006ea0:	f8df b0ec 	ldr.w	fp, [pc, #236]	; 8006f90 <tcp_receive+0x250>
 8006ea4:	f8df a0c8 	ldr.w	sl, [pc, #200]	; 8006f70 <tcp_receive+0x230>
 8006ea8:	e04d      	b.n	8006f46 <tcp_receive+0x206>
 8006eaa:	68db      	ldr	r3, [r3, #12]
 8006eac:	6858      	ldr	r0, [r3, #4]
 8006eae:	f7fe fa56 	bl	800535e <lwip_htonl>
 8006eb2:	6ee2      	ldr	r2, [r4, #108]	; 0x6c
 8006eb4:	9000      	str	r0, [sp, #0]
 8006eb6:	f8b2 8008 	ldrh.w	r8, [r2, #8]
 8006eba:	68d2      	ldr	r2, [r2, #12]
 8006ebc:	8990      	ldrh	r0, [r2, #12]
 8006ebe:	f7fe fa4b 	bl	8005358 <lwip_htons>
 8006ec2:	f010 0003 	ands.w	r0, r0, #3
 8006ec6:	bf18      	it	ne
 8006ec8:	2001      	movne	r0, #1
 8006eca:	682a      	ldr	r2, [r5, #0]
 8006ecc:	9b00      	ldr	r3, [sp, #0]
 8006ece:	eba8 0802 	sub.w	r8, r8, r2
 8006ed2:	4498      	add	r8, r3
 8006ed4:	4480      	add	r8, r0
 8006ed6:	f1b8 0f00 	cmp.w	r8, #0
 8006eda:	dc37      	bgt.n	8006f4c <tcp_receive+0x20c>
 8006edc:	f8d4 806c 	ldr.w	r8, [r4, #108]	; 0x6c
 8006ee0:	f8d8 3000 	ldr.w	r3, [r8]
 8006ee4:	f8d8 0004 	ldr.w	r0, [r8, #4]
 8006ee8:	66e3      	str	r3, [r4, #108]	; 0x6c
 8006eea:	f8b4 3062 	ldrh.w	r3, [r4, #98]	; 0x62
 8006eee:	9300      	str	r3, [sp, #0]
 8006ef0:	f7fe ff90 	bl	8005e14 <pbuf_clen>
 8006ef4:	9b00      	ldr	r3, [sp, #0]
 8006ef6:	4283      	cmp	r3, r0
 8006ef8:	d206      	bcs.n	8006f08 <tcp_receive+0x1c8>
 8006efa:	464b      	mov	r3, r9
 8006efc:	f240 429e 	movw	r2, #1182	; 0x49e
 8006f00:	4659      	mov	r1, fp
 8006f02:	4650      	mov	r0, sl
 8006f04:	f003 fcb8 	bl	800a878 <iprintf>
 8006f08:	f8d8 0004 	ldr.w	r0, [r8, #4]
 8006f0c:	f7fe ff82 	bl	8005e14 <pbuf_clen>
 8006f10:	f8b4 3062 	ldrh.w	r3, [r4, #98]	; 0x62
 8006f14:	883a      	ldrh	r2, [r7, #0]
 8006f16:	1a1b      	subs	r3, r3, r0
 8006f18:	f8a4 3062 	strh.w	r3, [r4, #98]	; 0x62
 8006f1c:	f8b8 3008 	ldrh.w	r3, [r8, #8]
 8006f20:	4640      	mov	r0, r8
 8006f22:	4413      	add	r3, r2
 8006f24:	803b      	strh	r3, [r7, #0]
 8006f26:	f7ff f99f 	bl	8006268 <tcp_seg_free>
 8006f2a:	f8b4 3062 	ldrh.w	r3, [r4, #98]	; 0x62
 8006f2e:	b153      	cbz	r3, 8006f46 <tcp_receive+0x206>
 8006f30:	6ee3      	ldr	r3, [r4, #108]	; 0x6c
 8006f32:	b943      	cbnz	r3, 8006f46 <tcp_receive+0x206>
 8006f34:	6ea3      	ldr	r3, [r4, #104]	; 0x68
 8006f36:	b933      	cbnz	r3, 8006f46 <tcp_receive+0x206>
 8006f38:	464b      	mov	r3, r9
 8006f3a:	f240 42a6 	movw	r2, #1190	; 0x4a6
 8006f3e:	4650      	mov	r0, sl
 8006f40:	4912      	ldr	r1, [pc, #72]	; (8006f8c <tcp_receive+0x24c>)
 8006f42:	f003 fc99 	bl	800a878 <iprintf>
 8006f46:	6ee3      	ldr	r3, [r4, #108]	; 0x6c
 8006f48:	2b00      	cmp	r3, #0
 8006f4a:	d1ae      	bne.n	8006eaa <tcp_receive+0x16a>
 8006f4c:	6ee3      	ldr	r3, [r4, #108]	; 0x6c
 8006f4e:	fab3 f383 	clz	r3, r3
 8006f52:	095b      	lsrs	r3, r3, #5
 8006f54:	425b      	negs	r3, r3
 8006f56:	8623      	strh	r3, [r4, #48]	; 0x30
 8006f58:	2300      	movs	r3, #0
 8006f5a:	76e3      	strb	r3, [r4, #27]
 8006f5c:	e75a      	b.n	8006e14 <tcp_receive+0xd4>
 8006f5e:	4620      	mov	r0, r4
 8006f60:	f001 faac 	bl	80084bc <tcp_send_empty_ack>
 8006f64:	e756      	b.n	8006e14 <tcp_receive+0xd4>
 8006f66:	bf00      	nop
 8006f68:	0800c693 	.word	0x0800c693
 8006f6c:	0800c6c5 	.word	0x0800c6c5
 8006f70:	0800bcae 	.word	0x0800bcae
 8006f74:	20000414 	.word	0x20000414
 8006f78:	20000434 	.word	0x20000434
 8006f7c:	20000410 	.word	0x20000410
 8006f80:	2000043c 	.word	0x2000043c
 8006f84:	20000428 	.word	0x20000428
 8006f88:	2000044a 	.word	0x2000044a
 8006f8c:	0800c706 	.word	0x0800c706
 8006f90:	0800c6de 	.word	0x0800c6de
 8006f94:	682a      	ldr	r2, [r5, #0]
 8006f96:	68db      	ldr	r3, [r3, #12]
 8006f98:	9201      	str	r2, [sp, #4]
 8006f9a:	6858      	ldr	r0, [r3, #4]
 8006f9c:	f7fe f9df 	bl	800535e <lwip_htonl>
 8006fa0:	6ea1      	ldr	r1, [r4, #104]	; 0x68
 8006fa2:	9000      	str	r0, [sp, #0]
 8006fa4:	f8b1 8008 	ldrh.w	r8, [r1, #8]
 8006fa8:	68c9      	ldr	r1, [r1, #12]
 8006faa:	8988      	ldrh	r0, [r1, #12]
 8006fac:	f7fe f9d4 	bl	8005358 <lwip_htons>
 8006fb0:	f010 0003 	ands.w	r0, r0, #3
 8006fb4:	bf18      	it	ne
 8006fb6:	2001      	movne	r0, #1
 8006fb8:	9a01      	ldr	r2, [sp, #4]
 8006fba:	9b00      	ldr	r3, [sp, #0]
 8006fbc:	eba2 0808 	sub.w	r8, r2, r8
 8006fc0:	eba8 0803 	sub.w	r8, r8, r3
 8006fc4:	eba8 0800 	sub.w	r8, r8, r0
 8006fc8:	f1b8 0f00 	cmp.w	r8, #0
 8006fcc:	db3f      	blt.n	800704e <tcp_receive+0x30e>
 8006fce:	682b      	ldr	r3, [r5, #0]
 8006fd0:	6ce2      	ldr	r2, [r4, #76]	; 0x4c
 8006fd2:	1a9b      	subs	r3, r3, r2
 8006fd4:	2b00      	cmp	r3, #0
 8006fd6:	dc3a      	bgt.n	800704e <tcp_receive+0x30e>
 8006fd8:	f8d4 8068 	ldr.w	r8, [r4, #104]	; 0x68
 8006fdc:	f8d8 3000 	ldr.w	r3, [r8]
 8006fe0:	66a3      	str	r3, [r4, #104]	; 0x68
 8006fe2:	b90b      	cbnz	r3, 8006fe8 <tcp_receive+0x2a8>
 8006fe4:	f8a4 3064 	strh.w	r3, [r4, #100]	; 0x64
 8006fe8:	f8b4 3062 	ldrh.w	r3, [r4, #98]	; 0x62
 8006fec:	f8d8 0004 	ldr.w	r0, [r8, #4]
 8006ff0:	9300      	str	r3, [sp, #0]
 8006ff2:	f7fe ff0f 	bl	8005e14 <pbuf_clen>
 8006ff6:	9b00      	ldr	r3, [sp, #0]
 8006ff8:	4283      	cmp	r3, r0
 8006ffa:	d206      	bcs.n	800700a <tcp_receive+0x2ca>
 8006ffc:	464b      	mov	r3, r9
 8006ffe:	f240 42d5 	movw	r2, #1237	; 0x4d5
 8007002:	4659      	mov	r1, fp
 8007004:	4650      	mov	r0, sl
 8007006:	f003 fc37 	bl	800a878 <iprintf>
 800700a:	f8d8 0004 	ldr.w	r0, [r8, #4]
 800700e:	f7fe ff01 	bl	8005e14 <pbuf_clen>
 8007012:	f8b4 3062 	ldrh.w	r3, [r4, #98]	; 0x62
 8007016:	883a      	ldrh	r2, [r7, #0]
 8007018:	1a1b      	subs	r3, r3, r0
 800701a:	f8a4 3062 	strh.w	r3, [r4, #98]	; 0x62
 800701e:	f8b8 3008 	ldrh.w	r3, [r8, #8]
 8007022:	4640      	mov	r0, r8
 8007024:	4413      	add	r3, r2
 8007026:	803b      	strh	r3, [r7, #0]
 8007028:	f7ff f91e 	bl	8006268 <tcp_seg_free>
 800702c:	f8b4 3062 	ldrh.w	r3, [r4, #98]	; 0x62
 8007030:	b153      	cbz	r3, 8007048 <tcp_receive+0x308>
 8007032:	6ee3      	ldr	r3, [r4, #108]	; 0x6c
 8007034:	b943      	cbnz	r3, 8007048 <tcp_receive+0x308>
 8007036:	6ea3      	ldr	r3, [r4, #104]	; 0x68
 8007038:	b933      	cbnz	r3, 8007048 <tcp_receive+0x308>
 800703a:	464b      	mov	r3, r9
 800703c:	f240 42dc 	movw	r2, #1244	; 0x4dc
 8007040:	4650      	mov	r0, sl
 8007042:	49b6      	ldr	r1, [pc, #728]	; (800731c <tcp_receive+0x5dc>)
 8007044:	f003 fc18 	bl	800a878 <iprintf>
 8007048:	6ea3      	ldr	r3, [r4, #104]	; 0x68
 800704a:	2b00      	cmp	r3, #0
 800704c:	d1a2      	bne.n	8006f94 <tcp_receive+0x254>
 800704e:	f8b4 3060 	ldrh.w	r3, [r4, #96]	; 0x60
 8007052:	883a      	ldrh	r2, [r7, #0]
 8007054:	6b60      	ldr	r0, [r4, #52]	; 0x34
 8007056:	4413      	add	r3, r2
 8007058:	f8a4 3060 	strh.w	r3, [r4, #96]	; 0x60
 800705c:	2800      	cmp	r0, #0
 800705e:	f040 8118 	bne.w	8007292 <tcp_receive+0x552>
 8007062:	4faf      	ldr	r7, [pc, #700]	; (8007320 <tcp_receive+0x5e0>)
 8007064:	6833      	ldr	r3, [r6, #0]
 8007066:	8838      	ldrh	r0, [r7, #0]
 8007068:	6a62      	ldr	r2, [r4, #36]	; 0x24
 800706a:	2800      	cmp	r0, #0
 800706c:	f000 831c 	beq.w	80076a8 <tcp_receive+0x968>
 8007070:	7d21      	ldrb	r1, [r4, #20]
 8007072:	2906      	cmp	r1, #6
 8007074:	f200 8318 	bhi.w	80076a8 <tcp_receive+0x968>
 8007078:	eba2 0a03 	sub.w	sl, r2, r3
 800707c:	f1ba 0f01 	cmp.w	sl, #1
 8007080:	f100 8143 	bmi.w	800730a <tcp_receive+0x5ca>
 8007084:	f1c3 0101 	rsb	r1, r3, #1
 8007088:	1a09      	subs	r1, r1, r0
 800708a:	4411      	add	r1, r2
 800708c:	2900      	cmp	r1, #0
 800708e:	f300 813c 	bgt.w	800730a <tcp_receive+0x5ca>
 8007092:	4da4      	ldr	r5, [pc, #656]	; (8007324 <tcp_receive+0x5e4>)
 8007094:	46d1      	mov	r9, sl
 8007096:	f8d5 8004 	ldr.w	r8, [r5, #4]
 800709a:	f1b8 0f00 	cmp.w	r8, #0
 800709e:	d106      	bne.n	80070ae <tcp_receive+0x36e>
 80070a0:	f240 523c 	movw	r2, #1340	; 0x53c
 80070a4:	4ba0      	ldr	r3, [pc, #640]	; (8007328 <tcp_receive+0x5e8>)
 80070a6:	49a1      	ldr	r1, [pc, #644]	; (800732c <tcp_receive+0x5ec>)
 80070a8:	48a1      	ldr	r0, [pc, #644]	; (8007330 <tcp_receive+0x5f0>)
 80070aa:	f003 fbe5 	bl	800a878 <iprintf>
 80070ae:	f647 73fe 	movw	r3, #32766	; 0x7ffe
 80070b2:	459a      	cmp	sl, r3
 80070b4:	dd06      	ble.n	80070c4 <tcp_receive+0x384>
 80070b6:	f240 523d 	movw	r2, #1341	; 0x53d
 80070ba:	4b9b      	ldr	r3, [pc, #620]	; (8007328 <tcp_receive+0x5e8>)
 80070bc:	499d      	ldr	r1, [pc, #628]	; (8007334 <tcp_receive+0x5f4>)
 80070be:	489c      	ldr	r0, [pc, #624]	; (8007330 <tcp_receive+0x5f0>)
 80070c0:	f003 fbda 	bl	800a878 <iprintf>
 80070c4:	6868      	ldr	r0, [r5, #4]
 80070c6:	fa1f fb8a 	uxth.w	fp, sl
 80070ca:	8943      	ldrh	r3, [r0, #10]
 80070cc:	4553      	cmp	r3, sl
 80070ce:	f280 8110 	bge.w	80072f2 <tcp_receive+0x5b2>
 80070d2:	8903      	ldrh	r3, [r0, #8]
 80070d4:	4553      	cmp	r3, sl
 80070d6:	da06      	bge.n	80070e6 <tcp_receive+0x3a6>
 80070d8:	f240 523f 	movw	r2, #1343	; 0x53f
 80070dc:	4b92      	ldr	r3, [pc, #584]	; (8007328 <tcp_receive+0x5e8>)
 80070de:	4996      	ldr	r1, [pc, #600]	; (8007338 <tcp_receive+0x5f8>)
 80070e0:	4893      	ldr	r0, [pc, #588]	; (8007330 <tcp_receive+0x5f0>)
 80070e2:	f003 fbc9 	bl	800a878 <iprintf>
 80070e6:	2200      	movs	r2, #0
 80070e8:	686b      	ldr	r3, [r5, #4]
 80070ea:	8919      	ldrh	r1, [r3, #8]
 80070ec:	eba1 010b 	sub.w	r1, r1, fp
 80070f0:	b289      	uxth	r1, r1
 80070f2:	f8b8 300a 	ldrh.w	r3, [r8, #10]
 80070f6:	454b      	cmp	r3, r9
 80070f8:	f2c0 80f2 	blt.w	80072e0 <tcp_receive+0x5a0>
 80070fc:	f1c9 0100 	rsb	r1, r9, #0
 8007100:	4640      	mov	r0, r8
 8007102:	b209      	sxth	r1, r1
 8007104:	f7fe fcd8 	bl	8005ab8 <pbuf_header>
 8007108:	b130      	cbz	r0, 8007118 <tcp_receive+0x3d8>
 800710a:	f240 524c 	movw	r2, #1356	; 0x54c
 800710e:	4b86      	ldr	r3, [pc, #536]	; (8007328 <tcp_receive+0x5e8>)
 8007110:	498a      	ldr	r1, [pc, #552]	; (800733c <tcp_receive+0x5fc>)
 8007112:	4887      	ldr	r0, [pc, #540]	; (8007330 <tcp_receive+0x5f0>)
 8007114:	f003 fbb0 	bl	800a878 <iprintf>
 8007118:	8929      	ldrh	r1, [r5, #8]
 800711a:	6833      	ldr	r3, [r6, #0]
 800711c:	6a62      	ldr	r2, [r4, #36]	; 0x24
 800711e:	440b      	add	r3, r1
 8007120:	1a9b      	subs	r3, r3, r2
 8007122:	812b      	strh	r3, [r5, #8]
 8007124:	68eb      	ldr	r3, [r5, #12]
 8007126:	6032      	str	r2, [r6, #0]
 8007128:	605a      	str	r2, [r3, #4]
 800712a:	6831      	ldr	r1, [r6, #0]
 800712c:	6a62      	ldr	r2, [r4, #36]	; 0x24
 800712e:	1a8b      	subs	r3, r1, r2
 8007130:	2b00      	cmp	r3, #0
 8007132:	f2c0 82b3 	blt.w	800769c <tcp_receive+0x95c>
 8007136:	8d20      	ldrh	r0, [r4, #40]	; 0x28
 8007138:	1c4b      	adds	r3, r1, #1
 800713a:	1a9b      	subs	r3, r3, r2
 800713c:	1a1b      	subs	r3, r3, r0
 800713e:	2b00      	cmp	r3, #0
 8007140:	f300 82ac 	bgt.w	800769c <tcp_receive+0x95c>
 8007144:	4291      	cmp	r1, r2
 8007146:	f040 81c8 	bne.w	80074da <tcp_receive+0x79a>
 800714a:	4d76      	ldr	r5, [pc, #472]	; (8007324 <tcp_receive+0x5e4>)
 800714c:	68eb      	ldr	r3, [r5, #12]
 800714e:	f8b5 8008 	ldrh.w	r8, [r5, #8]
 8007152:	8998      	ldrh	r0, [r3, #12]
 8007154:	f7fe f900 	bl	8005358 <lwip_htons>
 8007158:	f010 0003 	ands.w	r0, r0, #3
 800715c:	bf18      	it	ne
 800715e:	2001      	movne	r0, #1
 8007160:	8d23      	ldrh	r3, [r4, #40]	; 0x28
 8007162:	4440      	add	r0, r8
 8007164:	b280      	uxth	r0, r0
 8007166:	4283      	cmp	r3, r0
 8007168:	8038      	strh	r0, [r7, #0]
 800716a:	d242      	bcs.n	80071f2 <tcp_receive+0x4b2>
 800716c:	68eb      	ldr	r3, [r5, #12]
 800716e:	8998      	ldrh	r0, [r3, #12]
 8007170:	f7fe f8f2 	bl	8005358 <lwip_htons>
 8007174:	07c2      	lsls	r2, r0, #31
 8007176:	d510      	bpl.n	800719a <tcp_receive+0x45a>
 8007178:	68eb      	ldr	r3, [r5, #12]
 800717a:	f8b3 800c 	ldrh.w	r8, [r3, #12]
 800717e:	4640      	mov	r0, r8
 8007180:	f7fe f8ea 	bl	8005358 <lwip_htons>
 8007184:	f000 003e 	and.w	r0, r0, #62	; 0x3e
 8007188:	f7fe f8e6 	bl	8005358 <lwip_htons>
 800718c:	f428 587c 	bic.w	r8, r8, #16128	; 0x3f00
 8007190:	68eb      	ldr	r3, [r5, #12]
 8007192:	ea40 0808 	orr.w	r8, r0, r8
 8007196:	f8a3 800c 	strh.w	r8, [r3, #12]
 800719a:	8d23      	ldrh	r3, [r4, #40]	; 0x28
 800719c:	812b      	strh	r3, [r5, #8]
 800719e:	68eb      	ldr	r3, [r5, #12]
 80071a0:	8998      	ldrh	r0, [r3, #12]
 80071a2:	f7fe f8d9 	bl	8005358 <lwip_htons>
 80071a6:	0783      	lsls	r3, r0, #30
 80071a8:	bf48      	it	mi
 80071aa:	892b      	ldrhmi	r3, [r5, #8]
 80071ac:	6868      	ldr	r0, [r5, #4]
 80071ae:	bf44      	itt	mi
 80071b0:	f103 33ff 	addmi.w	r3, r3, #4294967295
 80071b4:	812b      	strhmi	r3, [r5, #8]
 80071b6:	8929      	ldrh	r1, [r5, #8]
 80071b8:	f7fe fdbc 	bl	8005d34 <pbuf_realloc>
 80071bc:	68eb      	ldr	r3, [r5, #12]
 80071be:	f8b5 8008 	ldrh.w	r8, [r5, #8]
 80071c2:	8998      	ldrh	r0, [r3, #12]
 80071c4:	f7fe f8c8 	bl	8005358 <lwip_htons>
 80071c8:	f010 0003 	ands.w	r0, r0, #3
 80071cc:	bf18      	it	ne
 80071ce:	2001      	movne	r0, #1
 80071d0:	6833      	ldr	r3, [r6, #0]
 80071d2:	4440      	add	r0, r8
 80071d4:	b280      	uxth	r0, r0
 80071d6:	6a62      	ldr	r2, [r4, #36]	; 0x24
 80071d8:	8038      	strh	r0, [r7, #0]
 80071da:	4418      	add	r0, r3
 80071dc:	8d23      	ldrh	r3, [r4, #40]	; 0x28
 80071de:	4413      	add	r3, r2
 80071e0:	4298      	cmp	r0, r3
 80071e2:	d006      	beq.n	80071f2 <tcp_receive+0x4b2>
 80071e4:	f240 527e 	movw	r2, #1406	; 0x57e
 80071e8:	4b4f      	ldr	r3, [pc, #316]	; (8007328 <tcp_receive+0x5e8>)
 80071ea:	4955      	ldr	r1, [pc, #340]	; (8007340 <tcp_receive+0x600>)
 80071ec:	4850      	ldr	r0, [pc, #320]	; (8007330 <tcp_receive+0x5f0>)
 80071ee:	f003 fb43 	bl	800a878 <iprintf>
 80071f2:	6f23      	ldr	r3, [r4, #112]	; 0x70
 80071f4:	2b00      	cmp	r3, #0
 80071f6:	f000 80b0 	beq.w	800735a <tcp_receive+0x61a>
 80071fa:	68eb      	ldr	r3, [r5, #12]
 80071fc:	8998      	ldrh	r0, [r3, #12]
 80071fe:	f7fe f8ab 	bl	8005358 <lwip_htons>
 8007202:	07c0      	lsls	r0, r0, #31
 8007204:	f100 80a6 	bmi.w	8007354 <tcp_receive+0x614>
 8007208:	f8d4 8070 	ldr.w	r8, [r4, #112]	; 0x70
 800720c:	6830      	ldr	r0, [r6, #0]
 800720e:	883b      	ldrh	r3, [r7, #0]
 8007210:	4403      	add	r3, r0
 8007212:	f1b8 0f00 	cmp.w	r8, #0
 8007216:	d039      	beq.n	800728c <tcp_receive+0x54c>
 8007218:	f8d8 c00c 	ldr.w	ip, [r8, #12]
 800721c:	f8b8 1008 	ldrh.w	r1, [r8, #8]
 8007220:	f8dc 2004 	ldr.w	r2, [ip, #4]
 8007224:	4411      	add	r1, r2
 8007226:	1a59      	subs	r1, r3, r1
 8007228:	2900      	cmp	r1, #0
 800722a:	f280 80c3 	bge.w	80073b4 <tcp_receive+0x674>
 800722e:	1a9b      	subs	r3, r3, r2
 8007230:	2b00      	cmp	r3, #0
 8007232:	dd2b      	ble.n	800728c <tcp_receive+0x54c>
 8007234:	68eb      	ldr	r3, [r5, #12]
 8007236:	1a12      	subs	r2, r2, r0
 8007238:	812a      	strh	r2, [r5, #8]
 800723a:	8998      	ldrh	r0, [r3, #12]
 800723c:	f7fe f88c 	bl	8005358 <lwip_htons>
 8007240:	0783      	lsls	r3, r0, #30
 8007242:	bf48      	it	mi
 8007244:	892b      	ldrhmi	r3, [r5, #8]
 8007246:	6868      	ldr	r0, [r5, #4]
 8007248:	bf44      	itt	mi
 800724a:	f103 33ff 	addmi.w	r3, r3, #4294967295
 800724e:	812b      	strhmi	r3, [r5, #8]
 8007250:	8929      	ldrh	r1, [r5, #8]
 8007252:	f7fe fd6f 	bl	8005d34 <pbuf_realloc>
 8007256:	68eb      	ldr	r3, [r5, #12]
 8007258:	f8b5 9008 	ldrh.w	r9, [r5, #8]
 800725c:	8998      	ldrh	r0, [r3, #12]
 800725e:	f7fe f87b 	bl	8005358 <lwip_htons>
 8007262:	f010 0003 	ands.w	r0, r0, #3
 8007266:	bf18      	it	ne
 8007268:	2001      	movne	r0, #1
 800726a:	6833      	ldr	r3, [r6, #0]
 800726c:	4448      	add	r0, r9
 800726e:	b280      	uxth	r0, r0
 8007270:	8038      	strh	r0, [r7, #0]
 8007272:	4418      	add	r0, r3
 8007274:	f8d8 300c 	ldr.w	r3, [r8, #12]
 8007278:	685b      	ldr	r3, [r3, #4]
 800727a:	4298      	cmp	r0, r3
 800727c:	d006      	beq.n	800728c <tcp_receive+0x54c>
 800727e:	f240 52ae 	movw	r2, #1454	; 0x5ae
 8007282:	4b29      	ldr	r3, [pc, #164]	; (8007328 <tcp_receive+0x5e8>)
 8007284:	492f      	ldr	r1, [pc, #188]	; (8007344 <tcp_receive+0x604>)
 8007286:	482a      	ldr	r0, [pc, #168]	; (8007330 <tcp_receive+0x5f0>)
 8007288:	f003 faf6 	bl	800a878 <iprintf>
 800728c:	f8c4 8070 	str.w	r8, [r4, #112]	; 0x70
 8007290:	e063      	b.n	800735a <tcp_receive+0x61a>
 8007292:	6ba3      	ldr	r3, [r4, #56]	; 0x38
 8007294:	682a      	ldr	r2, [r5, #0]
 8007296:	1a9b      	subs	r3, r3, r2
 8007298:	2b00      	cmp	r3, #0
 800729a:	f6bf aee2 	bge.w	8007062 <tcp_receive+0x322>
 800729e:	4b2a      	ldr	r3, [pc, #168]	; (8007348 <tcp_receive+0x608>)
 80072a0:	f9b4 703c 	ldrsh.w	r7, [r4, #60]	; 0x3c
 80072a4:	881a      	ldrh	r2, [r3, #0]
 80072a6:	b280      	uxth	r0, r0
 80072a8:	1a11      	subs	r1, r2, r0
 80072aa:	f3c7 05cf 	ubfx	r5, r7, #3, #16
 80072ae:	1b49      	subs	r1, r1, r5
 80072b0:	b20b      	sxth	r3, r1
 80072b2:	2b00      	cmp	r3, #0
 80072b4:	bfb8      	it	lt
 80072b6:	1a80      	sublt	r0, r0, r2
 80072b8:	f9b4 203e 	ldrsh.w	r2, [r4, #62]	; 0x3e
 80072bc:	bfbc      	itt	lt
 80072be:	1940      	addlt	r0, r0, r5
 80072c0:	b203      	sxthlt	r3, r0
 80072c2:	eba2 02a2 	sub.w	r2, r2, r2, asr #2
 80072c6:	4439      	add	r1, r7
 80072c8:	4413      	add	r3, r2
 80072ca:	b209      	sxth	r1, r1
 80072cc:	b29b      	uxth	r3, r3
 80072ce:	87e3      	strh	r3, [r4, #62]	; 0x3e
 80072d0:	eb03 03e1 	add.w	r3, r3, r1, asr #3
 80072d4:	f8a4 3040 	strh.w	r3, [r4, #64]	; 0x40
 80072d8:	2300      	movs	r3, #0
 80072da:	87a1      	strh	r1, [r4, #60]	; 0x3c
 80072dc:	6363      	str	r3, [r4, #52]	; 0x34
 80072de:	e6c0      	b.n	8007062 <tcp_receive+0x322>
 80072e0:	f8a8 1008 	strh.w	r1, [r8, #8]
 80072e4:	f8a8 200a 	strh.w	r2, [r8, #10]
 80072e8:	eba9 0903 	sub.w	r9, r9, r3
 80072ec:	f8d8 8000 	ldr.w	r8, [r8]
 80072f0:	e6ff      	b.n	80070f2 <tcp_receive+0x3b2>
 80072f2:	f1cb 0100 	rsb	r1, fp, #0
 80072f6:	b209      	sxth	r1, r1
 80072f8:	f7fe fbde 	bl	8005ab8 <pbuf_header>
 80072fc:	2800      	cmp	r0, #0
 80072fe:	f43f af0b 	beq.w	8007118 <tcp_receive+0x3d8>
 8007302:	f240 5251 	movw	r2, #1361	; 0x551
 8007306:	4b08      	ldr	r3, [pc, #32]	; (8007328 <tcp_receive+0x5e8>)
 8007308:	e702      	b.n	8007110 <tcp_receive+0x3d0>
 800730a:	1a9b      	subs	r3, r3, r2
 800730c:	2b00      	cmp	r3, #0
 800730e:	bfbe      	ittt	lt
 8007310:	7ea3      	ldrblt	r3, [r4, #26]
 8007312:	f043 0302 	orrlt.w	r3, r3, #2
 8007316:	76a3      	strblt	r3, [r4, #26]
 8007318:	e707      	b.n	800712a <tcp_receive+0x3ea>
 800731a:	bf00      	nop
 800731c:	0800c706 	.word	0x0800c706
 8007320:	2000044a 	.word	0x2000044a
 8007324:	20000418 	.word	0x20000418
 8007328:	0800c693 	.word	0x0800c693
 800732c:	0800c726 	.word	0x0800c726
 8007330:	0800bcae 	.word	0x0800bcae
 8007334:	0800c736 	.word	0x0800c736
 8007338:	0800c745 	.word	0x0800c745
 800733c:	0800c755 	.word	0x0800c755
 8007340:	0800c768 	.word	0x0800c768
 8007344:	0800c79f 	.word	0x0800c79f
 8007348:	20006b90 	.word	0x20006b90
 800734c:	6803      	ldr	r3, [r0, #0]
 800734e:	6723      	str	r3, [r4, #112]	; 0x70
 8007350:	f7fe ff8a 	bl	8006268 <tcp_seg_free>
 8007354:	6f20      	ldr	r0, [r4, #112]	; 0x70
 8007356:	2800      	cmp	r0, #0
 8007358:	d1f8      	bne.n	800734c <tcp_receive+0x60c>
 800735a:	883a      	ldrh	r2, [r7, #0]
 800735c:	6833      	ldr	r3, [r6, #0]
 800735e:	4413      	add	r3, r2
 8007360:	6263      	str	r3, [r4, #36]	; 0x24
 8007362:	8d23      	ldrh	r3, [r4, #40]	; 0x28
 8007364:	4293      	cmp	r3, r2
 8007366:	d206      	bcs.n	8007376 <tcp_receive+0x636>
 8007368:	f240 52b9 	movw	r2, #1465	; 0x5b9
 800736c:	4b8c      	ldr	r3, [pc, #560]	; (80075a0 <tcp_receive+0x860>)
 800736e:	498d      	ldr	r1, [pc, #564]	; (80075a4 <tcp_receive+0x864>)
 8007370:	488d      	ldr	r0, [pc, #564]	; (80075a8 <tcp_receive+0x868>)
 8007372:	f003 fa81 	bl	800a878 <iprintf>
 8007376:	8d23      	ldrh	r3, [r4, #40]	; 0x28
 8007378:	883a      	ldrh	r2, [r7, #0]
 800737a:	4620      	mov	r0, r4
 800737c:	1a9b      	subs	r3, r3, r2
 800737e:	8523      	strh	r3, [r4, #40]	; 0x28
 8007380:	f7fe ff08 	bl	8006194 <tcp_update_rcv_ann_wnd>
 8007384:	686b      	ldr	r3, [r5, #4]
 8007386:	891a      	ldrh	r2, [r3, #8]
 8007388:	b11a      	cbz	r2, 8007392 <tcp_receive+0x652>
 800738a:	4a88      	ldr	r2, [pc, #544]	; (80075ac <tcp_receive+0x86c>)
 800738c:	6013      	str	r3, [r2, #0]
 800738e:	2300      	movs	r3, #0
 8007390:	606b      	str	r3, [r5, #4]
 8007392:	68eb      	ldr	r3, [r5, #12]
 8007394:	8998      	ldrh	r0, [r3, #12]
 8007396:	f7fd ffdf 	bl	8005358 <lwip_htons>
 800739a:	07c5      	lsls	r5, r0, #31
 800739c:	d504      	bpl.n	80073a8 <tcp_receive+0x668>
 800739e:	4a84      	ldr	r2, [pc, #528]	; (80075b0 <tcp_receive+0x870>)
 80073a0:	7813      	ldrb	r3, [r2, #0]
 80073a2:	f043 0320 	orr.w	r3, r3, #32
 80073a6:	7013      	strb	r3, [r2, #0]
 80073a8:	4f7d      	ldr	r7, [pc, #500]	; (80075a0 <tcp_receive+0x860>)
 80073aa:	f8df 820c 	ldr.w	r8, [pc, #524]	; 80075b8 <tcp_receive+0x878>
 80073ae:	f8df 91f8 	ldr.w	r9, [pc, #504]	; 80075a8 <tcp_receive+0x868>
 80073b2:	e07b      	b.n	80074ac <tcp_receive+0x76c>
 80073b4:	f8bc 000c 	ldrh.w	r0, [ip, #12]
 80073b8:	f7fd ffce 	bl	8005358 <lwip_htons>
 80073bc:	07c1      	lsls	r1, r0, #31
 80073be:	d51a      	bpl.n	80073f6 <tcp_receive+0x6b6>
 80073c0:	68eb      	ldr	r3, [r5, #12]
 80073c2:	8998      	ldrh	r0, [r3, #12]
 80073c4:	f7fd ffc8 	bl	8005358 <lwip_htons>
 80073c8:	0782      	lsls	r2, r0, #30
 80073ca:	d414      	bmi.n	80073f6 <tcp_receive+0x6b6>
 80073cc:	68eb      	ldr	r3, [r5, #12]
 80073ce:	2001      	movs	r0, #1
 80073d0:	f8b3 900c 	ldrh.w	r9, [r3, #12]
 80073d4:	f7fd ffc0 	bl	8005358 <lwip_htons>
 80073d8:	68eb      	ldr	r3, [r5, #12]
 80073da:	ea49 0000 	orr.w	r0, r9, r0
 80073de:	8198      	strh	r0, [r3, #12]
 80073e0:	b280      	uxth	r0, r0
 80073e2:	f8b5 9008 	ldrh.w	r9, [r5, #8]
 80073e6:	f7fd ffb7 	bl	8005358 <lwip_htons>
 80073ea:	f010 0003 	ands.w	r0, r0, #3
 80073ee:	bf18      	it	ne
 80073f0:	2001      	movne	r0, #1
 80073f2:	4448      	add	r0, r9
 80073f4:	8038      	strh	r0, [r7, #0]
 80073f6:	f8d8 9000 	ldr.w	r9, [r8]
 80073fa:	4640      	mov	r0, r8
 80073fc:	f7fe ff34 	bl	8006268 <tcp_seg_free>
 8007400:	46c8      	mov	r8, r9
 8007402:	e703      	b.n	800720c <tcp_receive+0x4cc>
 8007404:	6033      	str	r3, [r6, #0]
 8007406:	8990      	ldrh	r0, [r2, #12]
 8007408:	f8b5 a008 	ldrh.w	sl, [r5, #8]
 800740c:	f7fd ffa4 	bl	8005358 <lwip_htons>
 8007410:	f010 0003 	ands.w	r0, r0, #3
 8007414:	bf18      	it	ne
 8007416:	2001      	movne	r0, #1
 8007418:	6a63      	ldr	r3, [r4, #36]	; 0x24
 800741a:	f8b5 b008 	ldrh.w	fp, [r5, #8]
 800741e:	449a      	add	sl, r3
 8007420:	4450      	add	r0, sl
 8007422:	68eb      	ldr	r3, [r5, #12]
 8007424:	6260      	str	r0, [r4, #36]	; 0x24
 8007426:	8998      	ldrh	r0, [r3, #12]
 8007428:	f8b4 a028 	ldrh.w	sl, [r4, #40]	; 0x28
 800742c:	f7fd ff94 	bl	8005358 <lwip_htons>
 8007430:	f010 0003 	ands.w	r0, r0, #3
 8007434:	bf18      	it	ne
 8007436:	2001      	movne	r0, #1
 8007438:	4458      	add	r0, fp
 800743a:	4582      	cmp	sl, r0
 800743c:	d206      	bcs.n	800744c <tcp_receive+0x70c>
 800743e:	463b      	mov	r3, r7
 8007440:	f240 52dd 	movw	r2, #1501	; 0x5dd
 8007444:	4641      	mov	r1, r8
 8007446:	4648      	mov	r0, r9
 8007448:	f003 fa16 	bl	800a878 <iprintf>
 800744c:	68eb      	ldr	r3, [r5, #12]
 800744e:	f8b5 a008 	ldrh.w	sl, [r5, #8]
 8007452:	8998      	ldrh	r0, [r3, #12]
 8007454:	f7fd ff80 	bl	8005358 <lwip_htons>
 8007458:	f010 0003 	ands.w	r0, r0, #3
 800745c:	bf18      	it	ne
 800745e:	2001      	movne	r0, #1
 8007460:	8d23      	ldrh	r3, [r4, #40]	; 0x28
 8007462:	4450      	add	r0, sl
 8007464:	1a18      	subs	r0, r3, r0
 8007466:	8520      	strh	r0, [r4, #40]	; 0x28
 8007468:	4620      	mov	r0, r4
 800746a:	f7fe fe93 	bl	8006194 <tcp_update_rcv_ann_wnd>
 800746e:	6869      	ldr	r1, [r5, #4]
 8007470:	890b      	ldrh	r3, [r1, #8]
 8007472:	b133      	cbz	r3, 8007482 <tcp_receive+0x742>
 8007474:	4b4d      	ldr	r3, [pc, #308]	; (80075ac <tcp_receive+0x86c>)
 8007476:	6818      	ldr	r0, [r3, #0]
 8007478:	b338      	cbz	r0, 80074ca <tcp_receive+0x78a>
 800747a:	f7fe fce7 	bl	8005e4c <pbuf_cat>
 800747e:	2300      	movs	r3, #0
 8007480:	606b      	str	r3, [r5, #4]
 8007482:	68eb      	ldr	r3, [r5, #12]
 8007484:	8998      	ldrh	r0, [r3, #12]
 8007486:	f7fd ff67 	bl	8005358 <lwip_htons>
 800748a:	07c0      	lsls	r0, r0, #31
 800748c:	d509      	bpl.n	80074a2 <tcp_receive+0x762>
 800748e:	4a48      	ldr	r2, [pc, #288]	; (80075b0 <tcp_receive+0x870>)
 8007490:	7813      	ldrb	r3, [r2, #0]
 8007492:	f043 0320 	orr.w	r3, r3, #32
 8007496:	7013      	strb	r3, [r2, #0]
 8007498:	7d23      	ldrb	r3, [r4, #20]
 800749a:	2b04      	cmp	r3, #4
 800749c:	bf04      	itt	eq
 800749e:	2307      	moveq	r3, #7
 80074a0:	7523      	strbeq	r3, [r4, #20]
 80074a2:	682b      	ldr	r3, [r5, #0]
 80074a4:	4628      	mov	r0, r5
 80074a6:	6723      	str	r3, [r4, #112]	; 0x70
 80074a8:	f7fe fede 	bl	8006268 <tcp_seg_free>
 80074ac:	6f25      	ldr	r5, [r4, #112]	; 0x70
 80074ae:	b125      	cbz	r5, 80074ba <tcp_receive+0x77a>
 80074b0:	68ea      	ldr	r2, [r5, #12]
 80074b2:	6a61      	ldr	r1, [r4, #36]	; 0x24
 80074b4:	6853      	ldr	r3, [r2, #4]
 80074b6:	428b      	cmp	r3, r1
 80074b8:	d0a4      	beq.n	8007404 <tcp_receive+0x6c4>
 80074ba:	7ea3      	ldrb	r3, [r4, #26]
 80074bc:	07d9      	lsls	r1, r3, #31
 80074be:	d506      	bpl.n	80074ce <tcp_receive+0x78e>
 80074c0:	f023 0301 	bic.w	r3, r3, #1
 80074c4:	f043 0302 	orr.w	r3, r3, #2
 80074c8:	e003      	b.n	80074d2 <tcp_receive+0x792>
 80074ca:	6019      	str	r1, [r3, #0]
 80074cc:	e7d7      	b.n	800747e <tcp_receive+0x73e>
 80074ce:	f043 0301 	orr.w	r3, r3, #1
 80074d2:	76a3      	strb	r3, [r4, #26]
 80074d4:	b003      	add	sp, #12
 80074d6:	e8bd 8ff0 	ldmia.w	sp!, {r4, r5, r6, r7, r8, r9, sl, fp, pc}
 80074da:	4620      	mov	r0, r4
 80074dc:	f000 ffee 	bl	80084bc <tcp_send_empty_ack>
 80074e0:	6f25      	ldr	r5, [r4, #112]	; 0x70
 80074e2:	b925      	cbnz	r5, 80074ee <tcp_receive+0x7ae>
 80074e4:	4833      	ldr	r0, [pc, #204]	; (80075b4 <tcp_receive+0x874>)
 80074e6:	f7fe fed5 	bl	8006294 <tcp_seg_copy>
 80074ea:	6720      	str	r0, [r4, #112]	; 0x70
 80074ec:	e7f2      	b.n	80074d4 <tcp_receive+0x794>
 80074ee:	f04f 0800 	mov.w	r8, #0
 80074f2:	6833      	ldr	r3, [r6, #0]
 80074f4:	f103 3cff 	add.w	ip, r3, #4294967295
 80074f8:	f103 0e01 	add.w	lr, r3, #1
 80074fc:	68e8      	ldr	r0, [r5, #12]
 80074fe:	6842      	ldr	r2, [r0, #4]
 8007500:	429a      	cmp	r2, r3
 8007502:	d117      	bne.n	8007534 <tcp_receive+0x7f4>
 8007504:	482b      	ldr	r0, [pc, #172]	; (80075b4 <tcp_receive+0x874>)
 8007506:	892b      	ldrh	r3, [r5, #8]
 8007508:	8902      	ldrh	r2, [r0, #8]
 800750a:	429a      	cmp	r2, r3
 800750c:	d9e2      	bls.n	80074d4 <tcp_receive+0x794>
 800750e:	f7fe fec1 	bl	8006294 <tcp_seg_copy>
 8007512:	2800      	cmp	r0, #0
 8007514:	d0de      	beq.n	80074d4 <tcp_receive+0x794>
 8007516:	f1b8 0f00 	cmp.w	r8, #0
 800751a:	d009      	beq.n	8007530 <tcp_receive+0x7f0>
 800751c:	f8c8 0000 	str.w	r0, [r8]
 8007520:	4629      	mov	r1, r5
 8007522:	b003      	add	sp, #12
 8007524:	e8bd 4ff0 	ldmia.w	sp!, {r4, r5, r6, r7, r8, r9, sl, fp, lr}
 8007528:	f7ff bbce 	b.w	8006cc8 <tcp_oos_insert_segment>
 800752c:	460d      	mov	r5, r1
 800752e:	e7e5      	b.n	80074fc <tcp_receive+0x7bc>
 8007530:	6720      	str	r0, [r4, #112]	; 0x70
 8007532:	e7f5      	b.n	8007520 <tcp_receive+0x7e0>
 8007534:	f1b8 0f00 	cmp.w	r8, #0
 8007538:	d109      	bne.n	800754e <tcp_receive+0x80e>
 800753a:	1a99      	subs	r1, r3, r2
 800753c:	2900      	cmp	r1, #0
 800753e:	da3d      	bge.n	80075bc <tcp_receive+0x87c>
 8007540:	481c      	ldr	r0, [pc, #112]	; (80075b4 <tcp_receive+0x874>)
 8007542:	f7fe fea7 	bl	8006294 <tcp_seg_copy>
 8007546:	2800      	cmp	r0, #0
 8007548:	d0c4      	beq.n	80074d4 <tcp_receive+0x794>
 800754a:	6720      	str	r0, [r4, #112]	; 0x70
 800754c:	e7e8      	b.n	8007520 <tcp_receive+0x7e0>
 800754e:	f8d8 100c 	ldr.w	r1, [r8, #12]
 8007552:	6849      	ldr	r1, [r1, #4]
 8007554:	ebac 0101 	sub.w	r1, ip, r1
 8007558:	2900      	cmp	r1, #0
 800755a:	db2f      	blt.n	80075bc <tcp_receive+0x87c>
 800755c:	ebae 0102 	sub.w	r1, lr, r2
 8007560:	2900      	cmp	r1, #0
 8007562:	dc2b      	bgt.n	80075bc <tcp_receive+0x87c>
 8007564:	4813      	ldr	r0, [pc, #76]	; (80075b4 <tcp_receive+0x874>)
 8007566:	f7fe fe95 	bl	8006294 <tcp_seg_copy>
 800756a:	4604      	mov	r4, r0
 800756c:	2800      	cmp	r0, #0
 800756e:	d0b1      	beq.n	80074d4 <tcp_receive+0x794>
 8007570:	f8d8 300c 	ldr.w	r3, [r8, #12]
 8007574:	6831      	ldr	r1, [r6, #0]
 8007576:	685a      	ldr	r2, [r3, #4]
 8007578:	f8b8 3008 	ldrh.w	r3, [r8, #8]
 800757c:	4413      	add	r3, r2
 800757e:	1a5b      	subs	r3, r3, r1
 8007580:	2b00      	cmp	r3, #0
 8007582:	dd07      	ble.n	8007594 <tcp_receive+0x854>
 8007584:	1a89      	subs	r1, r1, r2
 8007586:	b289      	uxth	r1, r1
 8007588:	f8d8 0004 	ldr.w	r0, [r8, #4]
 800758c:	f8a8 1008 	strh.w	r1, [r8, #8]
 8007590:	f7fe fbd0 	bl	8005d34 <pbuf_realloc>
 8007594:	4629      	mov	r1, r5
 8007596:	4620      	mov	r0, r4
 8007598:	f8c8 4000 	str.w	r4, [r8]
 800759c:	e7c1      	b.n	8007522 <tcp_receive+0x7e2>
 800759e:	bf00      	nop
 80075a0:	0800c693 	.word	0x0800c693
 80075a4:	0800c7da 	.word	0x0800c7da
 80075a8:	0800bcae 	.word	0x0800bcae
 80075ac:	2000042c 	.word	0x2000042c
 80075b0:	20000430 	.word	0x20000430
 80075b4:	20000418 	.word	0x20000418
 80075b8:	0800c7f9 	.word	0x0800c7f9
 80075bc:	6829      	ldr	r1, [r5, #0]
 80075be:	46a8      	mov	r8, r5
 80075c0:	2900      	cmp	r1, #0
 80075c2:	d1b3      	bne.n	800752c <tcp_receive+0x7ec>
 80075c4:	1a9b      	subs	r3, r3, r2
 80075c6:	2b00      	cmp	r3, #0
 80075c8:	dd84      	ble.n	80074d4 <tcp_receive+0x794>
 80075ca:	8980      	ldrh	r0, [r0, #12]
 80075cc:	f7fd fec4 	bl	8005358 <lwip_htons>
 80075d0:	07c2      	lsls	r2, r0, #31
 80075d2:	f53f af7f 	bmi.w	80074d4 <tcp_receive+0x794>
 80075d6:	483a      	ldr	r0, [pc, #232]	; (80076c0 <tcp_receive+0x980>)
 80075d8:	f7fe fe5c 	bl	8006294 <tcp_seg_copy>
 80075dc:	6028      	str	r0, [r5, #0]
 80075de:	2800      	cmp	r0, #0
 80075e0:	f43f af78 	beq.w	80074d4 <tcp_receive+0x794>
 80075e4:	68eb      	ldr	r3, [r5, #12]
 80075e6:	6831      	ldr	r1, [r6, #0]
 80075e8:	685a      	ldr	r2, [r3, #4]
 80075ea:	892b      	ldrh	r3, [r5, #8]
 80075ec:	4413      	add	r3, r2
 80075ee:	1a5b      	subs	r3, r3, r1
 80075f0:	2b00      	cmp	r3, #0
 80075f2:	dd05      	ble.n	8007600 <tcp_receive+0x8c0>
 80075f4:	1a89      	subs	r1, r1, r2
 80075f6:	b289      	uxth	r1, r1
 80075f8:	6868      	ldr	r0, [r5, #4]
 80075fa:	8129      	strh	r1, [r5, #8]
 80075fc:	f7fe fb9a 	bl	8005d34 <pbuf_realloc>
 8007600:	6832      	ldr	r2, [r6, #0]
 8007602:	883b      	ldrh	r3, [r7, #0]
 8007604:	4413      	add	r3, r2
 8007606:	6a62      	ldr	r2, [r4, #36]	; 0x24
 8007608:	1a9b      	subs	r3, r3, r2
 800760a:	8d22      	ldrh	r2, [r4, #40]	; 0x28
 800760c:	1a9b      	subs	r3, r3, r2
 800760e:	2b00      	cmp	r3, #0
 8007610:	f77f af60 	ble.w	80074d4 <tcp_receive+0x794>
 8007614:	682b      	ldr	r3, [r5, #0]
 8007616:	68db      	ldr	r3, [r3, #12]
 8007618:	8998      	ldrh	r0, [r3, #12]
 800761a:	f7fd fe9d 	bl	8005358 <lwip_htons>
 800761e:	07c3      	lsls	r3, r0, #31
 8007620:	d512      	bpl.n	8007648 <tcp_receive+0x908>
 8007622:	682b      	ldr	r3, [r5, #0]
 8007624:	68db      	ldr	r3, [r3, #12]
 8007626:	f8b3 800c 	ldrh.w	r8, [r3, #12]
 800762a:	4640      	mov	r0, r8
 800762c:	f7fd fe94 	bl	8005358 <lwip_htons>
 8007630:	f000 003e 	and.w	r0, r0, #62	; 0x3e
 8007634:	f7fd fe90 	bl	8005358 <lwip_htons>
 8007638:	682b      	ldr	r3, [r5, #0]
 800763a:	f428 587c 	bic.w	r8, r8, #16128	; 0x3f00
 800763e:	68db      	ldr	r3, [r3, #12]
 8007640:	ea40 0808 	orr.w	r8, r0, r8
 8007644:	f8a3 800c 	strh.w	r8, [r3, #12]
 8007648:	6832      	ldr	r2, [r6, #0]
 800764a:	8d21      	ldrh	r1, [r4, #40]	; 0x28
 800764c:	682b      	ldr	r3, [r5, #0]
 800764e:	1a89      	subs	r1, r1, r2
 8007650:	6a62      	ldr	r2, [r4, #36]	; 0x24
 8007652:	6858      	ldr	r0, [r3, #4]
 8007654:	4411      	add	r1, r2
 8007656:	b289      	uxth	r1, r1
 8007658:	8119      	strh	r1, [r3, #8]
 800765a:	f7fe fb6b 	bl	8005d34 <pbuf_realloc>
 800765e:	682b      	ldr	r3, [r5, #0]
 8007660:	891d      	ldrh	r5, [r3, #8]
 8007662:	68db      	ldr	r3, [r3, #12]
 8007664:	8998      	ldrh	r0, [r3, #12]
 8007666:	f7fd fe77 	bl	8005358 <lwip_htons>
 800766a:	f010 0003 	ands.w	r0, r0, #3
 800766e:	bf18      	it	ne
 8007670:	2001      	movne	r0, #1
 8007672:	6833      	ldr	r3, [r6, #0]
 8007674:	4428      	add	r0, r5
 8007676:	b280      	uxth	r0, r0
 8007678:	6a62      	ldr	r2, [r4, #36]	; 0x24
 800767a:	8038      	strh	r0, [r7, #0]
 800767c:	4418      	add	r0, r3
 800767e:	8d23      	ldrh	r3, [r4, #40]	; 0x28
 8007680:	4413      	add	r3, r2
 8007682:	4298      	cmp	r0, r3
 8007684:	f43f af26 	beq.w	80074d4 <tcp_receive+0x794>
 8007688:	f240 627a 	movw	r2, #1658	; 0x67a
 800768c:	4b0d      	ldr	r3, [pc, #52]	; (80076c4 <tcp_receive+0x984>)
 800768e:	490e      	ldr	r1, [pc, #56]	; (80076c8 <tcp_receive+0x988>)
 8007690:	480e      	ldr	r0, [pc, #56]	; (80076cc <tcp_receive+0x98c>)
 8007692:	b003      	add	sp, #12
 8007694:	e8bd 4ff0 	ldmia.w	sp!, {r4, r5, r6, r7, r8, r9, sl, fp, lr}
 8007698:	f003 b8ee 	b.w	800a878 <iprintf>
 800769c:	4620      	mov	r0, r4
 800769e:	b003      	add	sp, #12
 80076a0:	e8bd 4ff0 	ldmia.w	sp!, {r4, r5, r6, r7, r8, r9, sl, fp, lr}
 80076a4:	f000 bf0a 	b.w	80084bc <tcp_send_empty_ack>
 80076a8:	1a99      	subs	r1, r3, r2
 80076aa:	2900      	cmp	r1, #0
 80076ac:	db06      	blt.n	80076bc <tcp_receive+0x97c>
 80076ae:	3301      	adds	r3, #1
 80076b0:	1a9b      	subs	r3, r3, r2
 80076b2:	8d22      	ldrh	r2, [r4, #40]	; 0x28
 80076b4:	1a9b      	subs	r3, r3, r2
 80076b6:	2b00      	cmp	r3, #0
 80076b8:	f77f af0c 	ble.w	80074d4 <tcp_receive+0x794>
 80076bc:	7ea3      	ldrb	r3, [r4, #26]
 80076be:	e701      	b.n	80074c4 <tcp_receive+0x784>
 80076c0:	20000418 	.word	0x20000418
 80076c4:	0800c693 	.word	0x0800c693
 80076c8:	0800c768 	.word	0x0800c768
 80076cc:	0800bcae 	.word	0x0800bcae

080076d0 <tcp_getoptbyte>:
 80076d0:	4b0b      	ldr	r3, [pc, #44]	; (8007700 <tcp_getoptbyte+0x30>)
 80076d2:	490c      	ldr	r1, [pc, #48]	; (8007704 <tcp_getoptbyte+0x34>)
 80076d4:	6818      	ldr	r0, [r3, #0]
 80076d6:	880b      	ldrh	r3, [r1, #0]
 80076d8:	b530      	push	{r4, r5, lr}
 80076da:	1c5a      	adds	r2, r3, #1
 80076dc:	460d      	mov	r5, r1
 80076de:	b292      	uxth	r2, r2
 80076e0:	b118      	cbz	r0, 80076ea <tcp_getoptbyte+0x1a>
 80076e2:	4c09      	ldr	r4, [pc, #36]	; (8007708 <tcp_getoptbyte+0x38>)
 80076e4:	8824      	ldrh	r4, [r4, #0]
 80076e6:	429c      	cmp	r4, r3
 80076e8:	d905      	bls.n	80076f6 <tcp_getoptbyte+0x26>
 80076ea:	4908      	ldr	r1, [pc, #32]	; (800770c <tcp_getoptbyte+0x3c>)
 80076ec:	802a      	strh	r2, [r5, #0]
 80076ee:	6809      	ldr	r1, [r1, #0]
 80076f0:	440b      	add	r3, r1
 80076f2:	7d18      	ldrb	r0, [r3, #20]
 80076f4:	bd30      	pop	{r4, r5, pc}
 80076f6:	1b1b      	subs	r3, r3, r4
 80076f8:	b2db      	uxtb	r3, r3
 80076fa:	5cc0      	ldrb	r0, [r0, r3]
 80076fc:	800a      	strh	r2, [r1, #0]
 80076fe:	e7f9      	b.n	80076f4 <tcp_getoptbyte+0x24>
 8007700:	20000444 	.word	0x20000444
 8007704:	20000438 	.word	0x20000438
 8007708:	20000440 	.word	0x20000440
 800770c:	2000043c 	.word	0x2000043c

08007710 <tcp_parseopt.isra.0>:
 8007710:	b5f8      	push	{r3, r4, r5, r6, r7, lr}
 8007712:	4b1a      	ldr	r3, [pc, #104]	; (800777c <tcp_parseopt.isra.0+0x6c>)
 8007714:	4607      	mov	r7, r0
 8007716:	881e      	ldrh	r6, [r3, #0]
 8007718:	b166      	cbz	r6, 8007734 <tcp_parseopt.isra.0+0x24>
 800771a:	2300      	movs	r3, #0
 800771c:	4d18      	ldr	r5, [pc, #96]	; (8007780 <tcp_parseopt.isra.0+0x70>)
 800771e:	802b      	strh	r3, [r5, #0]
 8007720:	882b      	ldrh	r3, [r5, #0]
 8007722:	42b3      	cmp	r3, r6
 8007724:	d206      	bcs.n	8007734 <tcp_parseopt.isra.0+0x24>
 8007726:	f7ff ffd3 	bl	80076d0 <tcp_getoptbyte>
 800772a:	2801      	cmp	r0, #1
 800772c:	d0f8      	beq.n	8007720 <tcp_parseopt.isra.0+0x10>
 800772e:	2802      	cmp	r0, #2
 8007730:	d001      	beq.n	8007736 <tcp_parseopt.isra.0+0x26>
 8007732:	b9c8      	cbnz	r0, 8007768 <tcp_parseopt.isra.0+0x58>
 8007734:	bdf8      	pop	{r3, r4, r5, r6, r7, pc}
 8007736:	f7ff ffcb 	bl	80076d0 <tcp_getoptbyte>
 800773a:	2804      	cmp	r0, #4
 800773c:	d1fa      	bne.n	8007734 <tcp_parseopt.isra.0+0x24>
 800773e:	882b      	ldrh	r3, [r5, #0]
 8007740:	3301      	adds	r3, #1
 8007742:	42b3      	cmp	r3, r6
 8007744:	daf6      	bge.n	8007734 <tcp_parseopt.isra.0+0x24>
 8007746:	f7ff ffc3 	bl	80076d0 <tcp_getoptbyte>
 800774a:	0204      	lsls	r4, r0, #8
 800774c:	f7ff ffc0 	bl	80076d0 <tcp_getoptbyte>
 8007750:	b2a4      	uxth	r4, r4
 8007752:	ea44 0300 	orr.w	r3, r4, r0
 8007756:	b29b      	uxth	r3, r3
 8007758:	1e5a      	subs	r2, r3, #1
 800775a:	f5b2 7f06 	cmp.w	r2, #536	; 0x218
 800775e:	bf28      	it	cs
 8007760:	f44f 7306 	movcs.w	r3, #536	; 0x218
 8007764:	803b      	strh	r3, [r7, #0]
 8007766:	e7db      	b.n	8007720 <tcp_parseopt.isra.0+0x10>
 8007768:	f7ff ffb2 	bl	80076d0 <tcp_getoptbyte>
 800776c:	2801      	cmp	r0, #1
 800776e:	d9e1      	bls.n	8007734 <tcp_parseopt.isra.0+0x24>
 8007770:	882b      	ldrh	r3, [r5, #0]
 8007772:	3b02      	subs	r3, #2
 8007774:	4418      	add	r0, r3
 8007776:	8028      	strh	r0, [r5, #0]
 8007778:	e7d2      	b.n	8007720 <tcp_parseopt.isra.0+0x10>
 800777a:	bf00      	nop
 800777c:	20000448 	.word	0x20000448
 8007780:	20000438 	.word	0x20000438

08007784 <tcp_input_delayed_close>:
 8007784:	b510      	push	{r4, lr}
 8007786:	4b0d      	ldr	r3, [pc, #52]	; (80077bc <tcp_input_delayed_close+0x38>)
 8007788:	4604      	mov	r4, r0
 800778a:	781b      	ldrb	r3, [r3, #0]
 800778c:	f013 0010 	ands.w	r0, r3, #16
 8007790:	d012      	beq.n	80077b8 <tcp_input_delayed_close+0x34>
 8007792:	7ea3      	ldrb	r3, [r4, #26]
 8007794:	06db      	lsls	r3, r3, #27
 8007796:	d406      	bmi.n	80077a6 <tcp_input_delayed_close+0x22>
 8007798:	f8d4 308c 	ldr.w	r3, [r4, #140]	; 0x8c
 800779c:	b11b      	cbz	r3, 80077a6 <tcp_input_delayed_close+0x22>
 800779e:	f06f 010e 	mvn.w	r1, #14
 80077a2:	6920      	ldr	r0, [r4, #16]
 80077a4:	4798      	blx	r3
 80077a6:	4621      	mov	r1, r4
 80077a8:	4805      	ldr	r0, [pc, #20]	; (80077c0 <tcp_input_delayed_close+0x3c>)
 80077aa:	f7fe ff87 	bl	80066bc <tcp_pcb_remove>
 80077ae:	2001      	movs	r0, #1
 80077b0:	4621      	mov	r1, r4
 80077b2:	f7fe f823 	bl	80057fc <memp_free>
 80077b6:	2001      	movs	r0, #1
 80077b8:	bd10      	pop	{r4, pc}
 80077ba:	bf00      	nop
 80077bc:	20000430 	.word	0x20000430
 80077c0:	20006b8c 	.word	0x20006b8c

080077c4 <tcp_input>:
 80077c4:	e92d 4ff0 	stmdb	sp!, {r4, r5, r6, r7, r8, r9, sl, fp, lr}
 80077c8:	6843      	ldr	r3, [r0, #4]
 80077ca:	4ea4      	ldr	r6, [pc, #656]	; (8007a5c <tcp_input+0x298>)
 80077cc:	4605      	mov	r5, r0
 80077ce:	6033      	str	r3, [r6, #0]
 80077d0:	8943      	ldrh	r3, [r0, #10]
 80077d2:	b089      	sub	sp, #36	; 0x24
 80077d4:	2b13      	cmp	r3, #19
 80077d6:	f240 81bf 	bls.w	8007b58 <tcp_input+0x394>
 80077da:	4fa1      	ldr	r7, [pc, #644]	; (8007a60 <tcp_input+0x29c>)
 80077dc:	6839      	ldr	r1, [r7, #0]
 80077de:	6978      	ldr	r0, [r7, #20]
 80077e0:	f002 fa2d 	bl	8009c3e <ip4_addr_isbroadcast_u32>
 80077e4:	46b8      	mov	r8, r7
 80077e6:	4604      	mov	r4, r0
 80077e8:	2800      	cmp	r0, #0
 80077ea:	f040 81b5 	bne.w	8007b58 <tcp_input+0x394>
 80077ee:	697b      	ldr	r3, [r7, #20]
 80077f0:	f003 03f0 	and.w	r3, r3, #240	; 0xf0
 80077f4:	2be0      	cmp	r3, #224	; 0xe0
 80077f6:	f000 81af 	beq.w	8007b58 <tcp_input+0x394>
 80077fa:	6833      	ldr	r3, [r6, #0]
 80077fc:	8998      	ldrh	r0, [r3, #12]
 80077fe:	f7fd fdab 	bl	8005358 <lwip_htons>
 8007802:	0a83      	lsrs	r3, r0, #10
 8007804:	f003 03fc 	and.w	r3, r3, #252	; 0xfc
 8007808:	2b13      	cmp	r3, #19
 800780a:	f240 81a5 	bls.w	8007b58 <tcp_input+0x394>
 800780e:	892a      	ldrh	r2, [r5, #8]
 8007810:	b299      	uxth	r1, r3
 8007812:	429a      	cmp	r2, r3
 8007814:	f0c0 81a0 	bcc.w	8007b58 <tcp_input+0x394>
 8007818:	8968      	ldrh	r0, [r5, #10]
 800781a:	4a92      	ldr	r2, [pc, #584]	; (8007a64 <tcp_input+0x2a0>)
 800781c:	4f92      	ldr	r7, [pc, #584]	; (8007a68 <tcp_input+0x2a4>)
 800781e:	f1a1 0314 	sub.w	r3, r1, #20
 8007822:	b29b      	uxth	r3, r3
 8007824:	4288      	cmp	r0, r1
 8007826:	4691      	mov	r9, r2
 8007828:	f8df a28c 	ldr.w	sl, [pc, #652]	; 8007ab8 <tcp_input+0x2f4>
 800782c:	8013      	strh	r3, [r2, #0]
 800782e:	603c      	str	r4, [r7, #0]
 8007830:	d348      	bcc.n	80078c4 <tcp_input+0x100>
 8007832:	4628      	mov	r0, r5
 8007834:	4249      	negs	r1, r1
 8007836:	f8aa 3000 	strh.w	r3, [sl]
 800783a:	f7fe f93d 	bl	8005ab8 <pbuf_header>
 800783e:	6834      	ldr	r4, [r6, #0]
 8007840:	f8df b278 	ldr.w	fp, [pc, #632]	; 8007abc <tcp_input+0x2f8>
 8007844:	8820      	ldrh	r0, [r4, #0]
 8007846:	f7fd fd87 	bl	8005358 <lwip_htons>
 800784a:	8020      	strh	r0, [r4, #0]
 800784c:	6834      	ldr	r4, [r6, #0]
 800784e:	4f87      	ldr	r7, [pc, #540]	; (8007a6c <tcp_input+0x2a8>)
 8007850:	8860      	ldrh	r0, [r4, #2]
 8007852:	f7fd fd81 	bl	8005358 <lwip_htons>
 8007856:	8060      	strh	r0, [r4, #2]
 8007858:	6834      	ldr	r4, [r6, #0]
 800785a:	46ba      	mov	sl, r7
 800785c:	6860      	ldr	r0, [r4, #4]
 800785e:	f7fd fd7e 	bl	800535e <lwip_htonl>
 8007862:	6060      	str	r0, [r4, #4]
 8007864:	6834      	ldr	r4, [r6, #0]
 8007866:	f8cb 0000 	str.w	r0, [fp]
 800786a:	68a0      	ldr	r0, [r4, #8]
 800786c:	f7fd fd77 	bl	800535e <lwip_htonl>
 8007870:	60a0      	str	r0, [r4, #8]
 8007872:	6834      	ldr	r4, [r6, #0]
 8007874:	6038      	str	r0, [r7, #0]
 8007876:	89e0      	ldrh	r0, [r4, #14]
 8007878:	f7fd fd6e 	bl	8005358 <lwip_htons>
 800787c:	6833      	ldr	r3, [r6, #0]
 800787e:	81e0      	strh	r0, [r4, #14]
 8007880:	8998      	ldrh	r0, [r3, #12]
 8007882:	f7fd fd69 	bl	8005358 <lwip_htons>
 8007886:	f000 033f 	and.w	r3, r0, #63	; 0x3f
 800788a:	f010 0003 	ands.w	r0, r0, #3
 800788e:	bf18      	it	ne
 8007890:	2001      	movne	r0, #1
 8007892:	4a77      	ldr	r2, [pc, #476]	; (8007a70 <tcp_input+0x2ac>)
 8007894:	8929      	ldrh	r1, [r5, #8]
 8007896:	7013      	strb	r3, [r2, #0]
 8007898:	4b76      	ldr	r3, [pc, #472]	; (8007a74 <tcp_input+0x2b0>)
 800789a:	4408      	add	r0, r1
 800789c:	4976      	ldr	r1, [pc, #472]	; (8007a78 <tcp_input+0x2b4>)
 800789e:	8018      	strh	r0, [r3, #0]
 80078a0:	2000      	movs	r0, #0
 80078a2:	460f      	mov	r7, r1
 80078a4:	e9cd 2303 	strd	r2, r3, [sp, #12]
 80078a8:	680c      	ldr	r4, [r1, #0]
 80078aa:	4b74      	ldr	r3, [pc, #464]	; (8007a7c <tcp_input+0x2b8>)
 80078ac:	f8df 91d8 	ldr.w	r9, [pc, #472]	; 8007a88 <tcp_input+0x2c4>
 80078b0:	9005      	str	r0, [sp, #20]
 80078b2:	2c00      	cmp	r4, #0
 80078b4:	d145      	bne.n	8007942 <tcp_input+0x17e>
 80078b6:	4b72      	ldr	r3, [pc, #456]	; (8007a80 <tcp_input+0x2bc>)
 80078b8:	f8df 91c0 	ldr.w	r9, [pc, #448]	; 8007a7c <tcp_input+0x2b8>
 80078bc:	681c      	ldr	r4, [r3, #0]
 80078be:	f8df c200 	ldr.w	ip, [pc, #512]	; 8007ac0 <tcp_input+0x2fc>
 80078c2:	e150      	b.n	8007b66 <tcp_input+0x3a2>
 80078c4:	682b      	ldr	r3, [r5, #0]
 80078c6:	b92b      	cbnz	r3, 80078d4 <tcp_input+0x110>
 80078c8:	22b2      	movs	r2, #178	; 0xb2
 80078ca:	4b6c      	ldr	r3, [pc, #432]	; (8007a7c <tcp_input+0x2b8>)
 80078cc:	496d      	ldr	r1, [pc, #436]	; (8007a84 <tcp_input+0x2c0>)
 80078ce:	486e      	ldr	r0, [pc, #440]	; (8007a88 <tcp_input+0x2c4>)
 80078d0:	f002 ffd2 	bl	800a878 <iprintf>
 80078d4:	f06f 0113 	mvn.w	r1, #19
 80078d8:	4628      	mov	r0, r5
 80078da:	f7fe f8ed 	bl	8005ab8 <pbuf_header>
 80078de:	896c      	ldrh	r4, [r5, #10]
 80078e0:	4628      	mov	r0, r5
 80078e2:	4261      	negs	r1, r4
 80078e4:	b209      	sxth	r1, r1
 80078e6:	f8aa 4000 	strh.w	r4, [sl]
 80078ea:	f8b9 a000 	ldrh.w	sl, [r9]
 80078ee:	f7fe f8e3 	bl	8005ab8 <pbuf_header>
 80078f2:	6828      	ldr	r0, [r5, #0]
 80078f4:	ebaa 0904 	sub.w	r9, sl, r4
 80078f8:	8943      	ldrh	r3, [r0, #10]
 80078fa:	fa1f f989 	uxth.w	r9, r9
 80078fe:	454b      	cmp	r3, r9
 8007900:	f0c0 812a 	bcc.w	8007b58 <tcp_input+0x394>
 8007904:	6843      	ldr	r3, [r0, #4]
 8007906:	eba4 010a 	sub.w	r1, r4, sl
 800790a:	b28c      	uxth	r4, r1
 800790c:	b209      	sxth	r1, r1
 800790e:	603b      	str	r3, [r7, #0]
 8007910:	f7fe f8d2 	bl	8005ab8 <pbuf_header>
 8007914:	892b      	ldrh	r3, [r5, #8]
 8007916:	441c      	add	r4, r3
 8007918:	896b      	ldrh	r3, [r5, #10]
 800791a:	812c      	strh	r4, [r5, #8]
 800791c:	b12b      	cbz	r3, 800792a <tcp_input+0x166>
 800791e:	22cf      	movs	r2, #207	; 0xcf
 8007920:	4b56      	ldr	r3, [pc, #344]	; (8007a7c <tcp_input+0x2b8>)
 8007922:	495a      	ldr	r1, [pc, #360]	; (8007a8c <tcp_input+0x2c8>)
 8007924:	4858      	ldr	r0, [pc, #352]	; (8007a88 <tcp_input+0x2c4>)
 8007926:	f002 ffa7 	bl	800a878 <iprintf>
 800792a:	682b      	ldr	r3, [r5, #0]
 800792c:	892a      	ldrh	r2, [r5, #8]
 800792e:	891b      	ldrh	r3, [r3, #8]
 8007930:	429a      	cmp	r2, r3
 8007932:	d084      	beq.n	800783e <tcp_input+0x7a>
 8007934:	22d0      	movs	r2, #208	; 0xd0
 8007936:	4b51      	ldr	r3, [pc, #324]	; (8007a7c <tcp_input+0x2b8>)
 8007938:	4955      	ldr	r1, [pc, #340]	; (8007a90 <tcp_input+0x2cc>)
 800793a:	4853      	ldr	r0, [pc, #332]	; (8007a88 <tcp_input+0x2c4>)
 800793c:	f002 ff9c 	bl	800a878 <iprintf>
 8007940:	e77d      	b.n	800783e <tcp_input+0x7a>
 8007942:	7d22      	ldrb	r2, [r4, #20]
 8007944:	b92a      	cbnz	r2, 8007952 <tcp_input+0x18e>
 8007946:	22e2      	movs	r2, #226	; 0xe2
 8007948:	4648      	mov	r0, r9
 800794a:	4952      	ldr	r1, [pc, #328]	; (8007a94 <tcp_input+0x2d0>)
 800794c:	f002 ff94 	bl	800a878 <iprintf>
 8007950:	4b4a      	ldr	r3, [pc, #296]	; (8007a7c <tcp_input+0x2b8>)
 8007952:	7d22      	ldrb	r2, [r4, #20]
 8007954:	2a0a      	cmp	r2, #10
 8007956:	d105      	bne.n	8007964 <tcp_input+0x1a0>
 8007958:	22e3      	movs	r2, #227	; 0xe3
 800795a:	4648      	mov	r0, r9
 800795c:	494e      	ldr	r1, [pc, #312]	; (8007a98 <tcp_input+0x2d4>)
 800795e:	f002 ff8b 	bl	800a878 <iprintf>
 8007962:	4b46      	ldr	r3, [pc, #280]	; (8007a7c <tcp_input+0x2b8>)
 8007964:	7d22      	ldrb	r2, [r4, #20]
 8007966:	2a01      	cmp	r2, #1
 8007968:	d105      	bne.n	8007976 <tcp_input+0x1b2>
 800796a:	22e4      	movs	r2, #228	; 0xe4
 800796c:	4648      	mov	r0, r9
 800796e:	494b      	ldr	r1, [pc, #300]	; (8007a9c <tcp_input+0x2d8>)
 8007970:	f002 ff82 	bl	800a878 <iprintf>
 8007974:	4b41      	ldr	r3, [pc, #260]	; (8007a7c <tcp_input+0x2b8>)
 8007976:	6831      	ldr	r1, [r6, #0]
 8007978:	8b20      	ldrh	r0, [r4, #24]
 800797a:	880a      	ldrh	r2, [r1, #0]
 800797c:	4290      	cmp	r0, r2
 800797e:	68e2      	ldr	r2, [r4, #12]
 8007980:	d169      	bne.n	8007a56 <tcp_input+0x292>
 8007982:	8ae0      	ldrh	r0, [r4, #22]
 8007984:	8849      	ldrh	r1, [r1, #2]
 8007986:	4288      	cmp	r0, r1
 8007988:	d165      	bne.n	8007a56 <tcp_input+0x292>
 800798a:	6860      	ldr	r0, [r4, #4]
 800798c:	f8d8 1010 	ldr.w	r1, [r8, #16]
 8007990:	4288      	cmp	r0, r1
 8007992:	d160      	bne.n	8007a56 <tcp_input+0x292>
 8007994:	6820      	ldr	r0, [r4, #0]
 8007996:	f8d8 1014 	ldr.w	r1, [r8, #20]
 800799a:	4288      	cmp	r0, r1
 800799c:	d15b      	bne.n	8007a56 <tcp_input+0x292>
 800799e:	42a2      	cmp	r2, r4
 80079a0:	f040 841c 	bne.w	80081dc <tcp_input+0xa18>
 80079a4:	4b35      	ldr	r3, [pc, #212]	; (8007a7c <tcp_input+0x2b8>)
 80079a6:	22ec      	movs	r2, #236	; 0xec
 80079a8:	493d      	ldr	r1, [pc, #244]	; (8007aa0 <tcp_input+0x2dc>)
 80079aa:	4837      	ldr	r0, [pc, #220]	; (8007a88 <tcp_input+0x2c4>)
 80079ac:	f002 ff64 	bl	800a878 <iprintf>
 80079b0:	9b05      	ldr	r3, [sp, #20]
 80079b2:	b12b      	cbz	r3, 80079c0 <tcp_input+0x1fc>
 80079b4:	68e3      	ldr	r3, [r4, #12]
 80079b6:	9a05      	ldr	r2, [sp, #20]
 80079b8:	60d3      	str	r3, [r2, #12]
 80079ba:	683b      	ldr	r3, [r7, #0]
 80079bc:	603c      	str	r4, [r7, #0]
 80079be:	60e3      	str	r3, [r4, #12]
 80079c0:	68e3      	ldr	r3, [r4, #12]
 80079c2:	42a3      	cmp	r3, r4
 80079c4:	d105      	bne.n	80079d2 <tcp_input+0x20e>
 80079c6:	22f4      	movs	r2, #244	; 0xf4
 80079c8:	4b2c      	ldr	r3, [pc, #176]	; (8007a7c <tcp_input+0x2b8>)
 80079ca:	4936      	ldr	r1, [pc, #216]	; (8007aa4 <tcp_input+0x2e0>)
 80079cc:	482e      	ldr	r0, [pc, #184]	; (8007a88 <tcp_input+0x2c4>)
 80079ce:	f002 ff53 	bl	800a878 <iprintf>
 80079d2:	2200      	movs	r2, #0
 80079d4:	4b34      	ldr	r3, [pc, #208]	; (8007aa8 <tcp_input+0x2e4>)
 80079d6:	8929      	ldrh	r1, [r5, #8]
 80079d8:	4834      	ldr	r0, [pc, #208]	; (8007aac <tcp_input+0x2e8>)
 80079da:	8119      	strh	r1, [r3, #8]
 80079dc:	6831      	ldr	r1, [r6, #0]
 80079de:	f8df 80e4 	ldr.w	r8, [pc, #228]	; 8007ac4 <tcp_input+0x300>
 80079e2:	60d9      	str	r1, [r3, #12]
 80079e4:	4932      	ldr	r1, [pc, #200]	; (8007ab0 <tcp_input+0x2ec>)
 80079e6:	601a      	str	r2, [r3, #0]
 80079e8:	600a      	str	r2, [r1, #0]
 80079ea:	f888 2000 	strb.w	r2, [r8]
 80079ee:	8002      	strh	r2, [r0, #0]
 80079f0:	9a03      	ldr	r2, [sp, #12]
 80079f2:	4689      	mov	r9, r1
 80079f4:	7812      	ldrb	r2, [r2, #0]
 80079f6:	605d      	str	r5, [r3, #4]
 80079f8:	f012 0f08 	tst.w	r2, #8
 80079fc:	9005      	str	r0, [sp, #20]
 80079fe:	9306      	str	r3, [sp, #24]
 8007a00:	d003      	beq.n	8007a0a <tcp_input+0x246>
 8007a02:	7b6b      	ldrb	r3, [r5, #13]
 8007a04:	f043 0301 	orr.w	r3, r3, #1
 8007a08:	736b      	strb	r3, [r5, #13]
 8007a0a:	6f63      	ldr	r3, [r4, #116]	; 0x74
 8007a0c:	2b00      	cmp	r3, #0
 8007a0e:	f000 8144 	beq.w	8007c9a <tcp_input+0x4d6>
 8007a12:	4620      	mov	r0, r4
 8007a14:	f7fe ff66 	bl	80068e4 <tcp_process_refused_data>
 8007a18:	300d      	adds	r0, #13
 8007a1a:	d008      	beq.n	8007a2e <tcp_input+0x26a>
 8007a1c:	6f63      	ldr	r3, [r4, #116]	; 0x74
 8007a1e:	2b00      	cmp	r3, #0
 8007a20:	f000 813b 	beq.w	8007c9a <tcp_input+0x4d6>
 8007a24:	9b04      	ldr	r3, [sp, #16]
 8007a26:	881b      	ldrh	r3, [r3, #0]
 8007a28:	2b00      	cmp	r3, #0
 8007a2a:	f000 8136 	beq.w	8007c9a <tcp_input+0x4d6>
 8007a2e:	8d63      	ldrh	r3, [r4, #42]	; 0x2a
 8007a30:	b913      	cbnz	r3, 8007a38 <tcp_input+0x274>
 8007a32:	4620      	mov	r0, r4
 8007a34:	f000 fd42 	bl	80084bc <tcp_send_empty_ack>
 8007a38:	2400      	movs	r4, #0
 8007a3a:	4b1e      	ldr	r3, [pc, #120]	; (8007ab4 <tcp_input+0x2f0>)
 8007a3c:	f8c9 4000 	str.w	r4, [r9]
 8007a40:	601c      	str	r4, [r3, #0]
 8007a42:	9b06      	ldr	r3, [sp, #24]
 8007a44:	6858      	ldr	r0, [r3, #4]
 8007a46:	b118      	cbz	r0, 8007a50 <tcp_input+0x28c>
 8007a48:	f7fe f83c 	bl	8005ac4 <pbuf_free>
 8007a4c:	9b06      	ldr	r3, [sp, #24]
 8007a4e:	605c      	str	r4, [r3, #4]
 8007a50:	b009      	add	sp, #36	; 0x24
 8007a52:	e8bd 8ff0 	ldmia.w	sp!, {r4, r5, r6, r7, r8, r9, sl, fp, pc}
 8007a56:	9405      	str	r4, [sp, #20]
 8007a58:	4614      	mov	r4, r2
 8007a5a:	e72a      	b.n	80078b2 <tcp_input+0xee>
 8007a5c:	2000043c 	.word	0x2000043c
 8007a60:	20003664 	.word	0x20003664
 8007a64:	20000448 	.word	0x20000448
 8007a68:	20000444 	.word	0x20000444
 8007a6c:	20000410 	.word	0x20000410
 8007a70:	20000414 	.word	0x20000414
 8007a74:	2000044a 	.word	0x2000044a
 8007a78:	20006b8c 	.word	0x20006b8c
 8007a7c:	0800c693 	.word	0x0800c693
 8007a80:	20006b9c 	.word	0x20006b9c
 8007a84:	0800c81e 	.word	0x0800c81e
 8007a88:	0800bcae 	.word	0x0800bcae
 8007a8c:	0800c82e 	.word	0x0800c82e
 8007a90:	0800c83a 	.word	0x0800c83a
 8007a94:	0800c859 	.word	0x0800c859
 8007a98:	0800c880 	.word	0x0800c880
 8007a9c:	0800c8aa 	.word	0x0800c8aa
 8007aa0:	0800c8d1 	.word	0x0800c8d1
 8007aa4:	0800c8fc 	.word	0x0800c8fc
 8007aa8:	20000418 	.word	0x20000418
 8007aac:	20000428 	.word	0x20000428
 8007ab0:	2000042c 	.word	0x2000042c
 8007ab4:	20006ba0 	.word	0x20006ba0
 8007ab8:	20000440 	.word	0x20000440
 8007abc:	20000434 	.word	0x20000434
 8007ac0:	0800c926 	.word	0x0800c926
 8007ac4:	20000430 	.word	0x20000430
 8007ac8:	7d23      	ldrb	r3, [r4, #20]
 8007aca:	2b0a      	cmp	r3, #10
 8007acc:	d007      	beq.n	8007ade <tcp_input+0x31a>
 8007ace:	4661      	mov	r1, ip
 8007ad0:	464b      	mov	r3, r9
 8007ad2:	22fe      	movs	r2, #254	; 0xfe
 8007ad4:	48a7      	ldr	r0, [pc, #668]	; (8007d74 <tcp_input+0x5b0>)
 8007ad6:	f002 fecf 	bl	800a878 <iprintf>
 8007ada:	f8df c2bc 	ldr.w	ip, [pc, #700]	; 8007d98 <tcp_input+0x5d4>
 8007ade:	6833      	ldr	r3, [r6, #0]
 8007ae0:	8b20      	ldrh	r0, [r4, #24]
 8007ae2:	881a      	ldrh	r2, [r3, #0]
 8007ae4:	4290      	cmp	r0, r2
 8007ae6:	d13d      	bne.n	8007b64 <tcp_input+0x3a0>
 8007ae8:	885b      	ldrh	r3, [r3, #2]
 8007aea:	8ae2      	ldrh	r2, [r4, #22]
 8007aec:	429a      	cmp	r2, r3
 8007aee:	d139      	bne.n	8007b64 <tcp_input+0x3a0>
 8007af0:	f8d8 3010 	ldr.w	r3, [r8, #16]
 8007af4:	4619      	mov	r1, r3
 8007af6:	6863      	ldr	r3, [r4, #4]
 8007af8:	428b      	cmp	r3, r1
 8007afa:	d133      	bne.n	8007b64 <tcp_input+0x3a0>
 8007afc:	f8d8 3014 	ldr.w	r3, [r8, #20]
 8007b00:	4619      	mov	r1, r3
 8007b02:	6823      	ldr	r3, [r4, #0]
 8007b04:	428b      	cmp	r3, r1
 8007b06:	d12d      	bne.n	8007b64 <tcp_input+0x3a0>
 8007b08:	9b03      	ldr	r3, [sp, #12]
 8007b0a:	781b      	ldrb	r3, [r3, #0]
 8007b0c:	075e      	lsls	r6, r3, #29
 8007b0e:	d423      	bmi.n	8007b58 <tcp_input+0x394>
 8007b10:	9904      	ldr	r1, [sp, #16]
 8007b12:	880e      	ldrh	r6, [r1, #0]
 8007b14:	0799      	lsls	r1, r3, #30
 8007b16:	d512      	bpl.n	8007b3e <tcp_input+0x37a>
 8007b18:	f8db 1000 	ldr.w	r1, [fp]
 8007b1c:	6a63      	ldr	r3, [r4, #36]	; 0x24
 8007b1e:	1acb      	subs	r3, r1, r3
 8007b20:	d412      	bmi.n	8007b48 <tcp_input+0x384>
 8007b22:	8d27      	ldrh	r7, [r4, #40]	; 0x28
 8007b24:	1bdb      	subs	r3, r3, r7
 8007b26:	2b00      	cmp	r3, #0
 8007b28:	dc0e      	bgt.n	8007b48 <tcp_input+0x384>
 8007b2a:	4b93      	ldr	r3, [pc, #588]	; (8007d78 <tcp_input+0x5b4>)
 8007b2c:	e9cd 2000 	strd	r2, r0, [sp]
 8007b30:	4431      	add	r1, r6
 8007b32:	1d1a      	adds	r2, r3, #4
 8007b34:	f8da 0000 	ldr.w	r0, [sl]
 8007b38:	f000 fe78 	bl	800882c <tcp_rst>
 8007b3c:	e00c      	b.n	8007b58 <tcp_input+0x394>
 8007b3e:	07df      	lsls	r7, r3, #31
 8007b40:	bf42      	ittt	mi
 8007b42:	4b8e      	ldrmi	r3, [pc, #568]	; (8007d7c <tcp_input+0x5b8>)
 8007b44:	681b      	ldrmi	r3, [r3, #0]
 8007b46:	6223      	strmi	r3, [r4, #32]
 8007b48:	b136      	cbz	r6, 8007b58 <tcp_input+0x394>
 8007b4a:	4620      	mov	r0, r4
 8007b4c:	7ea3      	ldrb	r3, [r4, #26]
 8007b4e:	f043 0302 	orr.w	r3, r3, #2
 8007b52:	76a3      	strb	r3, [r4, #26]
 8007b54:	f000 fce8 	bl	8008528 <tcp_output>
 8007b58:	4628      	mov	r0, r5
 8007b5a:	b009      	add	sp, #36	; 0x24
 8007b5c:	e8bd 4ff0 	ldmia.w	sp!, {r4, r5, r6, r7, r8, r9, sl, fp, lr}
 8007b60:	f7fd bfb0 	b.w	8005ac4 <pbuf_free>
 8007b64:	68e4      	ldr	r4, [r4, #12]
 8007b66:	2c00      	cmp	r4, #0
 8007b68:	d1ae      	bne.n	8007ac8 <tcp_input+0x304>
 8007b6a:	4b85      	ldr	r3, [pc, #532]	; (8007d80 <tcp_input+0x5bc>)
 8007b6c:	6832      	ldr	r2, [r6, #0]
 8007b6e:	6819      	ldr	r1, [r3, #0]
 8007b70:	f8d8 c014 	ldr.w	ip, [r8, #20]
 8007b74:	4689      	mov	r9, r1
 8007b76:	f1b9 0f00 	cmp.w	r9, #0
 8007b7a:	d111      	bne.n	8007ba0 <tcp_input+0x3dc>
 8007b7c:	8990      	ldrh	r0, [r2, #12]
 8007b7e:	f7fd fbeb 	bl	8005358 <lwip_htons>
 8007b82:	0743      	lsls	r3, r0, #29
 8007b84:	d4e8      	bmi.n	8007b58 <tcp_input+0x394>
 8007b86:	6833      	ldr	r3, [r6, #0]
 8007b88:	9a04      	ldr	r2, [sp, #16]
 8007b8a:	f8db 1000 	ldr.w	r1, [fp]
 8007b8e:	8810      	ldrh	r0, [r2, #0]
 8007b90:	881a      	ldrh	r2, [r3, #0]
 8007b92:	4401      	add	r1, r0
 8007b94:	9201      	str	r2, [sp, #4]
 8007b96:	885b      	ldrh	r3, [r3, #2]
 8007b98:	9300      	str	r3, [sp, #0]
 8007b9a:	4b77      	ldr	r3, [pc, #476]	; (8007d78 <tcp_input+0x5b4>)
 8007b9c:	1d1a      	adds	r2, r3, #4
 8007b9e:	e7c9      	b.n	8007b34 <tcp_input+0x370>
 8007ba0:	8850      	ldrh	r0, [r2, #2]
 8007ba2:	f8b9 3016 	ldrh.w	r3, [r9, #22]
 8007ba6:	4283      	cmp	r3, r0
 8007ba8:	d107      	bne.n	8007bba <tcp_input+0x3f6>
 8007baa:	f8d9 3000 	ldr.w	r3, [r9]
 8007bae:	4563      	cmp	r3, ip
 8007bb0:	f000 82f7 	beq.w	80081a2 <tcp_input+0x9de>
 8007bb4:	2b00      	cmp	r3, #0
 8007bb6:	f000 82f4 	beq.w	80081a2 <tcp_input+0x9de>
 8007bba:	464c      	mov	r4, r9
 8007bbc:	f8d9 900c 	ldr.w	r9, [r9, #12]
 8007bc0:	e7d9      	b.n	8007b76 <tcp_input+0x3b2>
 8007bc2:	0799      	lsls	r1, r3, #30
 8007bc4:	d5c8      	bpl.n	8007b58 <tcp_input+0x394>
 8007bc6:	f899 0015 	ldrb.w	r0, [r9, #21]
 8007bca:	f7fe ffb5 	bl	8006b38 <tcp_alloc>
 8007bce:	4682      	mov	sl, r0
 8007bd0:	b950      	cbnz	r0, 8007be8 <tcp_input+0x424>
 8007bd2:	f8d9 3018 	ldr.w	r3, [r9, #24]
 8007bd6:	2b00      	cmp	r3, #0
 8007bd8:	d0be      	beq.n	8007b58 <tcp_input+0x394>
 8007bda:	4601      	mov	r1, r0
 8007bdc:	f04f 32ff 	mov.w	r2, #4294967295
 8007be0:	f8d9 0010 	ldr.w	r0, [r9, #16]
 8007be4:	4798      	blx	r3
 8007be6:	e7b7      	b.n	8007b58 <tcp_input+0x394>
 8007be8:	f8d8 3014 	ldr.w	r3, [r8, #20]
 8007bec:	6832      	ldr	r2, [r6, #0]
 8007bee:	6003      	str	r3, [r0, #0]
 8007bf0:	f8d8 3010 	ldr.w	r3, [r8, #16]
 8007bf4:	6043      	str	r3, [r0, #4]
 8007bf6:	f8b9 3016 	ldrh.w	r3, [r9, #22]
 8007bfa:	82c3      	strh	r3, [r0, #22]
 8007bfc:	7813      	ldrb	r3, [r2, #0]
 8007bfe:	7852      	ldrb	r2, [r2, #1]
 8007c00:	ea43 2302 	orr.w	r3, r3, r2, lsl #8
 8007c04:	8303      	strh	r3, [r0, #24]
 8007c06:	2303      	movs	r3, #3
 8007c08:	7503      	strb	r3, [r0, #20]
 8007c0a:	f8db 3000 	ldr.w	r3, [fp]
 8007c0e:	3301      	adds	r3, #1
 8007c10:	6243      	str	r3, [r0, #36]	; 0x24
 8007c12:	62c3      	str	r3, [r0, #44]	; 0x2c
 8007c14:	f7ff f816 	bl	8006c44 <tcp_next_iss>
 8007c18:	f8db 3000 	ldr.w	r3, [fp]
 8007c1c:	f8ca 0054 	str.w	r0, [sl, #84]	; 0x54
 8007c20:	3b01      	subs	r3, #1
 8007c22:	f8ca 3050 	str.w	r3, [sl, #80]	; 0x50
 8007c26:	f8d9 3010 	ldr.w	r3, [r9, #16]
 8007c2a:	f8ca 004c 	str.w	r0, [sl, #76]	; 0x4c
 8007c2e:	f8ca 0044 	str.w	r0, [sl, #68]	; 0x44
 8007c32:	f8ca 0058 	str.w	r0, [sl, #88]	; 0x58
 8007c36:	f8ca 3010 	str.w	r3, [sl, #16]
 8007c3a:	f8ca 9078 	str.w	r9, [sl, #120]	; 0x78
 8007c3e:	f899 3008 	ldrb.w	r3, [r9, #8]
 8007c42:	f003 030c 	and.w	r3, r3, #12
 8007c46:	f88a 3008 	strb.w	r3, [sl, #8]
 8007c4a:	683b      	ldr	r3, [r7, #0]
 8007c4c:	f8c7 a000 	str.w	sl, [r7]
 8007c50:	f8ca 300c 	str.w	r3, [sl, #12]
 8007c54:	f000 ff84 	bl	8008b60 <tcp_timer_needed>
 8007c58:	2201      	movs	r2, #1
 8007c5a:	4b4a      	ldr	r3, [pc, #296]	; (8007d84 <tcp_input+0x5c0>)
 8007c5c:	f10a 0032 	add.w	r0, sl, #50	; 0x32
 8007c60:	701a      	strb	r2, [r3, #0]
 8007c62:	f7ff fd55 	bl	8007710 <tcp_parseopt.isra.0>
 8007c66:	6833      	ldr	r3, [r6, #0]
 8007c68:	f10a 0104 	add.w	r1, sl, #4
 8007c6c:	89db      	ldrh	r3, [r3, #14]
 8007c6e:	f8ba 0032 	ldrh.w	r0, [sl, #50]	; 0x32
 8007c72:	f8aa 305c 	strh.w	r3, [sl, #92]	; 0x5c
 8007c76:	f8aa 305e 	strh.w	r3, [sl, #94]	; 0x5e
 8007c7a:	f7fe ffef 	bl	8006c5c <tcp_eff_send_mss_impl>
 8007c7e:	2112      	movs	r1, #18
 8007c80:	f8aa 0032 	strh.w	r0, [sl, #50]	; 0x32
 8007c84:	4650      	mov	r0, sl
 8007c86:	f000 fb67 	bl	8008358 <tcp_enqueue_flags>
 8007c8a:	b120      	cbz	r0, 8007c96 <tcp_input+0x4d2>
 8007c8c:	4621      	mov	r1, r4
 8007c8e:	4650      	mov	r0, sl
 8007c90:	f7fe feac 	bl	80069ec <tcp_abandon>
 8007c94:	e760      	b.n	8007b58 <tcp_input+0x394>
 8007c96:	4650      	mov	r0, sl
 8007c98:	e75c      	b.n	8007b54 <tcp_input+0x390>
 8007c9a:	4b3b      	ldr	r3, [pc, #236]	; (8007d88 <tcp_input+0x5c4>)
 8007c9c:	601c      	str	r4, [r3, #0]
 8007c9e:	9b03      	ldr	r3, [sp, #12]
 8007ca0:	781d      	ldrb	r5, [r3, #0]
 8007ca2:	076a      	lsls	r2, r5, #29
 8007ca4:	d53d      	bpl.n	8007d22 <tcp_input+0x55e>
 8007ca6:	7d21      	ldrb	r1, [r4, #20]
 8007ca8:	2902      	cmp	r1, #2
 8007caa:	d123      	bne.n	8007cf4 <tcp_input+0x530>
 8007cac:	6ce2      	ldr	r2, [r4, #76]	; 0x4c
 8007cae:	f8da 3000 	ldr.w	r3, [sl]
 8007cb2:	429a      	cmp	r2, r3
 8007cb4:	d109      	bne.n	8007cca <tcp_input+0x506>
 8007cb6:	f898 3000 	ldrb.w	r3, [r8]
 8007cba:	f043 0308 	orr.w	r3, r3, #8
 8007cbe:	f888 3000 	strb.w	r3, [r8]
 8007cc2:	7ea3      	ldrb	r3, [r4, #26]
 8007cc4:	f023 0301 	bic.w	r3, r3, #1
 8007cc8:	76a3      	strb	r3, [r4, #26]
 8007cca:	f898 3000 	ldrb.w	r3, [r8]
 8007cce:	0719      	lsls	r1, r3, #28
 8007cd0:	f140 8200 	bpl.w	80080d4 <tcp_input+0x910>
 8007cd4:	f8d4 308c 	ldr.w	r3, [r4, #140]	; 0x8c
 8007cd8:	b11b      	cbz	r3, 8007ce2 <tcp_input+0x51e>
 8007cda:	f06f 010d 	mvn.w	r1, #13
 8007cde:	6920      	ldr	r0, [r4, #16]
 8007ce0:	4798      	blx	r3
 8007ce2:	4621      	mov	r1, r4
 8007ce4:	4829      	ldr	r0, [pc, #164]	; (8007d8c <tcp_input+0x5c8>)
 8007ce6:	f7fe fce9 	bl	80066bc <tcp_pcb_remove>
 8007cea:	4621      	mov	r1, r4
 8007cec:	2001      	movs	r0, #1
 8007cee:	f7fd fd85 	bl	80057fc <memp_free>
 8007cf2:	e6a1      	b.n	8007a38 <tcp_input+0x274>
 8007cf4:	6a62      	ldr	r2, [r4, #36]	; 0x24
 8007cf6:	f8db 3000 	ldr.w	r3, [fp]
 8007cfa:	429a      	cmp	r2, r3
 8007cfc:	d007      	beq.n	8007d0e <tcp_input+0x54a>
 8007cfe:	1a9b      	subs	r3, r3, r2
 8007d00:	d4e3      	bmi.n	8007cca <tcp_input+0x506>
 8007d02:	8d22      	ldrh	r2, [r4, #40]	; 0x28
 8007d04:	1a9b      	subs	r3, r3, r2
 8007d06:	2b00      	cmp	r3, #0
 8007d08:	dcdf      	bgt.n	8007cca <tcp_input+0x506>
 8007d0a:	7ea3      	ldrb	r3, [r4, #26]
 8007d0c:	e011      	b.n	8007d32 <tcp_input+0x56e>
 8007d0e:	2900      	cmp	r1, #0
 8007d10:	d1d1      	bne.n	8007cb6 <tcp_input+0x4f2>
 8007d12:	f240 22e7 	movw	r2, #743	; 0x2e7
 8007d16:	4b1e      	ldr	r3, [pc, #120]	; (8007d90 <tcp_input+0x5cc>)
 8007d18:	491e      	ldr	r1, [pc, #120]	; (8007d94 <tcp_input+0x5d0>)
 8007d1a:	4816      	ldr	r0, [pc, #88]	; (8007d74 <tcp_input+0x5b0>)
 8007d1c:	f002 fdac 	bl	800a878 <iprintf>
 8007d20:	e7c9      	b.n	8007cb6 <tcp_input+0x4f2>
 8007d22:	f015 0202 	ands.w	r2, r5, #2
 8007d26:	7ea3      	ldrb	r3, [r4, #26]
 8007d28:	d006      	beq.n	8007d38 <tcp_input+0x574>
 8007d2a:	7d21      	ldrb	r1, [r4, #20]
 8007d2c:	3902      	subs	r1, #2
 8007d2e:	2901      	cmp	r1, #1
 8007d30:	d902      	bls.n	8007d38 <tcp_input+0x574>
 8007d32:	f043 0302 	orr.w	r3, r3, #2
 8007d36:	e7c7      	b.n	8007cc8 <tcp_input+0x504>
 8007d38:	06db      	lsls	r3, r3, #27
 8007d3a:	bf58      	it	pl
 8007d3c:	4b0f      	ldrpl	r3, [pc, #60]	; (8007d7c <tcp_input+0x5b8>)
 8007d3e:	f104 0032 	add.w	r0, r4, #50	; 0x32
 8007d42:	bf58      	it	pl
 8007d44:	681b      	ldrpl	r3, [r3, #0]
 8007d46:	9207      	str	r2, [sp, #28]
 8007d48:	bf58      	it	pl
 8007d4a:	6223      	strpl	r3, [r4, #32]
 8007d4c:	2300      	movs	r3, #0
 8007d4e:	f884 3096 	strb.w	r3, [r4, #150]	; 0x96
 8007d52:	f7ff fcdd 	bl	8007710 <tcp_parseopt.isra.0>
 8007d56:	7d23      	ldrb	r3, [r4, #20]
 8007d58:	9a07      	ldr	r2, [sp, #28]
 8007d5a:	3b02      	subs	r3, #2
 8007d5c:	2b07      	cmp	r3, #7
 8007d5e:	d8b4      	bhi.n	8007cca <tcp_input+0x506>
 8007d60:	e8df f013 	tbh	[pc, r3, lsl #1]
 8007d64:	009e001c 	.word	0x009e001c
 8007d68:	010c0108 	.word	0x010c0108
 8007d6c:	01080156 	.word	0x01080156
 8007d70:	018e016f 	.word	0x018e016f
 8007d74:	0800bcae 	.word	0x0800bcae
 8007d78:	20003674 	.word	0x20003674
 8007d7c:	20006b90 	.word	0x20006b90
 8007d80:	20006b94 	.word	0x20006b94
 8007d84:	20006b88 	.word	0x20006b88
 8007d88:	20006ba0 	.word	0x20006ba0
 8007d8c:	20006b8c 	.word	0x20006b8c
 8007d90:	0800c693 	.word	0x0800c693
 8007d94:	0800c953 	.word	0x0800c953
 8007d98:	0800c926 	.word	0x0800c926
 8007d9c:	f005 0312 	and.w	r3, r5, #18
 8007da0:	2b12      	cmp	r3, #18
 8007da2:	d15f      	bne.n	8007e64 <tcp_input+0x6a0>
 8007da4:	6c62      	ldr	r2, [r4, #68]	; 0x44
 8007da6:	f8da 3000 	ldr.w	r3, [sl]
 8007daa:	3201      	adds	r2, #1
 8007dac:	429a      	cmp	r2, r3
 8007dae:	d159      	bne.n	8007e64 <tcp_input+0x6a0>
 8007db0:	f8db 3000 	ldr.w	r3, [fp]
 8007db4:	6462      	str	r2, [r4, #68]	; 0x44
 8007db6:	1c59      	adds	r1, r3, #1
 8007db8:	6832      	ldr	r2, [r6, #0]
 8007dba:	6261      	str	r1, [r4, #36]	; 0x24
 8007dbc:	62e1      	str	r1, [r4, #44]	; 0x2c
 8007dbe:	3b01      	subs	r3, #1
 8007dc0:	89d2      	ldrh	r2, [r2, #14]
 8007dc2:	6523      	str	r3, [r4, #80]	; 0x50
 8007dc4:	2304      	movs	r3, #4
 8007dc6:	f8a4 205c 	strh.w	r2, [r4, #92]	; 0x5c
 8007dca:	f8a4 205e 	strh.w	r2, [r4, #94]	; 0x5e
 8007dce:	7523      	strb	r3, [r4, #20]
 8007dd0:	18e1      	adds	r1, r4, r3
 8007dd2:	8e60      	ldrh	r0, [r4, #50]	; 0x32
 8007dd4:	f7fe ff42 	bl	8006c5c <tcp_eff_send_mss_impl>
 8007dd8:	f241 121c 	movw	r2, #4380	; 0x111c
 8007ddc:	0043      	lsls	r3, r0, #1
 8007dde:	4293      	cmp	r3, r2
 8007de0:	bf38      	it	cc
 8007de2:	4613      	movcc	r3, r2
 8007de4:	8660      	strh	r0, [r4, #50]	; 0x32
 8007de6:	0080      	lsls	r0, r0, #2
 8007de8:	4298      	cmp	r0, r3
 8007dea:	bf28      	it	cs
 8007dec:	4618      	movcs	r0, r3
 8007dee:	f8b4 3062 	ldrh.w	r3, [r4, #98]	; 0x62
 8007df2:	f8a4 0048 	strh.w	r0, [r4, #72]	; 0x48
 8007df6:	b933      	cbnz	r3, 8007e06 <tcp_input+0x642>
 8007df8:	f240 321a 	movw	r2, #794	; 0x31a
 8007dfc:	4bad      	ldr	r3, [pc, #692]	; (80080b4 <tcp_input+0x8f0>)
 8007dfe:	49ae      	ldr	r1, [pc, #696]	; (80080b8 <tcp_input+0x8f4>)
 8007e00:	48ae      	ldr	r0, [pc, #696]	; (80080bc <tcp_input+0x8f8>)
 8007e02:	f002 fd39 	bl	800a878 <iprintf>
 8007e06:	f8b4 3062 	ldrh.w	r3, [r4, #98]	; 0x62
 8007e0a:	6ee5      	ldr	r5, [r4, #108]	; 0x6c
 8007e0c:	3b01      	subs	r3, #1
 8007e0e:	f8a4 3062 	strh.w	r3, [r4, #98]	; 0x62
 8007e12:	b9fd      	cbnz	r5, 8007e54 <tcp_input+0x690>
 8007e14:	6ea5      	ldr	r5, [r4, #104]	; 0x68
 8007e16:	b935      	cbnz	r5, 8007e26 <tcp_input+0x662>
 8007e18:	f240 3222 	movw	r2, #802	; 0x322
 8007e1c:	4ba5      	ldr	r3, [pc, #660]	; (80080b4 <tcp_input+0x8f0>)
 8007e1e:	49a8      	ldr	r1, [pc, #672]	; (80080c0 <tcp_input+0x8fc>)
 8007e20:	48a6      	ldr	r0, [pc, #664]	; (80080bc <tcp_input+0x8f8>)
 8007e22:	f002 fd29 	bl	800a878 <iprintf>
 8007e26:	682b      	ldr	r3, [r5, #0]
 8007e28:	66a3      	str	r3, [r4, #104]	; 0x68
 8007e2a:	4628      	mov	r0, r5
 8007e2c:	f7fe fa1c 	bl	8006268 <tcp_seg_free>
 8007e30:	6ee3      	ldr	r3, [r4, #108]	; 0x6c
 8007e32:	b993      	cbnz	r3, 8007e5a <tcp_input+0x696>
 8007e34:	f64f 73ff 	movw	r3, #65535	; 0xffff
 8007e38:	8623      	strh	r3, [r4, #48]	; 0x30
 8007e3a:	f8d4 3084 	ldr.w	r3, [r4, #132]	; 0x84
 8007e3e:	2b00      	cmp	r3, #0
 8007e40:	f43f af63 	beq.w	8007d0a <tcp_input+0x546>
 8007e44:	2200      	movs	r2, #0
 8007e46:	4621      	mov	r1, r4
 8007e48:	6920      	ldr	r0, [r4, #16]
 8007e4a:	4798      	blx	r3
 8007e4c:	300d      	adds	r0, #13
 8007e4e:	f47f af5c 	bne.w	8007d0a <tcp_input+0x546>
 8007e52:	e5f1      	b.n	8007a38 <tcp_input+0x274>
 8007e54:	682b      	ldr	r3, [r5, #0]
 8007e56:	66e3      	str	r3, [r4, #108]	; 0x6c
 8007e58:	e7e7      	b.n	8007e2a <tcp_input+0x666>
 8007e5a:	2300      	movs	r3, #0
 8007e5c:	8623      	strh	r3, [r4, #48]	; 0x30
 8007e5e:	f884 3042 	strb.w	r3, [r4, #66]	; 0x42
 8007e62:	e7ea      	b.n	8007e3a <tcp_input+0x676>
 8007e64:	06e8      	lsls	r0, r5, #27
 8007e66:	f57f af30 	bpl.w	8007cca <tcp_input+0x506>
 8007e6a:	6833      	ldr	r3, [r6, #0]
 8007e6c:	9a04      	ldr	r2, [sp, #16]
 8007e6e:	f8db 1000 	ldr.w	r1, [fp]
 8007e72:	8810      	ldrh	r0, [r2, #0]
 8007e74:	881a      	ldrh	r2, [r3, #0]
 8007e76:	4401      	add	r1, r0
 8007e78:	9201      	str	r2, [sp, #4]
 8007e7a:	885b      	ldrh	r3, [r3, #2]
 8007e7c:	9300      	str	r3, [sp, #0]
 8007e7e:	4b91      	ldr	r3, [pc, #580]	; (80080c4 <tcp_input+0x900>)
 8007e80:	f8da 0000 	ldr.w	r0, [sl]
 8007e84:	1d1a      	adds	r2, r3, #4
 8007e86:	f000 fcd1 	bl	800882c <tcp_rst>
 8007e8a:	f894 3042 	ldrb.w	r3, [r4, #66]	; 0x42
 8007e8e:	2b05      	cmp	r3, #5
 8007e90:	f63f af1b 	bhi.w	8007cca <tcp_input+0x506>
 8007e94:	2300      	movs	r3, #0
 8007e96:	4620      	mov	r0, r4
 8007e98:	8623      	strh	r3, [r4, #48]	; 0x30
 8007e9a:	f000 fd21 	bl	80088e0 <tcp_rexmit_rto>
 8007e9e:	e714      	b.n	8007cca <tcp_input+0x506>
 8007ea0:	06e9      	lsls	r1, r5, #27
 8007ea2:	d559      	bpl.n	8007f58 <tcp_input+0x794>
 8007ea4:	6c63      	ldr	r3, [r4, #68]	; 0x44
 8007ea6:	f8da 0000 	ldr.w	r0, [sl]
 8007eaa:	43db      	mvns	r3, r3
 8007eac:	42c3      	cmn	r3, r0
 8007eae:	d444      	bmi.n	8007f3a <tcp_input+0x776>
 8007eb0:	6ce3      	ldr	r3, [r4, #76]	; 0x4c
 8007eb2:	1ac3      	subs	r3, r0, r3
 8007eb4:	2b00      	cmp	r3, #0
 8007eb6:	dc40      	bgt.n	8007f3a <tcp_input+0x776>
 8007eb8:	2304      	movs	r3, #4
 8007eba:	7523      	strb	r3, [r4, #20]
 8007ebc:	6fa3      	ldr	r3, [r4, #120]	; 0x78
 8007ebe:	b143      	cbz	r3, 8007ed2 <tcp_input+0x70e>
 8007ec0:	699b      	ldr	r3, [r3, #24]
 8007ec2:	b933      	cbnz	r3, 8007ed2 <tcp_input+0x70e>
 8007ec4:	f44f 7254 	mov.w	r2, #848	; 0x350
 8007ec8:	4b7a      	ldr	r3, [pc, #488]	; (80080b4 <tcp_input+0x8f0>)
 8007eca:	497f      	ldr	r1, [pc, #508]	; (80080c8 <tcp_input+0x904>)
 8007ecc:	487b      	ldr	r0, [pc, #492]	; (80080bc <tcp_input+0x8f8>)
 8007ece:	f002 fcd3 	bl	800a878 <iprintf>
 8007ed2:	6fa3      	ldr	r3, [r4, #120]	; 0x78
 8007ed4:	b91b      	cbnz	r3, 8007ede <tcp_input+0x71a>
 8007ed6:	4620      	mov	r0, r4
 8007ed8:	f7fe fdfe 	bl	8006ad8 <tcp_abort>
 8007edc:	e5ac      	b.n	8007a38 <tcp_input+0x274>
 8007ede:	699b      	ldr	r3, [r3, #24]
 8007ee0:	2b00      	cmp	r3, #0
 8007ee2:	d0f8      	beq.n	8007ed6 <tcp_input+0x712>
 8007ee4:	2200      	movs	r2, #0
 8007ee6:	4621      	mov	r1, r4
 8007ee8:	6920      	ldr	r0, [r4, #16]
 8007eea:	4798      	blx	r3
 8007eec:	b118      	cbz	r0, 8007ef6 <tcp_input+0x732>
 8007eee:	300d      	adds	r0, #13
 8007ef0:	f43f ada2 	beq.w	8007a38 <tcp_input+0x274>
 8007ef4:	e7ef      	b.n	8007ed6 <tcp_input+0x712>
 8007ef6:	4620      	mov	r0, r4
 8007ef8:	f7fe ff22 	bl	8006d40 <tcp_receive>
 8007efc:	9b05      	ldr	r3, [sp, #20]
 8007efe:	881b      	ldrh	r3, [r3, #0]
 8007f00:	b113      	cbz	r3, 8007f08 <tcp_input+0x744>
 8007f02:	9a05      	ldr	r2, [sp, #20]
 8007f04:	3b01      	subs	r3, #1
 8007f06:	8013      	strh	r3, [r2, #0]
 8007f08:	f241 111c 	movw	r1, #4380	; 0x111c
 8007f0c:	8e62      	ldrh	r2, [r4, #50]	; 0x32
 8007f0e:	0053      	lsls	r3, r2, #1
 8007f10:	428b      	cmp	r3, r1
 8007f12:	bf38      	it	cc
 8007f14:	460b      	movcc	r3, r1
 8007f16:	0092      	lsls	r2, r2, #2
 8007f18:	4293      	cmp	r3, r2
 8007f1a:	bf28      	it	cs
 8007f1c:	4613      	movcs	r3, r2
 8007f1e:	f8a4 3048 	strh.w	r3, [r4, #72]	; 0x48
 8007f22:	f898 3000 	ldrb.w	r3, [r8]
 8007f26:	069b      	lsls	r3, r3, #26
 8007f28:	f57f aecf 	bpl.w	8007cca <tcp_input+0x506>
 8007f2c:	7ea3      	ldrb	r3, [r4, #26]
 8007f2e:	f043 0302 	orr.w	r3, r3, #2
 8007f32:	76a3      	strb	r3, [r4, #26]
 8007f34:	2307      	movs	r3, #7
 8007f36:	7523      	strb	r3, [r4, #20]
 8007f38:	e6c7      	b.n	8007cca <tcp_input+0x506>
 8007f3a:	6833      	ldr	r3, [r6, #0]
 8007f3c:	9a04      	ldr	r2, [sp, #16]
 8007f3e:	f8db 1000 	ldr.w	r1, [fp]
 8007f42:	8815      	ldrh	r5, [r2, #0]
 8007f44:	881a      	ldrh	r2, [r3, #0]
 8007f46:	4429      	add	r1, r5
 8007f48:	9201      	str	r2, [sp, #4]
 8007f4a:	885b      	ldrh	r3, [r3, #2]
 8007f4c:	9300      	str	r3, [sp, #0]
 8007f4e:	4b5d      	ldr	r3, [pc, #372]	; (80080c4 <tcp_input+0x900>)
 8007f50:	1d1a      	adds	r2, r3, #4
 8007f52:	f000 fc6b 	bl	800882c <tcp_rst>
 8007f56:	e6b8      	b.n	8007cca <tcp_input+0x506>
 8007f58:	2a00      	cmp	r2, #0
 8007f5a:	f43f aeb6 	beq.w	8007cca <tcp_input+0x506>
 8007f5e:	6a63      	ldr	r3, [r4, #36]	; 0x24
 8007f60:	f8db 2000 	ldr.w	r2, [fp]
 8007f64:	3b01      	subs	r3, #1
 8007f66:	4293      	cmp	r3, r2
 8007f68:	f47f aeaf 	bne.w	8007cca <tcp_input+0x506>
 8007f6c:	4620      	mov	r0, r4
 8007f6e:	f000 fcd1 	bl	8008914 <tcp_rexmit>
 8007f72:	e6aa      	b.n	8007cca <tcp_input+0x506>
 8007f74:	4620      	mov	r0, r4
 8007f76:	f7fe fee3 	bl	8006d40 <tcp_receive>
 8007f7a:	e7d2      	b.n	8007f22 <tcp_input+0x75e>
 8007f7c:	4620      	mov	r0, r4
 8007f7e:	f7fe fedf 	bl	8006d40 <tcp_receive>
 8007f82:	f898 3000 	ldrb.w	r3, [r8]
 8007f86:	f013 0f20 	tst.w	r3, #32
 8007f8a:	9b03      	ldr	r3, [sp, #12]
 8007f8c:	781b      	ldrb	r3, [r3, #0]
 8007f8e:	d030      	beq.n	8007ff2 <tcp_input+0x82e>
 8007f90:	f013 0f10 	tst.w	r3, #16
 8007f94:	7ea3      	ldrb	r3, [r4, #26]
 8007f96:	d027      	beq.n	8007fe8 <tcp_input+0x824>
 8007f98:	6ce1      	ldr	r1, [r4, #76]	; 0x4c
 8007f9a:	f8da 2000 	ldr.w	r2, [sl]
 8007f9e:	4291      	cmp	r1, r2
 8007fa0:	d122      	bne.n	8007fe8 <tcp_input+0x824>
 8007fa2:	6ea2      	ldr	r2, [r4, #104]	; 0x68
 8007fa4:	bb02      	cbnz	r2, 8007fe8 <tcp_input+0x824>
 8007fa6:	f043 0302 	orr.w	r3, r3, #2
 8007faa:	76a3      	strb	r3, [r4, #26]
 8007fac:	4620      	mov	r0, r4
 8007fae:	f7fe f987 	bl	80062c0 <tcp_pcb_purge>
 8007fb2:	683b      	ldr	r3, [r7, #0]
 8007fb4:	429c      	cmp	r4, r3
 8007fb6:	d109      	bne.n	8007fcc <tcp_input+0x808>
 8007fb8:	68e3      	ldr	r3, [r4, #12]
 8007fba:	603b      	str	r3, [r7, #0]
 8007fbc:	e008      	b.n	8007fd0 <tcp_input+0x80c>
 8007fbe:	68da      	ldr	r2, [r3, #12]
 8007fc0:	4294      	cmp	r4, r2
 8007fc2:	d102      	bne.n	8007fca <tcp_input+0x806>
 8007fc4:	68e2      	ldr	r2, [r4, #12]
 8007fc6:	60da      	str	r2, [r3, #12]
 8007fc8:	e002      	b.n	8007fd0 <tcp_input+0x80c>
 8007fca:	4613      	mov	r3, r2
 8007fcc:	2b00      	cmp	r3, #0
 8007fce:	d1f6      	bne.n	8007fbe <tcp_input+0x7fa>
 8007fd0:	2201      	movs	r2, #1
 8007fd2:	4b3e      	ldr	r3, [pc, #248]	; (80080cc <tcp_input+0x908>)
 8007fd4:	701a      	strb	r2, [r3, #0]
 8007fd6:	230a      	movs	r3, #10
 8007fd8:	7523      	strb	r3, [r4, #20]
 8007fda:	4b3d      	ldr	r3, [pc, #244]	; (80080d0 <tcp_input+0x90c>)
 8007fdc:	681a      	ldr	r2, [r3, #0]
 8007fde:	601c      	str	r4, [r3, #0]
 8007fe0:	60e2      	str	r2, [r4, #12]
 8007fe2:	f000 fdbd 	bl	8008b60 <tcp_timer_needed>
 8007fe6:	e670      	b.n	8007cca <tcp_input+0x506>
 8007fe8:	f043 0302 	orr.w	r3, r3, #2
 8007fec:	76a3      	strb	r3, [r4, #26]
 8007fee:	2308      	movs	r3, #8
 8007ff0:	e7a1      	b.n	8007f36 <tcp_input+0x772>
 8007ff2:	06df      	lsls	r7, r3, #27
 8007ff4:	f57f ae69 	bpl.w	8007cca <tcp_input+0x506>
 8007ff8:	6ce2      	ldr	r2, [r4, #76]	; 0x4c
 8007ffa:	f8da 3000 	ldr.w	r3, [sl]
 8007ffe:	429a      	cmp	r2, r3
 8008000:	f47f ae63 	bne.w	8007cca <tcp_input+0x506>
 8008004:	6ea3      	ldr	r3, [r4, #104]	; 0x68
 8008006:	2b00      	cmp	r3, #0
 8008008:	f47f ae5f 	bne.w	8007cca <tcp_input+0x506>
 800800c:	2306      	movs	r3, #6
 800800e:	e792      	b.n	8007f36 <tcp_input+0x772>
 8008010:	4620      	mov	r0, r4
 8008012:	f7fe fe95 	bl	8006d40 <tcp_receive>
 8008016:	f898 3000 	ldrb.w	r3, [r8]
 800801a:	069e      	lsls	r6, r3, #26
 800801c:	f57f ae55 	bpl.w	8007cca <tcp_input+0x506>
 8008020:	7ea3      	ldrb	r3, [r4, #26]
 8008022:	4620      	mov	r0, r4
 8008024:	f043 0302 	orr.w	r3, r3, #2
 8008028:	76a3      	strb	r3, [r4, #26]
 800802a:	f7fe f949 	bl	80062c0 <tcp_pcb_purge>
 800802e:	683b      	ldr	r3, [r7, #0]
 8008030:	429c      	cmp	r4, r3
 8008032:	d0c1      	beq.n	8007fb8 <tcp_input+0x7f4>
 8008034:	2b00      	cmp	r3, #0
 8008036:	d0cb      	beq.n	8007fd0 <tcp_input+0x80c>
 8008038:	68da      	ldr	r2, [r3, #12]
 800803a:	4294      	cmp	r4, r2
 800803c:	d0c2      	beq.n	8007fc4 <tcp_input+0x800>
 800803e:	4613      	mov	r3, r2
 8008040:	e7f8      	b.n	8008034 <tcp_input+0x870>
 8008042:	4620      	mov	r0, r4
 8008044:	f7fe fe7c 	bl	8006d40 <tcp_receive>
 8008048:	9b03      	ldr	r3, [sp, #12]
 800804a:	781b      	ldrb	r3, [r3, #0]
 800804c:	06dd      	lsls	r5, r3, #27
 800804e:	f57f ae3c 	bpl.w	8007cca <tcp_input+0x506>
 8008052:	6ce2      	ldr	r2, [r4, #76]	; 0x4c
 8008054:	f8da 3000 	ldr.w	r3, [sl]
 8008058:	429a      	cmp	r2, r3
 800805a:	f47f ae36 	bne.w	8007cca <tcp_input+0x506>
 800805e:	6ea3      	ldr	r3, [r4, #104]	; 0x68
 8008060:	2b00      	cmp	r3, #0
 8008062:	f47f ae32 	bne.w	8007cca <tcp_input+0x506>
 8008066:	4620      	mov	r0, r4
 8008068:	f7fe f92a 	bl	80062c0 <tcp_pcb_purge>
 800806c:	683b      	ldr	r3, [r7, #0]
 800806e:	429c      	cmp	r4, r3
 8008070:	d0a2      	beq.n	8007fb8 <tcp_input+0x7f4>
 8008072:	2b00      	cmp	r3, #0
 8008074:	d0ac      	beq.n	8007fd0 <tcp_input+0x80c>
 8008076:	68da      	ldr	r2, [r3, #12]
 8008078:	4294      	cmp	r4, r2
 800807a:	d0a3      	beq.n	8007fc4 <tcp_input+0x800>
 800807c:	4613      	mov	r3, r2
 800807e:	e7f8      	b.n	8008072 <tcp_input+0x8ae>
 8008080:	4620      	mov	r0, r4
 8008082:	f7fe fe5d 	bl	8006d40 <tcp_receive>
 8008086:	9b03      	ldr	r3, [sp, #12]
 8008088:	781b      	ldrb	r3, [r3, #0]
 800808a:	06d8      	lsls	r0, r3, #27
 800808c:	f57f ae1d 	bpl.w	8007cca <tcp_input+0x506>
 8008090:	6ce2      	ldr	r2, [r4, #76]	; 0x4c
 8008092:	f8da 3000 	ldr.w	r3, [sl]
 8008096:	429a      	cmp	r2, r3
 8008098:	f47f ae17 	bne.w	8007cca <tcp_input+0x506>
 800809c:	6ea3      	ldr	r3, [r4, #104]	; 0x68
 800809e:	2b00      	cmp	r3, #0
 80080a0:	f47f ae13 	bne.w	8007cca <tcp_input+0x506>
 80080a4:	f898 3000 	ldrb.w	r3, [r8]
 80080a8:	f043 0310 	orr.w	r3, r3, #16
 80080ac:	f888 3000 	strb.w	r3, [r8]
 80080b0:	e60b      	b.n	8007cca <tcp_input+0x506>
 80080b2:	bf00      	nop
 80080b4:	0800c693 	.word	0x0800c693
 80080b8:	0800c973 	.word	0x0800c973
 80080bc:	0800bcae 	.word	0x0800bcae
 80080c0:	0800c989 	.word	0x0800c989
 80080c4:	20003674 	.word	0x20003674
 80080c8:	0800c99c 	.word	0x0800c99c
 80080cc:	20006b88 	.word	0x20006b88
 80080d0:	20006b9c 	.word	0x20006b9c
 80080d4:	9b05      	ldr	r3, [sp, #20]
 80080d6:	881a      	ldrh	r2, [r3, #0]
 80080d8:	b122      	cbz	r2, 80080e4 <tcp_input+0x920>
 80080da:	6fe3      	ldr	r3, [r4, #124]	; 0x7c
 80080dc:	b9f3      	cbnz	r3, 800811c <tcp_input+0x958>
 80080de:	2300      	movs	r3, #0
 80080e0:	9a05      	ldr	r2, [sp, #20]
 80080e2:	8013      	strh	r3, [r2, #0]
 80080e4:	4620      	mov	r0, r4
 80080e6:	f7ff fb4d 	bl	8007784 <tcp_input_delayed_close>
 80080ea:	2800      	cmp	r0, #0
 80080ec:	f47f aca4 	bne.w	8007a38 <tcp_input+0x274>
 80080f0:	f8d9 3000 	ldr.w	r3, [r9]
 80080f4:	b333      	cbz	r3, 8008144 <tcp_input+0x980>
 80080f6:	6f63      	ldr	r3, [r4, #116]	; 0x74
 80080f8:	b133      	cbz	r3, 8008108 <tcp_input+0x944>
 80080fa:	f44f 72d2 	mov.w	r2, #420	; 0x1a4
 80080fe:	4b3a      	ldr	r3, [pc, #232]	; (80081e8 <tcp_input+0xa24>)
 8008100:	493a      	ldr	r1, [pc, #232]	; (80081ec <tcp_input+0xa28>)
 8008102:	483b      	ldr	r0, [pc, #236]	; (80081f0 <tcp_input+0xa2c>)
 8008104:	f002 fbb8 	bl	800a878 <iprintf>
 8008108:	7ea3      	ldrb	r3, [r4, #26]
 800810a:	f8d9 2000 	ldr.w	r2, [r9]
 800810e:	f013 0310 	ands.w	r3, r3, #16
 8008112:	d009      	beq.n	8008128 <tcp_input+0x964>
 8008114:	4610      	mov	r0, r2
 8008116:	f7fd fcd5 	bl	8005ac4 <pbuf_free>
 800811a:	e6dc      	b.n	8007ed6 <tcp_input+0x712>
 800811c:	4621      	mov	r1, r4
 800811e:	6920      	ldr	r0, [r4, #16]
 8008120:	4798      	blx	r3
 8008122:	300d      	adds	r0, #13
 8008124:	d1db      	bne.n	80080de <tcp_input+0x91a>
 8008126:	e487      	b.n	8007a38 <tcp_input+0x274>
 8008128:	f8d4 5080 	ldr.w	r5, [r4, #128]	; 0x80
 800812c:	b30d      	cbz	r5, 8008172 <tcp_input+0x9ae>
 800812e:	4621      	mov	r1, r4
 8008130:	6920      	ldr	r0, [r4, #16]
 8008132:	47a8      	blx	r5
 8008134:	f110 0f0d 	cmn.w	r0, #13
 8008138:	f43f ac7e 	beq.w	8007a38 <tcp_input+0x274>
 800813c:	b110      	cbz	r0, 8008144 <tcp_input+0x980>
 800813e:	f8d9 3000 	ldr.w	r3, [r9]
 8008142:	6763      	str	r3, [r4, #116]	; 0x74
 8008144:	f898 3000 	ldrb.w	r3, [r8]
 8008148:	069a      	lsls	r2, r3, #26
 800814a:	d505      	bpl.n	8008158 <tcp_input+0x994>
 800814c:	6f63      	ldr	r3, [r4, #116]	; 0x74
 800814e:	b1b3      	cbz	r3, 800817e <tcp_input+0x9ba>
 8008150:	7b5a      	ldrb	r2, [r3, #13]
 8008152:	f042 0220 	orr.w	r2, r2, #32
 8008156:	735a      	strb	r2, [r3, #13]
 8008158:	2200      	movs	r2, #0
 800815a:	4b26      	ldr	r3, [pc, #152]	; (80081f4 <tcp_input+0xa30>)
 800815c:	4620      	mov	r0, r4
 800815e:	601a      	str	r2, [r3, #0]
 8008160:	f7ff fb10 	bl	8007784 <tcp_input_delayed_close>
 8008164:	2800      	cmp	r0, #0
 8008166:	f47f ac67 	bne.w	8007a38 <tcp_input+0x274>
 800816a:	4620      	mov	r0, r4
 800816c:	f000 f9dc 	bl	8008528 <tcp_output>
 8008170:	e462      	b.n	8007a38 <tcp_input+0x274>
 8008172:	462b      	mov	r3, r5
 8008174:	4621      	mov	r1, r4
 8008176:	4628      	mov	r0, r5
 8008178:	f7fe fba2 	bl	80068c0 <tcp_recv_null>
 800817c:	e7da      	b.n	8008134 <tcp_input+0x970>
 800817e:	8d23      	ldrh	r3, [r4, #40]	; 0x28
 8008180:	f8d4 5080 	ldr.w	r5, [r4, #128]	; 0x80
 8008184:	f5b3 6f06 	cmp.w	r3, #2144	; 0x860
 8008188:	bf1c      	itt	ne
 800818a:	3301      	addne	r3, #1
 800818c:	8523      	strhne	r3, [r4, #40]	; 0x28
 800818e:	2d00      	cmp	r5, #0
 8008190:	d0e2      	beq.n	8008158 <tcp_input+0x994>
 8008192:	2300      	movs	r3, #0
 8008194:	4621      	mov	r1, r4
 8008196:	461a      	mov	r2, r3
 8008198:	6920      	ldr	r0, [r4, #16]
 800819a:	47a8      	blx	r5
 800819c:	300d      	adds	r0, #13
 800819e:	d1db      	bne.n	8008158 <tcp_input+0x994>
 80081a0:	e44a      	b.n	8007a38 <tcp_input+0x274>
 80081a2:	b13c      	cbz	r4, 80081b4 <tcp_input+0x9f0>
 80081a4:	f8d9 300c 	ldr.w	r3, [r9, #12]
 80081a8:	60e3      	str	r3, [r4, #12]
 80081aa:	4b13      	ldr	r3, [pc, #76]	; (80081f8 <tcp_input+0xa34>)
 80081ac:	f8c9 100c 	str.w	r1, [r9, #12]
 80081b0:	f8c3 9000 	str.w	r9, [r3]
 80081b4:	9b03      	ldr	r3, [sp, #12]
 80081b6:	781b      	ldrb	r3, [r3, #0]
 80081b8:	075c      	lsls	r4, r3, #29
 80081ba:	f53f accd 	bmi.w	8007b58 <tcp_input+0x394>
 80081be:	f013 0410 	ands.w	r4, r3, #16
 80081c2:	f43f acfe 	beq.w	8007bc2 <tcp_input+0x3fe>
 80081c6:	9b04      	ldr	r3, [sp, #16]
 80081c8:	f8db 1000 	ldr.w	r1, [fp]
 80081cc:	881c      	ldrh	r4, [r3, #0]
 80081ce:	8813      	ldrh	r3, [r2, #0]
 80081d0:	4421      	add	r1, r4
 80081d2:	e9cd 0300 	strd	r0, r3, [sp]
 80081d6:	4b09      	ldr	r3, [pc, #36]	; (80081fc <tcp_input+0xa38>)
 80081d8:	1d1a      	adds	r2, r3, #4
 80081da:	e4ab      	b.n	8007b34 <tcp_input+0x370>
 80081dc:	9b05      	ldr	r3, [sp, #20]
 80081de:	2b00      	cmp	r3, #0
 80081e0:	f47f abe8 	bne.w	80079b4 <tcp_input+0x1f0>
 80081e4:	f7ff bbf5 	b.w	80079d2 <tcp_input+0x20e>
 80081e8:	0800c693 	.word	0x0800c693
 80081ec:	0800c9ba 	.word	0x0800c9ba
 80081f0:	0800bcae 	.word	0x0800bcae
 80081f4:	20006ba0 	.word	0x20006ba0
 80081f8:	20006b94 	.word	0x20006b94
 80081fc:	20003674 	.word	0x20003674

08008200 <tcp_trigger_input_pcb_close>:
 8008200:	4a02      	ldr	r2, [pc, #8]	; (800820c <tcp_trigger_input_pcb_close+0xc>)
 8008202:	7813      	ldrb	r3, [r2, #0]
 8008204:	f043 0310 	orr.w	r3, r3, #16
 8008208:	7013      	strb	r3, [r2, #0]
 800820a:	4770      	bx	lr
 800820c:	20000430 	.word	0x20000430

08008210 <tcp_create_segment>:
 8008210:	e92d 4ff8 	stmdb	sp!, {r3, r4, r5, r6, r7, r8, r9, sl, fp, lr}
 8008214:	4680      	mov	r8, r0
 8008216:	2003      	movs	r0, #3
 8008218:	f89d a028 	ldrb.w	sl, [sp, #40]	; 0x28
 800821c:	460e      	mov	r6, r1
 800821e:	4617      	mov	r7, r2
 8008220:	4699      	mov	r9, r3
 8008222:	f7fd facf 	bl	80057c4 <memp_malloc>
 8008226:	ea4f 0b8a 	mov.w	fp, sl, lsl #2
 800822a:	4604      	mov	r4, r0
 800822c:	fa5f f58b 	uxtb.w	r5, fp
 8008230:	b928      	cbnz	r0, 800823e <tcp_create_segment+0x2e>
 8008232:	4630      	mov	r0, r6
 8008234:	f7fd fc46 	bl	8005ac4 <pbuf_free>
 8008238:	4620      	mov	r0, r4
 800823a:	e8bd 8ff8 	ldmia.w	sp!, {r3, r4, r5, r6, r7, r8, r9, sl, fp, pc}
 800823e:	2300      	movs	r3, #0
 8008240:	f880 a00a 	strb.w	sl, [r0, #10]
 8008244:	e9c0 3600 	strd	r3, r6, [r0]
 8008248:	8933      	ldrh	r3, [r6, #8]
 800824a:	fa1f fa8b 	uxth.w	sl, fp
 800824e:	455b      	cmp	r3, fp
 8008250:	d205      	bcs.n	800825e <tcp_create_segment+0x4e>
 8008252:	22ba      	movs	r2, #186	; 0xba
 8008254:	4b1f      	ldr	r3, [pc, #124]	; (80082d4 <tcp_create_segment+0xc4>)
 8008256:	4920      	ldr	r1, [pc, #128]	; (80082d8 <tcp_create_segment+0xc8>)
 8008258:	4820      	ldr	r0, [pc, #128]	; (80082dc <tcp_create_segment+0xcc>)
 800825a:	f002 fb0d 	bl	800a878 <iprintf>
 800825e:	8933      	ldrh	r3, [r6, #8]
 8008260:	4630      	mov	r0, r6
 8008262:	eba3 030a 	sub.w	r3, r3, sl
 8008266:	2114      	movs	r1, #20
 8008268:	8123      	strh	r3, [r4, #8]
 800826a:	f7fd fc25 	bl	8005ab8 <pbuf_header>
 800826e:	4606      	mov	r6, r0
 8008270:	b120      	cbz	r0, 800827c <tcp_create_segment+0x6c>
 8008272:	4620      	mov	r0, r4
 8008274:	f7fd fff8 	bl	8006268 <tcp_seg_free>
 8008278:	2400      	movs	r4, #0
 800827a:	e7dd      	b.n	8008238 <tcp_create_segment+0x28>
 800827c:	6863      	ldr	r3, [r4, #4]
 800827e:	f8b8 0016 	ldrh.w	r0, [r8, #22]
 8008282:	f8d3 a004 	ldr.w	sl, [r3, #4]
 8008286:	02ad      	lsls	r5, r5, #10
 8008288:	f8c4 a00c 	str.w	sl, [r4, #12]
 800828c:	f7fd f864 	bl	8005358 <lwip_htons>
 8008290:	f8aa 0000 	strh.w	r0, [sl]
 8008294:	f8b8 0018 	ldrh.w	r0, [r8, #24]
 8008298:	f8d4 a00c 	ldr.w	sl, [r4, #12]
 800829c:	f7fd f85c 	bl	8005358 <lwip_htons>
 80082a0:	f8aa 0002 	strh.w	r0, [sl, #2]
 80082a4:	4648      	mov	r0, r9
 80082a6:	f8d4 800c 	ldr.w	r8, [r4, #12]
 80082aa:	f7fd f858 	bl	800535e <lwip_htonl>
 80082ae:	f505 45a0 	add.w	r5, r5, #20480	; 0x5000
 80082b2:	f405 4570 	and.w	r5, r5, #61440	; 0xf000
 80082b6:	f8c8 0004 	str.w	r0, [r8, #4]
 80082ba:	ea45 0007 	orr.w	r0, r5, r7
 80082be:	f8d4 800c 	ldr.w	r8, [r4, #12]
 80082c2:	f7fd f849 	bl	8005358 <lwip_htons>
 80082c6:	68e3      	ldr	r3, [r4, #12]
 80082c8:	f8a8 000c 	strh.w	r0, [r8, #12]
 80082cc:	749e      	strb	r6, [r3, #18]
 80082ce:	74de      	strb	r6, [r3, #19]
 80082d0:	e7b2      	b.n	8008238 <tcp_create_segment+0x28>
 80082d2:	bf00      	nop
 80082d4:	0800c9d4 	.word	0x0800c9d4
 80082d8:	0800ca1b 	.word	0x0800ca1b
 80082dc:	0800bcae 	.word	0x0800bcae

080082e0 <tcp_output_alloc_header.constprop.0>:
 80082e0:	3114      	adds	r1, #20
 80082e2:	b5f8      	push	{r3, r4, r5, r6, r7, lr}
 80082e4:	b289      	uxth	r1, r1
 80082e6:	4605      	mov	r5, r0
 80082e8:	4617      	mov	r7, r2
 80082ea:	2001      	movs	r0, #1
 80082ec:	2200      	movs	r2, #0
 80082ee:	f7fd fc4d 	bl	8005b8c <pbuf_alloc>
 80082f2:	4606      	mov	r6, r0
 80082f4:	b340      	cbz	r0, 8008348 <tcp_output_alloc_header.constprop.0+0x68>
 80082f6:	8943      	ldrh	r3, [r0, #10]
 80082f8:	2b13      	cmp	r3, #19
 80082fa:	d805      	bhi.n	8008308 <tcp_output_alloc_header.constprop.0+0x28>
 80082fc:	2272      	movs	r2, #114	; 0x72
 80082fe:	4b13      	ldr	r3, [pc, #76]	; (800834c <tcp_output_alloc_header.constprop.0+0x6c>)
 8008300:	4913      	ldr	r1, [pc, #76]	; (8008350 <tcp_output_alloc_header.constprop.0+0x70>)
 8008302:	4814      	ldr	r0, [pc, #80]	; (8008354 <tcp_output_alloc_header.constprop.0+0x74>)
 8008304:	f002 fab8 	bl	800a878 <iprintf>
 8008308:	8ae8      	ldrh	r0, [r5, #22]
 800830a:	6874      	ldr	r4, [r6, #4]
 800830c:	f7fd f824 	bl	8005358 <lwip_htons>
 8008310:	8020      	strh	r0, [r4, #0]
 8008312:	8b28      	ldrh	r0, [r5, #24]
 8008314:	f7fd f820 	bl	8005358 <lwip_htons>
 8008318:	6067      	str	r7, [r4, #4]
 800831a:	8060      	strh	r0, [r4, #2]
 800831c:	6a68      	ldr	r0, [r5, #36]	; 0x24
 800831e:	f7fd f81e 	bl	800535e <lwip_htonl>
 8008322:	60a0      	str	r0, [r4, #8]
 8008324:	f245 0010 	movw	r0, #20496	; 0x5010
 8008328:	f7fd f816 	bl	8005358 <lwip_htons>
 800832c:	81a0      	strh	r0, [r4, #12]
 800832e:	8d68      	ldrh	r0, [r5, #42]	; 0x2a
 8008330:	f7fd f812 	bl	8005358 <lwip_htons>
 8008334:	2300      	movs	r3, #0
 8008336:	8d6a      	ldrh	r2, [r5, #42]	; 0x2a
 8008338:	7423      	strb	r3, [r4, #16]
 800833a:	7463      	strb	r3, [r4, #17]
 800833c:	74a3      	strb	r3, [r4, #18]
 800833e:	74e3      	strb	r3, [r4, #19]
 8008340:	6a6b      	ldr	r3, [r5, #36]	; 0x24
 8008342:	81e0      	strh	r0, [r4, #14]
 8008344:	4413      	add	r3, r2
 8008346:	62eb      	str	r3, [r5, #44]	; 0x2c
 8008348:	4630      	mov	r0, r6
 800834a:	bdf8      	pop	{r3, r4, r5, r6, r7, pc}
 800834c:	0800c9d4 	.word	0x0800c9d4
 8008350:	0800ca30 	.word	0x0800ca30
 8008354:	0800bcae 	.word	0x0800bcae

08008358 <tcp_enqueue_flags>:
 8008358:	e92d 43f7 	stmdb	sp!, {r0, r1, r2, r4, r5, r6, r7, r8, r9, lr}
 800835c:	f011 0803 	ands.w	r8, r1, #3
 8008360:	4604      	mov	r4, r0
 8008362:	460e      	mov	r6, r1
 8008364:	d106      	bne.n	8008374 <tcp_enqueue_flags+0x1c>
 8008366:	f240 321a 	movw	r2, #794	; 0x31a
 800836a:	4b3c      	ldr	r3, [pc, #240]	; (800845c <tcp_enqueue_flags+0x104>)
 800836c:	493c      	ldr	r1, [pc, #240]	; (8008460 <tcp_enqueue_flags+0x108>)
 800836e:	483d      	ldr	r0, [pc, #244]	; (8008464 <tcp_enqueue_flags+0x10c>)
 8008370:	f002 fa82 	bl	800a878 <iprintf>
 8008374:	f8b4 3062 	ldrh.w	r3, [r4, #98]	; 0x62
 8008378:	2b08      	cmp	r3, #8
 800837a:	d90a      	bls.n	8008392 <tcp_enqueue_flags+0x3a>
 800837c:	07f1      	lsls	r1, r6, #31
 800837e:	d408      	bmi.n	8008392 <tcp_enqueue_flags+0x3a>
 8008380:	f04f 30ff 	mov.w	r0, #4294967295
 8008384:	7ea3      	ldrb	r3, [r4, #26]
 8008386:	f063 037f 	orn	r3, r3, #127	; 0x7f
 800838a:	76a3      	strb	r3, [r4, #26]
 800838c:	b003      	add	sp, #12
 800838e:	e8bd 83f0 	ldmia.w	sp!, {r4, r5, r6, r7, r8, r9, pc}
 8008392:	2200      	movs	r2, #0
 8008394:	f3c6 0740 	ubfx	r7, r6, #1, #1
 8008398:	ea4f 0987 	mov.w	r9, r7, lsl #2
 800839c:	4649      	mov	r1, r9
 800839e:	4610      	mov	r0, r2
 80083a0:	f7fd fbf4 	bl	8005b8c <pbuf_alloc>
 80083a4:	4605      	mov	r5, r0
 80083a6:	2800      	cmp	r0, #0
 80083a8:	d0ea      	beq.n	8008380 <tcp_enqueue_flags+0x28>
 80083aa:	8943      	ldrh	r3, [r0, #10]
 80083ac:	454b      	cmp	r3, r9
 80083ae:	d206      	bcs.n	80083be <tcp_enqueue_flags+0x66>
 80083b0:	f44f 7250 	mov.w	r2, #832	; 0x340
 80083b4:	4b29      	ldr	r3, [pc, #164]	; (800845c <tcp_enqueue_flags+0x104>)
 80083b6:	492c      	ldr	r1, [pc, #176]	; (8008468 <tcp_enqueue_flags+0x110>)
 80083b8:	482a      	ldr	r0, [pc, #168]	; (8008464 <tcp_enqueue_flags+0x10c>)
 80083ba:	f002 fa5d 	bl	800a878 <iprintf>
 80083be:	9700      	str	r7, [sp, #0]
 80083c0:	4629      	mov	r1, r5
 80083c2:	4632      	mov	r2, r6
 80083c4:	4620      	mov	r0, r4
 80083c6:	6da3      	ldr	r3, [r4, #88]	; 0x58
 80083c8:	f7ff ff22 	bl	8008210 <tcp_create_segment>
 80083cc:	4605      	mov	r5, r0
 80083ce:	2800      	cmp	r0, #0
 80083d0:	d0d6      	beq.n	8008380 <tcp_enqueue_flags+0x28>
 80083d2:	68c3      	ldr	r3, [r0, #12]
 80083d4:	079a      	lsls	r2, r3, #30
 80083d6:	d006      	beq.n	80083e6 <tcp_enqueue_flags+0x8e>
 80083d8:	f240 3249 	movw	r2, #841	; 0x349
 80083dc:	4b1f      	ldr	r3, [pc, #124]	; (800845c <tcp_enqueue_flags+0x104>)
 80083de:	4923      	ldr	r1, [pc, #140]	; (800846c <tcp_enqueue_flags+0x114>)
 80083e0:	4820      	ldr	r0, [pc, #128]	; (8008464 <tcp_enqueue_flags+0x10c>)
 80083e2:	f002 fa49 	bl	800a878 <iprintf>
 80083e6:	892b      	ldrh	r3, [r5, #8]
 80083e8:	b133      	cbz	r3, 80083f8 <tcp_enqueue_flags+0xa0>
 80083ea:	f240 324a 	movw	r2, #842	; 0x34a
 80083ee:	4b1b      	ldr	r3, [pc, #108]	; (800845c <tcp_enqueue_flags+0x104>)
 80083f0:	491f      	ldr	r1, [pc, #124]	; (8008470 <tcp_enqueue_flags+0x118>)
 80083f2:	481c      	ldr	r0, [pc, #112]	; (8008464 <tcp_enqueue_flags+0x10c>)
 80083f4:	f002 fa40 	bl	800a878 <iprintf>
 80083f8:	6ea3      	ldr	r3, [r4, #104]	; 0x68
 80083fa:	bb43      	cbnz	r3, 800844e <tcp_enqueue_flags+0xf6>
 80083fc:	66a5      	str	r5, [r4, #104]	; 0x68
 80083fe:	2300      	movs	r3, #0
 8008400:	f8a4 3064 	strh.w	r3, [r4, #100]	; 0x64
 8008404:	f1b8 0f00 	cmp.w	r8, #0
 8008408:	d002      	beq.n	8008410 <tcp_enqueue_flags+0xb8>
 800840a:	6da3      	ldr	r3, [r4, #88]	; 0x58
 800840c:	3301      	adds	r3, #1
 800840e:	65a3      	str	r3, [r4, #88]	; 0x58
 8008410:	07f3      	lsls	r3, r6, #31
 8008412:	bf42      	ittt	mi
 8008414:	7ea3      	ldrbmi	r3, [r4, #26]
 8008416:	f043 0320 	orrmi.w	r3, r3, #32
 800841a:	76a3      	strbmi	r3, [r4, #26]
 800841c:	6868      	ldr	r0, [r5, #4]
 800841e:	f7fd fcf9 	bl	8005e14 <pbuf_clen>
 8008422:	f8b4 3062 	ldrh.w	r3, [r4, #98]	; 0x62
 8008426:	4418      	add	r0, r3
 8008428:	b280      	uxth	r0, r0
 800842a:	f8a4 0062 	strh.w	r0, [r4, #98]	; 0x62
 800842e:	2800      	cmp	r0, #0
 8008430:	d0ac      	beq.n	800838c <tcp_enqueue_flags+0x34>
 8008432:	6ee0      	ldr	r0, [r4, #108]	; 0x6c
 8008434:	b948      	cbnz	r0, 800844a <tcp_enqueue_flags+0xf2>
 8008436:	6ea4      	ldr	r4, [r4, #104]	; 0x68
 8008438:	2c00      	cmp	r4, #0
 800843a:	d1a7      	bne.n	800838c <tcp_enqueue_flags+0x34>
 800843c:	f44f 725b 	mov.w	r2, #876	; 0x36c
 8008440:	4b06      	ldr	r3, [pc, #24]	; (800845c <tcp_enqueue_flags+0x104>)
 8008442:	490c      	ldr	r1, [pc, #48]	; (8008474 <tcp_enqueue_flags+0x11c>)
 8008444:	4807      	ldr	r0, [pc, #28]	; (8008464 <tcp_enqueue_flags+0x10c>)
 8008446:	f002 fa17 	bl	800a878 <iprintf>
 800844a:	2000      	movs	r0, #0
 800844c:	e79e      	b.n	800838c <tcp_enqueue_flags+0x34>
 800844e:	461a      	mov	r2, r3
 8008450:	681b      	ldr	r3, [r3, #0]
 8008452:	2b00      	cmp	r3, #0
 8008454:	d1fb      	bne.n	800844e <tcp_enqueue_flags+0xf6>
 8008456:	6015      	str	r5, [r2, #0]
 8008458:	e7d1      	b.n	80083fe <tcp_enqueue_flags+0xa6>
 800845a:	bf00      	nop
 800845c:	0800c9d4 	.word	0x0800c9d4
 8008460:	0800ca5e 	.word	0x0800ca5e
 8008464:	0800bcae 	.word	0x0800bcae
 8008468:	0800cab3 	.word	0x0800cab3
 800846c:	0800caec 	.word	0x0800caec
 8008470:	0800cb04 	.word	0x0800cb04
 8008474:	0800cb2e 	.word	0x0800cb2e

08008478 <tcp_send_fin>:
 8008478:	b5f8      	push	{r3, r4, r5, r6, r7, lr}
 800847a:	6e84      	ldr	r4, [r0, #104]	; 0x68
 800847c:	4605      	mov	r5, r0
 800847e:	b14c      	cbz	r4, 8008494 <tcp_send_fin+0x1c>
 8008480:	4627      	mov	r7, r4
 8008482:	6824      	ldr	r4, [r4, #0]
 8008484:	2c00      	cmp	r4, #0
 8008486:	d1fb      	bne.n	8008480 <tcp_send_fin+0x8>
 8008488:	68fb      	ldr	r3, [r7, #12]
 800848a:	8998      	ldrh	r0, [r3, #12]
 800848c:	f7fc ff64 	bl	8005358 <lwip_htons>
 8008490:	0743      	lsls	r3, r0, #29
 8008492:	d005      	beq.n	80084a0 <tcp_send_fin+0x28>
 8008494:	4628      	mov	r0, r5
 8008496:	e8bd 40f8 	ldmia.w	sp!, {r3, r4, r5, r6, r7, lr}
 800849a:	2101      	movs	r1, #1
 800849c:	f7ff bf5c 	b.w	8008358 <tcp_enqueue_flags>
 80084a0:	68fb      	ldr	r3, [r7, #12]
 80084a2:	2001      	movs	r0, #1
 80084a4:	899e      	ldrh	r6, [r3, #12]
 80084a6:	f7fc ff57 	bl	8005358 <lwip_htons>
 80084aa:	68fb      	ldr	r3, [r7, #12]
 80084ac:	4306      	orrs	r6, r0
 80084ae:	819e      	strh	r6, [r3, #12]
 80084b0:	7eab      	ldrb	r3, [r5, #26]
 80084b2:	4620      	mov	r0, r4
 80084b4:	f043 0320 	orr.w	r3, r3, #32
 80084b8:	76ab      	strb	r3, [r5, #26]
 80084ba:	bdf8      	pop	{r3, r4, r5, r6, r7, pc}

080084bc <tcp_send_empty_ack>:
 80084bc:	b57f      	push	{r0, r1, r2, r3, r4, r5, r6, lr}
 80084be:	4604      	mov	r4, r0
 80084c0:	6cc0      	ldr	r0, [r0, #76]	; 0x4c
 80084c2:	f7fc ff4c 	bl	800535e <lwip_htonl>
 80084c6:	2100      	movs	r1, #0
 80084c8:	4602      	mov	r2, r0
 80084ca:	4620      	mov	r0, r4
 80084cc:	f7ff ff08 	bl	80082e0 <tcp_output_alloc_header.constprop.0>
 80084d0:	4606      	mov	r6, r0
 80084d2:	b940      	cbnz	r0, 80084e6 <tcp_send_empty_ack+0x2a>
 80084d4:	f06f 0501 	mvn.w	r5, #1
 80084d8:	7ea3      	ldrb	r3, [r4, #26]
 80084da:	f043 0303 	orr.w	r3, r3, #3
 80084de:	76a3      	strb	r3, [r4, #26]
 80084e0:	4628      	mov	r0, r5
 80084e2:	b004      	add	sp, #16
 80084e4:	bd70      	pop	{r4, r5, r6, pc}
 80084e6:	1d25      	adds	r5, r4, #4
 80084e8:	4628      	mov	r0, r5
 80084ea:	f001 fa29 	bl	8009940 <ip4_route>
 80084ee:	b1a0      	cbz	r0, 800851a <tcp_send_empty_ack+0x5e>
 80084f0:	2306      	movs	r3, #6
 80084f2:	9301      	str	r3, [sp, #4]
 80084f4:	7a63      	ldrb	r3, [r4, #9]
 80084f6:	462a      	mov	r2, r5
 80084f8:	9002      	str	r0, [sp, #8]
 80084fa:	9300      	str	r3, [sp, #0]
 80084fc:	4621      	mov	r1, r4
 80084fe:	4630      	mov	r0, r6
 8008500:	7aa3      	ldrb	r3, [r4, #10]
 8008502:	f001 fb8b 	bl	8009c1c <ip4_output_if>
 8008506:	4605      	mov	r5, r0
 8008508:	4630      	mov	r0, r6
 800850a:	f7fd fadb 	bl	8005ac4 <pbuf_free>
 800850e:	7ea3      	ldrb	r3, [r4, #26]
 8008510:	b135      	cbz	r5, 8008520 <tcp_send_empty_ack+0x64>
 8008512:	f043 0303 	orr.w	r3, r3, #3
 8008516:	76a3      	strb	r3, [r4, #26]
 8008518:	e7e2      	b.n	80084e0 <tcp_send_empty_ack+0x24>
 800851a:	f06f 0503 	mvn.w	r5, #3
 800851e:	e7f3      	b.n	8008508 <tcp_send_empty_ack+0x4c>
 8008520:	f023 0303 	bic.w	r3, r3, #3
 8008524:	e7f7      	b.n	8008516 <tcp_send_empty_ack+0x5a>
	...

08008528 <tcp_output>:
 8008528:	e92d 4ff0 	stmdb	sp!, {r4, r5, r6, r7, r8, r9, sl, fp, lr}
 800852c:	7d03      	ldrb	r3, [r0, #20]
 800852e:	4604      	mov	r4, r0
 8008530:	2b01      	cmp	r3, #1
 8008532:	b087      	sub	sp, #28
 8008534:	d106      	bne.n	8008544 <tcp_output+0x1c>
 8008536:	f44f 727b 	mov.w	r2, #1004	; 0x3ec
 800853a:	4ba5      	ldr	r3, [pc, #660]	; (80087d0 <tcp_output+0x2a8>)
 800853c:	49a5      	ldr	r1, [pc, #660]	; (80087d4 <tcp_output+0x2ac>)
 800853e:	48a6      	ldr	r0, [pc, #664]	; (80087d8 <tcp_output+0x2b0>)
 8008540:	f002 f99a 	bl	800a878 <iprintf>
 8008544:	4ba5      	ldr	r3, [pc, #660]	; (80087dc <tcp_output+0x2b4>)
 8008546:	681b      	ldr	r3, [r3, #0]
 8008548:	42a3      	cmp	r3, r4
 800854a:	d056      	beq.n	80085fa <tcp_output+0xd2>
 800854c:	f8b4 305c 	ldrh.w	r3, [r4, #92]	; 0x5c
 8008550:	f8b4 7048 	ldrh.w	r7, [r4, #72]	; 0x48
 8008554:	6ea5      	ldr	r5, [r4, #104]	; 0x68
 8008556:	429f      	cmp	r7, r3
 8008558:	bf28      	it	cs
 800855a:	461f      	movcs	r7, r3
 800855c:	7ea3      	ldrb	r3, [r4, #26]
 800855e:	0799      	lsls	r1, r3, #30
 8008560:	d510      	bpl.n	8008584 <tcp_output+0x5c>
 8008562:	b92d      	cbnz	r5, 8008570 <tcp_output+0x48>
 8008564:	4620      	mov	r0, r4
 8008566:	b007      	add	sp, #28
 8008568:	e8bd 4ff0 	ldmia.w	sp!, {r4, r5, r6, r7, r8, r9, sl, fp, lr}
 800856c:	f7ff bfa6 	b.w	80084bc <tcp_send_empty_ack>
 8008570:	68eb      	ldr	r3, [r5, #12]
 8008572:	6858      	ldr	r0, [r3, #4]
 8008574:	f7fc fef3 	bl	800535e <lwip_htonl>
 8008578:	892b      	ldrh	r3, [r5, #8]
 800857a:	6c62      	ldr	r2, [r4, #68]	; 0x44
 800857c:	1a9b      	subs	r3, r3, r2
 800857e:	4403      	add	r3, r0
 8008580:	42bb      	cmp	r3, r7
 8008582:	d8ef      	bhi.n	8008564 <tcp_output+0x3c>
 8008584:	6ee6      	ldr	r6, [r4, #108]	; 0x6c
 8008586:	b126      	cbz	r6, 8008592 <tcp_output+0x6a>
 8008588:	4633      	mov	r3, r6
 800858a:	6836      	ldr	r6, [r6, #0]
 800858c:	2e00      	cmp	r6, #0
 800858e:	d1fb      	bne.n	8008588 <tcp_output+0x60>
 8008590:	461e      	mov	r6, r3
 8008592:	f104 0904 	add.w	r9, r4, #4
 8008596:	4648      	mov	r0, r9
 8008598:	f001 f9d2 	bl	8009940 <ip4_route>
 800859c:	4680      	mov	r8, r0
 800859e:	2800      	cmp	r0, #0
 80085a0:	f000 813d 	beq.w	800881e <tcp_output+0x2f6>
 80085a4:	6823      	ldr	r3, [r4, #0]
 80085a6:	b90b      	cbnz	r3, 80085ac <tcp_output+0x84>
 80085a8:	6843      	ldr	r3, [r0, #4]
 80085aa:	6023      	str	r3, [r4, #0]
 80085ac:	b1ed      	cbz	r5, 80085ea <tcp_output+0xc2>
 80085ae:	68eb      	ldr	r3, [r5, #12]
 80085b0:	6858      	ldr	r0, [r3, #4]
 80085b2:	f7fc fed4 	bl	800535e <lwip_htonl>
 80085b6:	892b      	ldrh	r3, [r5, #8]
 80085b8:	6c62      	ldr	r2, [r4, #68]	; 0x44
 80085ba:	1a9b      	subs	r3, r3, r2
 80085bc:	4403      	add	r3, r0
 80085be:	42bb      	cmp	r3, r7
 80085c0:	f240 8128 	bls.w	8008814 <tcp_output+0x2ec>
 80085c4:	2f00      	cmp	r7, #0
 80085c6:	f000 8125 	beq.w	8008814 <tcp_output+0x2ec>
 80085ca:	f8b4 305c 	ldrh.w	r3, [r4, #92]	; 0x5c
 80085ce:	42bb      	cmp	r3, r7
 80085d0:	f040 8120 	bne.w	8008814 <tcp_output+0x2ec>
 80085d4:	6ee3      	ldr	r3, [r4, #108]	; 0x6c
 80085d6:	2b00      	cmp	r3, #0
 80085d8:	f040 811c 	bne.w	8008814 <tcp_output+0x2ec>
 80085dc:	f894 3095 	ldrb.w	r3, [r4, #149]	; 0x95
 80085e0:	b91b      	cbnz	r3, 80085ea <tcp_output+0xc2>
 80085e2:	f44f 7380 	mov.w	r3, #256	; 0x100
 80085e6:	f8a4 3094 	strh.w	r3, [r4, #148]	; 0x94
 80085ea:	6ea3      	ldr	r3, [r4, #104]	; 0x68
 80085ec:	b90b      	cbnz	r3, 80085f2 <tcp_output+0xca>
 80085ee:	f8a4 3064 	strh.w	r3, [r4, #100]	; 0x64
 80085f2:	7ea3      	ldrb	r3, [r4, #26]
 80085f4:	f003 037f 	and.w	r3, r3, #127	; 0x7f
 80085f8:	76a3      	strb	r3, [r4, #26]
 80085fa:	2000      	movs	r0, #0
 80085fc:	e0e4      	b.n	80087c8 <tcp_output+0x2a0>
 80085fe:	682b      	ldr	r3, [r5, #0]
 8008600:	66a3      	str	r3, [r4, #104]	; 0x68
 8008602:	7d23      	ldrb	r3, [r4, #20]
 8008604:	2b02      	cmp	r3, #2
 8008606:	bf1e      	ittt	ne
 8008608:	7ea3      	ldrbne	r3, [r4, #26]
 800860a:	f023 0303 	bicne.w	r3, r3, #3
 800860e:	76a3      	strbne	r3, [r4, #26]
 8008610:	68eb      	ldr	r3, [r5, #12]
 8008612:	6858      	ldr	r0, [r3, #4]
 8008614:	f7fc fea3 	bl	800535e <lwip_htonl>
 8008618:	8929      	ldrh	r1, [r5, #8]
 800861a:	68eb      	ldr	r3, [r5, #12]
 800861c:	9104      	str	r1, [sp, #16]
 800861e:	9005      	str	r0, [sp, #20]
 8008620:	8998      	ldrh	r0, [r3, #12]
 8008622:	f7fc fe99 	bl	8005358 <lwip_htons>
 8008626:	e9dd 1204 	ldrd	r1, r2, [sp, #16]
 800862a:	f010 0303 	ands.w	r3, r0, #3
 800862e:	bf18      	it	ne
 8008630:	2301      	movne	r3, #1
 8008632:	440a      	add	r2, r1
 8008634:	4413      	add	r3, r2
 8008636:	6ce2      	ldr	r2, [r4, #76]	; 0x4c
 8008638:	1ad2      	subs	r2, r2, r3
 800863a:	2a00      	cmp	r2, #0
 800863c:	bfb8      	it	lt
 800863e:	64e3      	strlt	r3, [r4, #76]	; 0x4c
 8008640:	892b      	ldrh	r3, [r5, #8]
 8008642:	68ea      	ldr	r2, [r5, #12]
 8008644:	9304      	str	r3, [sp, #16]
 8008646:	8990      	ldrh	r0, [r2, #12]
 8008648:	f7fc fe86 	bl	8005358 <lwip_htons>
 800864c:	f010 0003 	ands.w	r0, r0, #3
 8008650:	bf18      	it	ne
 8008652:	2001      	movne	r0, #1
 8008654:	9b04      	ldr	r3, [sp, #16]
 8008656:	42d8      	cmn	r0, r3
 8008658:	f000 80d8 	beq.w	800880c <tcp_output+0x2e4>
 800865c:	2300      	movs	r3, #0
 800865e:	602b      	str	r3, [r5, #0]
 8008660:	6ee3      	ldr	r3, [r4, #108]	; 0x6c
 8008662:	b913      	cbnz	r3, 800866a <tcp_output+0x142>
 8008664:	66e5      	str	r5, [r4, #108]	; 0x6c
 8008666:	462e      	mov	r6, r5
 8008668:	e016      	b.n	8008698 <tcp_output+0x170>
 800866a:	68eb      	ldr	r3, [r5, #12]
 800866c:	6858      	ldr	r0, [r3, #4]
 800866e:	f7fc fe76 	bl	800535e <lwip_htonl>
 8008672:	68f2      	ldr	r2, [r6, #12]
 8008674:	9004      	str	r0, [sp, #16]
 8008676:	6850      	ldr	r0, [r2, #4]
 8008678:	f7fc fe71 	bl	800535e <lwip_htonl>
 800867c:	9b04      	ldr	r3, [sp, #16]
 800867e:	1a1b      	subs	r3, r3, r0
 8008680:	2b00      	cmp	r3, #0
 8008682:	f280 80c1 	bge.w	8008808 <tcp_output+0x2e0>
 8008686:	f104 036c 	add.w	r3, r4, #108	; 0x6c
 800868a:	681a      	ldr	r2, [r3, #0]
 800868c:	2a00      	cmp	r2, #0
 800868e:	f040 80a9 	bne.w	80087e4 <tcp_output+0x2bc>
 8008692:	681a      	ldr	r2, [r3, #0]
 8008694:	602a      	str	r2, [r5, #0]
 8008696:	601d      	str	r5, [r3, #0]
 8008698:	6ea5      	ldr	r5, [r4, #104]	; 0x68
 800869a:	2d00      	cmp	r5, #0
 800869c:	d0a5      	beq.n	80085ea <tcp_output+0xc2>
 800869e:	68eb      	ldr	r3, [r5, #12]
 80086a0:	6858      	ldr	r0, [r3, #4]
 80086a2:	f7fc fe5c 	bl	800535e <lwip_htonl>
 80086a6:	6c63      	ldr	r3, [r4, #68]	; 0x44
 80086a8:	1ac0      	subs	r0, r0, r3
 80086aa:	892b      	ldrh	r3, [r5, #8]
 80086ac:	4418      	add	r0, r3
 80086ae:	42b8      	cmp	r0, r7
 80086b0:	d89b      	bhi.n	80085ea <tcp_output+0xc2>
 80086b2:	68eb      	ldr	r3, [r5, #12]
 80086b4:	8998      	ldrh	r0, [r3, #12]
 80086b6:	f7fc fe4f 	bl	8005358 <lwip_htons>
 80086ba:	0742      	lsls	r2, r0, #29
 80086bc:	d506      	bpl.n	80086cc <tcp_output+0x1a4>
 80086be:	f240 4245 	movw	r2, #1093	; 0x445
 80086c2:	4651      	mov	r1, sl
 80086c4:	4658      	mov	r0, fp
 80086c6:	4b42      	ldr	r3, [pc, #264]	; (80087d0 <tcp_output+0x2a8>)
 80086c8:	f002 f8d6 	bl	800a878 <iprintf>
 80086cc:	6ee3      	ldr	r3, [r4, #108]	; 0x6c
 80086ce:	b1b3      	cbz	r3, 80086fe <tcp_output+0x1d6>
 80086d0:	7ea2      	ldrb	r2, [r4, #26]
 80086d2:	f012 0f44 	tst.w	r2, #68	; 0x44
 80086d6:	d112      	bne.n	80086fe <tcp_output+0x1d6>
 80086d8:	6ea3      	ldr	r3, [r4, #104]	; 0x68
 80086da:	b12b      	cbz	r3, 80086e8 <tcp_output+0x1c0>
 80086dc:	6819      	ldr	r1, [r3, #0]
 80086de:	b971      	cbnz	r1, 80086fe <tcp_output+0x1d6>
 80086e0:	8919      	ldrh	r1, [r3, #8]
 80086e2:	8e63      	ldrh	r3, [r4, #50]	; 0x32
 80086e4:	4299      	cmp	r1, r3
 80086e6:	d20a      	bcs.n	80086fe <tcp_output+0x1d6>
 80086e8:	f8b4 3060 	ldrh.w	r3, [r4, #96]	; 0x60
 80086ec:	b13b      	cbz	r3, 80086fe <tcp_output+0x1d6>
 80086ee:	f8b4 3062 	ldrh.w	r3, [r4, #98]	; 0x62
 80086f2:	2b08      	cmp	r3, #8
 80086f4:	d803      	bhi.n	80086fe <tcp_output+0x1d6>
 80086f6:	f012 0fa0 	tst.w	r2, #160	; 0xa0
 80086fa:	f43f af76 	beq.w	80085ea <tcp_output+0xc2>
 80086fe:	7d23      	ldrb	r3, [r4, #20]
 8008700:	2b02      	cmp	r3, #2
 8008702:	d009      	beq.n	8008718 <tcp_output+0x1f0>
 8008704:	68eb      	ldr	r3, [r5, #12]
 8008706:	2010      	movs	r0, #16
 8008708:	899b      	ldrh	r3, [r3, #12]
 800870a:	9304      	str	r3, [sp, #16]
 800870c:	f7fc fe24 	bl	8005358 <lwip_htons>
 8008710:	9b04      	ldr	r3, [sp, #16]
 8008712:	68ea      	ldr	r2, [r5, #12]
 8008714:	4303      	orrs	r3, r0
 8008716:	8193      	strh	r3, [r2, #12]
 8008718:	686b      	ldr	r3, [r5, #4]
 800871a:	89db      	ldrh	r3, [r3, #14]
 800871c:	2b01      	cmp	r3, #1
 800871e:	f47f af6e 	bne.w	80085fe <tcp_output+0xd6>
 8008722:	68eb      	ldr	r3, [r5, #12]
 8008724:	6a60      	ldr	r0, [r4, #36]	; 0x24
 8008726:	9304      	str	r3, [sp, #16]
 8008728:	f7fc fe19 	bl	800535e <lwip_htonl>
 800872c:	9b04      	ldr	r3, [sp, #16]
 800872e:	6098      	str	r0, [r3, #8]
 8008730:	68eb      	ldr	r3, [r5, #12]
 8008732:	8d60      	ldrh	r0, [r4, #42]	; 0x2a
 8008734:	9304      	str	r3, [sp, #16]
 8008736:	f7fc fe0f 	bl	8005358 <lwip_htons>
 800873a:	9b04      	ldr	r3, [sp, #16]
 800873c:	8d62      	ldrh	r2, [r4, #42]	; 0x2a
 800873e:	81d8      	strh	r0, [r3, #14]
 8008740:	6a63      	ldr	r3, [r4, #36]	; 0x24
 8008742:	4413      	add	r3, r2
 8008744:	62e3      	str	r3, [r4, #44]	; 0x2c
 8008746:	7aab      	ldrb	r3, [r5, #10]
 8008748:	07db      	lsls	r3, r3, #31
 800874a:	d50c      	bpl.n	8008766 <tcp_output+0x23e>
 800874c:	68eb      	ldr	r3, [r5, #12]
 800874e:	4649      	mov	r1, r9
 8008750:	f44f 7006 	mov.w	r0, #536	; 0x218
 8008754:	9304      	str	r3, [sp, #16]
 8008756:	f7fe fa81 	bl	8006c5c <tcp_eff_send_mss_impl>
 800875a:	f040 7001 	orr.w	r0, r0, #33816576	; 0x2040000
 800875e:	f7fc fdfe 	bl	800535e <lwip_htonl>
 8008762:	9b04      	ldr	r3, [sp, #16]
 8008764:	6158      	str	r0, [r3, #20]
 8008766:	f9b4 3030 	ldrsh.w	r3, [r4, #48]	; 0x30
 800876a:	2b00      	cmp	r3, #0
 800876c:	bfbc      	itt	lt
 800876e:	2300      	movlt	r3, #0
 8008770:	8623      	strhlt	r3, [r4, #48]	; 0x30
 8008772:	6b63      	ldr	r3, [r4, #52]	; 0x34
 8008774:	b93b      	cbnz	r3, 8008786 <tcp_output+0x25e>
 8008776:	4a1a      	ldr	r2, [pc, #104]	; (80087e0 <tcp_output+0x2b8>)
 8008778:	68eb      	ldr	r3, [r5, #12]
 800877a:	6812      	ldr	r2, [r2, #0]
 800877c:	6362      	str	r2, [r4, #52]	; 0x34
 800877e:	6858      	ldr	r0, [r3, #4]
 8008780:	f7fc fded 	bl	800535e <lwip_htonl>
 8008784:	63a0      	str	r0, [r4, #56]	; 0x38
 8008786:	6868      	ldr	r0, [r5, #4]
 8008788:	68ea      	ldr	r2, [r5, #12]
 800878a:	6843      	ldr	r3, [r0, #4]
 800878c:	8941      	ldrh	r1, [r0, #10]
 800878e:	1ad3      	subs	r3, r2, r3
 8008790:	b29b      	uxth	r3, r3
 8008792:	1ac9      	subs	r1, r1, r3
 8008794:	8141      	strh	r1, [r0, #10]
 8008796:	8901      	ldrh	r1, [r0, #8]
 8008798:	6042      	str	r2, [r0, #4]
 800879a:	1acb      	subs	r3, r1, r3
 800879c:	8103      	strh	r3, [r0, #8]
 800879e:	2300      	movs	r3, #0
 80087a0:	7413      	strb	r3, [r2, #16]
 80087a2:	7453      	strb	r3, [r2, #17]
 80087a4:	2306      	movs	r3, #6
 80087a6:	9301      	str	r3, [sp, #4]
 80087a8:	7a63      	ldrb	r3, [r4, #9]
 80087aa:	464a      	mov	r2, r9
 80087ac:	9300      	str	r3, [sp, #0]
 80087ae:	4621      	mov	r1, r4
 80087b0:	7aa3      	ldrb	r3, [r4, #10]
 80087b2:	f8cd 8008 	str.w	r8, [sp, #8]
 80087b6:	f001 fa31 	bl	8009c1c <ip4_output_if>
 80087ba:	2800      	cmp	r0, #0
 80087bc:	f43f af1f 	beq.w	80085fe <tcp_output+0xd6>
 80087c0:	7ea3      	ldrb	r3, [r4, #26]
 80087c2:	f063 037f 	orn	r3, r3, #127	; 0x7f
 80087c6:	76a3      	strb	r3, [r4, #26]
 80087c8:	b007      	add	sp, #28
 80087ca:	e8bd 8ff0 	ldmia.w	sp!, {r4, r5, r6, r7, r8, r9, sl, fp, pc}
 80087ce:	bf00      	nop
 80087d0:	0800c9d4 	.word	0x0800c9d4
 80087d4:	0800cb56 	.word	0x0800cb56
 80087d8:	0800bcae 	.word	0x0800bcae
 80087dc:	20006ba0 	.word	0x20006ba0
 80087e0:	20006b90 	.word	0x20006b90
 80087e4:	68d2      	ldr	r2, [r2, #12]
 80087e6:	9305      	str	r3, [sp, #20]
 80087e8:	6850      	ldr	r0, [r2, #4]
 80087ea:	f7fc fdb8 	bl	800535e <lwip_htonl>
 80087ee:	68e9      	ldr	r1, [r5, #12]
 80087f0:	9004      	str	r0, [sp, #16]
 80087f2:	6848      	ldr	r0, [r1, #4]
 80087f4:	f7fc fdb3 	bl	800535e <lwip_htonl>
 80087f8:	9a04      	ldr	r2, [sp, #16]
 80087fa:	9b05      	ldr	r3, [sp, #20]
 80087fc:	1a12      	subs	r2, r2, r0
 80087fe:	2a00      	cmp	r2, #0
 8008800:	f6bf af47 	bge.w	8008692 <tcp_output+0x16a>
 8008804:	681b      	ldr	r3, [r3, #0]
 8008806:	e740      	b.n	800868a <tcp_output+0x162>
 8008808:	6035      	str	r5, [r6, #0]
 800880a:	e72c      	b.n	8008666 <tcp_output+0x13e>
 800880c:	4628      	mov	r0, r5
 800880e:	f7fd fd2b 	bl	8006268 <tcp_seg_free>
 8008812:	e741      	b.n	8008698 <tcp_output+0x170>
 8008814:	f8df a00c 	ldr.w	sl, [pc, #12]	; 8008824 <tcp_output+0x2fc>
 8008818:	f8df b00c 	ldr.w	fp, [pc, #12]	; 8008828 <tcp_output+0x300>
 800881c:	e73f      	b.n	800869e <tcp_output+0x176>
 800881e:	f06f 0003 	mvn.w	r0, #3
 8008822:	e7d1      	b.n	80087c8 <tcp_output+0x2a0>
 8008824:	0800cb7c 	.word	0x0800cb7c
 8008828:	0800bcae 	.word	0x0800bcae

0800882c <tcp_rst>:
 800882c:	e92d 4ff0 	stmdb	sp!, {r4, r5, r6, r7, r8, r9, sl, fp, lr}
 8008830:	4681      	mov	r9, r0
 8008832:	b085      	sub	sp, #20
 8008834:	460e      	mov	r6, r1
 8008836:	4690      	mov	r8, r2
 8008838:	2114      	movs	r1, #20
 800883a:	2200      	movs	r2, #0
 800883c:	2001      	movs	r0, #1
 800883e:	461f      	mov	r7, r3
 8008840:	f8bd b038 	ldrh.w	fp, [sp, #56]	; 0x38
 8008844:	f8bd a03c 	ldrh.w	sl, [sp, #60]	; 0x3c
 8008848:	f7fd f9a0 	bl	8005b8c <pbuf_alloc>
 800884c:	4605      	mov	r5, r0
 800884e:	2800      	cmp	r0, #0
 8008850:	d03c      	beq.n	80088cc <tcp_rst+0xa0>
 8008852:	8943      	ldrh	r3, [r0, #10]
 8008854:	2b13      	cmp	r3, #19
 8008856:	d806      	bhi.n	8008866 <tcp_rst+0x3a>
 8008858:	f240 524c 	movw	r2, #1356	; 0x54c
 800885c:	4b1d      	ldr	r3, [pc, #116]	; (80088d4 <tcp_rst+0xa8>)
 800885e:	491e      	ldr	r1, [pc, #120]	; (80088d8 <tcp_rst+0xac>)
 8008860:	481e      	ldr	r0, [pc, #120]	; (80088dc <tcp_rst+0xb0>)
 8008862:	f002 f809 	bl	800a878 <iprintf>
 8008866:	4658      	mov	r0, fp
 8008868:	686c      	ldr	r4, [r5, #4]
 800886a:	f7fc fd75 	bl	8005358 <lwip_htons>
 800886e:	8020      	strh	r0, [r4, #0]
 8008870:	4650      	mov	r0, sl
 8008872:	f7fc fd71 	bl	8005358 <lwip_htons>
 8008876:	8060      	strh	r0, [r4, #2]
 8008878:	4648      	mov	r0, r9
 800887a:	f7fc fd70 	bl	800535e <lwip_htonl>
 800887e:	6060      	str	r0, [r4, #4]
 8008880:	4630      	mov	r0, r6
 8008882:	f7fc fd6c 	bl	800535e <lwip_htonl>
 8008886:	60a0      	str	r0, [r4, #8]
 8008888:	f245 0014 	movw	r0, #20500	; 0x5014
 800888c:	f7fc fd64 	bl	8005358 <lwip_htons>
 8008890:	2308      	movs	r3, #8
 8008892:	2600      	movs	r6, #0
 8008894:	73a3      	strb	r3, [r4, #14]
 8008896:	2360      	movs	r3, #96	; 0x60
 8008898:	81a0      	strh	r0, [r4, #12]
 800889a:	73e3      	strb	r3, [r4, #15]
 800889c:	4638      	mov	r0, r7
 800889e:	7426      	strb	r6, [r4, #16]
 80088a0:	7466      	strb	r6, [r4, #17]
 80088a2:	74a6      	strb	r6, [r4, #18]
 80088a4:	74e6      	strb	r6, [r4, #19]
 80088a6:	f001 f84b 	bl	8009940 <ip4_route>
 80088aa:	b148      	cbz	r0, 80088c0 <tcp_rst+0x94>
 80088ac:	2306      	movs	r3, #6
 80088ae:	9002      	str	r0, [sp, #8]
 80088b0:	e9cd 6300 	strd	r6, r3, [sp]
 80088b4:	463a      	mov	r2, r7
 80088b6:	23ff      	movs	r3, #255	; 0xff
 80088b8:	4641      	mov	r1, r8
 80088ba:	4628      	mov	r0, r5
 80088bc:	f001 f9ae 	bl	8009c1c <ip4_output_if>
 80088c0:	4628      	mov	r0, r5
 80088c2:	b005      	add	sp, #20
 80088c4:	e8bd 4ff0 	ldmia.w	sp!, {r4, r5, r6, r7, r8, r9, sl, fp, lr}
 80088c8:	f7fd b8fc 	b.w	8005ac4 <pbuf_free>
 80088cc:	b005      	add	sp, #20
 80088ce:	e8bd 8ff0 	ldmia.w	sp!, {r4, r5, r6, r7, r8, r9, sl, fp, pc}
 80088d2:	bf00      	nop
 80088d4:	0800c9d4 	.word	0x0800c9d4
 80088d8:	0800ca30 	.word	0x0800ca30
 80088dc:	0800bcae 	.word	0x0800bcae

080088e0 <tcp_rexmit_rto>:
 80088e0:	6ec2      	ldr	r2, [r0, #108]	; 0x6c
 80088e2:	b410      	push	{r4}
 80088e4:	b1a2      	cbz	r2, 8008910 <tcp_rexmit_rto+0x30>
 80088e6:	4613      	mov	r3, r2
 80088e8:	4619      	mov	r1, r3
 80088ea:	681b      	ldr	r3, [r3, #0]
 80088ec:	2b00      	cmp	r3, #0
 80088ee:	d1fb      	bne.n	80088e8 <tcp_rexmit_rto+0x8>
 80088f0:	6e84      	ldr	r4, [r0, #104]	; 0x68
 80088f2:	600c      	str	r4, [r1, #0]
 80088f4:	e9c0 231a 	strd	r2, r3, [r0, #104]	; 0x68
 80088f8:	f890 3042 	ldrb.w	r3, [r0, #66]	; 0x42
 80088fc:	2bff      	cmp	r3, #255	; 0xff
 80088fe:	bf1c      	itt	ne
 8008900:	3301      	addne	r3, #1
 8008902:	f880 3042 	strbne.w	r3, [r0, #66]	; 0x42
 8008906:	2300      	movs	r3, #0
 8008908:	bc10      	pop	{r4}
 800890a:	6343      	str	r3, [r0, #52]	; 0x34
 800890c:	f7ff be0c 	b.w	8008528 <tcp_output>
 8008910:	bc10      	pop	{r4}
 8008912:	4770      	bx	lr

08008914 <tcp_rexmit>:
 8008914:	b5f8      	push	{r3, r4, r5, r6, r7, lr}
 8008916:	6ec5      	ldr	r5, [r0, #108]	; 0x6c
 8008918:	4604      	mov	r4, r0
 800891a:	b1ad      	cbz	r5, 8008948 <tcp_rexmit+0x34>
 800891c:	682b      	ldr	r3, [r5, #0]
 800891e:	f100 0668 	add.w	r6, r0, #104	; 0x68
 8008922:	66c3      	str	r3, [r0, #108]	; 0x6c
 8008924:	6833      	ldr	r3, [r6, #0]
 8008926:	b983      	cbnz	r3, 800894a <tcp_rexmit+0x36>
 8008928:	6833      	ldr	r3, [r6, #0]
 800892a:	602b      	str	r3, [r5, #0]
 800892c:	6035      	str	r5, [r6, #0]
 800892e:	682b      	ldr	r3, [r5, #0]
 8008930:	b90b      	cbnz	r3, 8008936 <tcp_rexmit+0x22>
 8008932:	f8a4 3064 	strh.w	r3, [r4, #100]	; 0x64
 8008936:	f894 3042 	ldrb.w	r3, [r4, #66]	; 0x42
 800893a:	2bff      	cmp	r3, #255	; 0xff
 800893c:	bf1c      	itt	ne
 800893e:	3301      	addne	r3, #1
 8008940:	f884 3042 	strbne.w	r3, [r4, #66]	; 0x42
 8008944:	2300      	movs	r3, #0
 8008946:	6363      	str	r3, [r4, #52]	; 0x34
 8008948:	bdf8      	pop	{r3, r4, r5, r6, r7, pc}
 800894a:	68db      	ldr	r3, [r3, #12]
 800894c:	6858      	ldr	r0, [r3, #4]
 800894e:	f7fc fd06 	bl	800535e <lwip_htonl>
 8008952:	68eb      	ldr	r3, [r5, #12]
 8008954:	4607      	mov	r7, r0
 8008956:	6858      	ldr	r0, [r3, #4]
 8008958:	f7fc fd01 	bl	800535e <lwip_htonl>
 800895c:	1a3f      	subs	r7, r7, r0
 800895e:	2f00      	cmp	r7, #0
 8008960:	dae2      	bge.n	8008928 <tcp_rexmit+0x14>
 8008962:	6836      	ldr	r6, [r6, #0]
 8008964:	e7de      	b.n	8008924 <tcp_rexmit+0x10>

08008966 <tcp_rexmit_fast>:
 8008966:	b538      	push	{r3, r4, r5, lr}
 8008968:	6ec3      	ldr	r3, [r0, #108]	; 0x6c
 800896a:	4604      	mov	r4, r0
 800896c:	b1f3      	cbz	r3, 80089ac <tcp_rexmit_fast+0x46>
 800896e:	7e85      	ldrb	r5, [r0, #26]
 8008970:	f015 0504 	ands.w	r5, r5, #4
 8008974:	d11a      	bne.n	80089ac <tcp_rexmit_fast+0x46>
 8008976:	f7ff ffcd 	bl	8008914 <tcp_rexmit>
 800897a:	f8b4 105c 	ldrh.w	r1, [r4, #92]	; 0x5c
 800897e:	f8b4 3048 	ldrh.w	r3, [r4, #72]	; 0x48
 8008982:	8625      	strh	r5, [r4, #48]	; 0x30
 8008984:	4299      	cmp	r1, r3
 8008986:	bf28      	it	cs
 8008988:	4619      	movcs	r1, r3
 800898a:	8e63      	ldrh	r3, [r4, #50]	; 0x32
 800898c:	104a      	asrs	r2, r1, #1
 800898e:	0058      	lsls	r0, r3, #1
 8008990:	ebb0 0f51 	cmp.w	r0, r1, lsr #1
 8008994:	bf88      	it	hi
 8008996:	4602      	movhi	r2, r0
 8008998:	4403      	add	r3, r0
 800899a:	4413      	add	r3, r2
 800899c:	f8a4 3048 	strh.w	r3, [r4, #72]	; 0x48
 80089a0:	7ea3      	ldrb	r3, [r4, #26]
 80089a2:	f8a4 204a 	strh.w	r2, [r4, #74]	; 0x4a
 80089a6:	f043 0304 	orr.w	r3, r3, #4
 80089aa:	76a3      	strb	r3, [r4, #26]
 80089ac:	bd38      	pop	{r3, r4, r5, pc}

080089ae <tcp_keepalive>:
 80089ae:	b57f      	push	{r0, r1, r2, r3, r4, r5, r6, lr}
 80089b0:	4604      	mov	r4, r0
 80089b2:	6cc0      	ldr	r0, [r0, #76]	; 0x4c
 80089b4:	3801      	subs	r0, #1
 80089b6:	f7fc fcd2 	bl	800535e <lwip_htonl>
 80089ba:	2100      	movs	r1, #0
 80089bc:	4602      	mov	r2, r0
 80089be:	4620      	mov	r0, r4
 80089c0:	f7ff fc8e 	bl	80082e0 <tcp_output_alloc_header.constprop.0>
 80089c4:	4605      	mov	r5, r0
 80089c6:	b1c8      	cbz	r0, 80089fc <tcp_keepalive+0x4e>
 80089c8:	1d26      	adds	r6, r4, #4
 80089ca:	4630      	mov	r0, r6
 80089cc:	f000 ffb8 	bl	8009940 <ip4_route>
 80089d0:	b188      	cbz	r0, 80089f6 <tcp_keepalive+0x48>
 80089d2:	2300      	movs	r3, #0
 80089d4:	2206      	movs	r2, #6
 80089d6:	e9cd 3200 	strd	r3, r2, [sp]
 80089da:	9002      	str	r0, [sp, #8]
 80089dc:	4621      	mov	r1, r4
 80089de:	7aa3      	ldrb	r3, [r4, #10]
 80089e0:	4632      	mov	r2, r6
 80089e2:	4628      	mov	r0, r5
 80089e4:	f001 f91a 	bl	8009c1c <ip4_output_if>
 80089e8:	4604      	mov	r4, r0
 80089ea:	4628      	mov	r0, r5
 80089ec:	f7fd f86a 	bl	8005ac4 <pbuf_free>
 80089f0:	4620      	mov	r0, r4
 80089f2:	b004      	add	sp, #16
 80089f4:	bd70      	pop	{r4, r5, r6, pc}
 80089f6:	f06f 0403 	mvn.w	r4, #3
 80089fa:	e7f6      	b.n	80089ea <tcp_keepalive+0x3c>
 80089fc:	f04f 34ff 	mov.w	r4, #4294967295
 8008a00:	e7f6      	b.n	80089f0 <tcp_keepalive+0x42>

08008a02 <tcp_zero_window_probe>:
 8008a02:	e92d 41ff 	stmdb	sp!, {r0, r1, r2, r3, r4, r5, r6, r7, r8, lr}
 8008a06:	6ec4      	ldr	r4, [r0, #108]	; 0x6c
 8008a08:	4606      	mov	r6, r0
 8008a0a:	b914      	cbnz	r4, 8008a12 <tcp_zero_window_probe+0x10>
 8008a0c:	6e84      	ldr	r4, [r0, #104]	; 0x68
 8008a0e:	2c00      	cmp	r4, #0
 8008a10:	d041      	beq.n	8008a96 <tcp_zero_window_probe+0x94>
 8008a12:	68e3      	ldr	r3, [r4, #12]
 8008a14:	8998      	ldrh	r0, [r3, #12]
 8008a16:	f7fc fc9f 	bl	8005358 <lwip_htons>
 8008a1a:	f010 0501 	ands.w	r5, r0, #1
 8008a1e:	bf18      	it	ne
 8008a20:	8925      	ldrhne	r5, [r4, #8]
 8008a22:	68e3      	ldr	r3, [r4, #12]
 8008a24:	bf1c      	itt	ne
 8008a26:	fab5 f585 	clzne	r5, r5
 8008a2a:	096d      	lsrne	r5, r5, #5
 8008a2c:	4630      	mov	r0, r6
 8008a2e:	685a      	ldr	r2, [r3, #4]
 8008a30:	f085 0101 	eor.w	r1, r5, #1
 8008a34:	f7ff fc54 	bl	80082e0 <tcp_output_alloc_header.constprop.0>
 8008a38:	4607      	mov	r7, r0
 8008a3a:	2800      	cmp	r0, #0
 8008a3c:	d03d      	beq.n	8008aba <tcp_zero_window_probe+0xb8>
 8008a3e:	f8d0 8004 	ldr.w	r8, [r0, #4]
 8008a42:	b365      	cbz	r5, 8008a9e <tcp_zero_window_probe+0x9c>
 8008a44:	2011      	movs	r0, #17
 8008a46:	f8b8 500c 	ldrh.w	r5, [r8, #12]
 8008a4a:	f7fc fc85 	bl	8005358 <lwip_htons>
 8008a4e:	f425 557c 	bic.w	r5, r5, #16128	; 0x3f00
 8008a52:	b2ad      	uxth	r5, r5
 8008a54:	4305      	orrs	r5, r0
 8008a56:	f8a8 500c 	strh.w	r5, [r8, #12]
 8008a5a:	68e3      	ldr	r3, [r4, #12]
 8008a5c:	1d34      	adds	r4, r6, #4
 8008a5e:	6858      	ldr	r0, [r3, #4]
 8008a60:	f7fc fc7d 	bl	800535e <lwip_htonl>
 8008a64:	6cf3      	ldr	r3, [r6, #76]	; 0x4c
 8008a66:	3001      	adds	r0, #1
 8008a68:	1a1b      	subs	r3, r3, r0
 8008a6a:	2b00      	cmp	r3, #0
 8008a6c:	bfb8      	it	lt
 8008a6e:	64f0      	strlt	r0, [r6, #76]	; 0x4c
 8008a70:	4620      	mov	r0, r4
 8008a72:	f000 ff65 	bl	8009940 <ip4_route>
 8008a76:	b1e8      	cbz	r0, 8008ab4 <tcp_zero_window_probe+0xb2>
 8008a78:	2300      	movs	r3, #0
 8008a7a:	2206      	movs	r2, #6
 8008a7c:	9002      	str	r0, [sp, #8]
 8008a7e:	e9cd 3200 	strd	r3, r2, [sp]
 8008a82:	4631      	mov	r1, r6
 8008a84:	4622      	mov	r2, r4
 8008a86:	4638      	mov	r0, r7
 8008a88:	7ab3      	ldrb	r3, [r6, #10]
 8008a8a:	f001 f8c7 	bl	8009c1c <ip4_output_if>
 8008a8e:	4604      	mov	r4, r0
 8008a90:	4638      	mov	r0, r7
 8008a92:	f7fd f817 	bl	8005ac4 <pbuf_free>
 8008a96:	4620      	mov	r0, r4
 8008a98:	b004      	add	sp, #16
 8008a9a:	e8bd 81f0 	ldmia.w	sp!, {r4, r5, r6, r7, r8, pc}
 8008a9e:	6860      	ldr	r0, [r4, #4]
 8008aa0:	8922      	ldrh	r2, [r4, #8]
 8008aa2:	8903      	ldrh	r3, [r0, #8]
 8008aa4:	f108 0114 	add.w	r1, r8, #20
 8008aa8:	1a9b      	subs	r3, r3, r2
 8008aaa:	b29b      	uxth	r3, r3
 8008aac:	2201      	movs	r2, #1
 8008aae:	f7fd fa97 	bl	8005fe0 <pbuf_copy_partial>
 8008ab2:	e7d2      	b.n	8008a5a <tcp_zero_window_probe+0x58>
 8008ab4:	f06f 0403 	mvn.w	r4, #3
 8008ab8:	e7ea      	b.n	8008a90 <tcp_zero_window_probe+0x8e>
 8008aba:	f04f 34ff 	mov.w	r4, #4294967295
 8008abe:	e7ea      	b.n	8008a96 <tcp_zero_window_probe+0x94>

08008ac0 <sys_timeout>:
 8008ac0:	e92d 41f0 	stmdb	sp!, {r4, r5, r6, r7, r8, lr}
 8008ac4:	4606      	mov	r6, r0
 8008ac6:	2006      	movs	r0, #6
 8008ac8:	4688      	mov	r8, r1
 8008aca:	4617      	mov	r7, r2
 8008acc:	f7fc fe7a 	bl	80057c4 <memp_malloc>
 8008ad0:	4604      	mov	r4, r0
 8008ad2:	b938      	cbnz	r0, 8008ae4 <sys_timeout+0x24>
 8008ad4:	e8bd 41f0 	ldmia.w	sp!, {r4, r5, r6, r7, r8, lr}
 8008ad8:	22d4      	movs	r2, #212	; 0xd4
 8008ada:	4b1c      	ldr	r3, [pc, #112]	; (8008b4c <sys_timeout+0x8c>)
 8008adc:	491c      	ldr	r1, [pc, #112]	; (8008b50 <sys_timeout+0x90>)
 8008ade:	481d      	ldr	r0, [pc, #116]	; (8008b54 <sys_timeout+0x94>)
 8008ae0:	f001 beca 	b.w	800a878 <iprintf>
 8008ae4:	f7fc fbe0 	bl	80052a8 <sys_now>
 8008ae8:	4a1b      	ldr	r2, [pc, #108]	; (8008b58 <sys_timeout+0x98>)
 8008aea:	4b1c      	ldr	r3, [pc, #112]	; (8008b5c <sys_timeout+0x9c>)
 8008aec:	6815      	ldr	r5, [r2, #0]
 8008aee:	b95d      	cbnz	r5, 8008b08 <sys_timeout+0x48>
 8008af0:	6018      	str	r0, [r3, #0]
 8008af2:	462b      	mov	r3, r5
 8008af4:	2100      	movs	r1, #0
 8008af6:	4433      	add	r3, r6
 8008af8:	e9c4 8702 	strd	r8, r7, [r4, #8]
 8008afc:	6021      	str	r1, [r4, #0]
 8008afe:	6063      	str	r3, [r4, #4]
 8008b00:	b92d      	cbnz	r5, 8008b0e <sys_timeout+0x4e>
 8008b02:	6014      	str	r4, [r2, #0]
 8008b04:	e8bd 81f0 	ldmia.w	sp!, {r4, r5, r6, r7, r8, pc}
 8008b08:	681b      	ldr	r3, [r3, #0]
 8008b0a:	1ac3      	subs	r3, r0, r3
 8008b0c:	e7f2      	b.n	8008af4 <sys_timeout+0x34>
 8008b0e:	6868      	ldr	r0, [r5, #4]
 8008b10:	42b0      	cmp	r0, r6
 8008b12:	d903      	bls.n	8008b1c <sys_timeout+0x5c>
 8008b14:	1b80      	subs	r0, r0, r6
 8008b16:	6068      	str	r0, [r5, #4]
 8008b18:	6025      	str	r5, [r4, #0]
 8008b1a:	e7f2      	b.n	8008b02 <sys_timeout+0x42>
 8008b1c:	462b      	mov	r3, r5
 8008b1e:	685a      	ldr	r2, [r3, #4]
 8008b20:	6860      	ldr	r0, [r4, #4]
 8008b22:	469c      	mov	ip, r3
 8008b24:	681b      	ldr	r3, [r3, #0]
 8008b26:	1a81      	subs	r1, r0, r2
 8008b28:	6061      	str	r1, [r4, #4]
 8008b2a:	b133      	cbz	r3, 8008b3a <sys_timeout+0x7a>
 8008b2c:	685f      	ldr	r7, [r3, #4]
 8008b2e:	42b9      	cmp	r1, r7
 8008b30:	d2f5      	bcs.n	8008b1e <sys_timeout+0x5e>
 8008b32:	443a      	add	r2, r7
 8008b34:	1a12      	subs	r2, r2, r0
 8008b36:	605a      	str	r2, [r3, #4]
 8008b38:	e004      	b.n	8008b44 <sys_timeout+0x84>
 8008b3a:	42b1      	cmp	r1, r6
 8008b3c:	d902      	bls.n	8008b44 <sys_timeout+0x84>
 8008b3e:	6868      	ldr	r0, [r5, #4]
 8008b40:	4406      	add	r6, r0
 8008b42:	6066      	str	r6, [r4, #4]
 8008b44:	6023      	str	r3, [r4, #0]
 8008b46:	f8cc 4000 	str.w	r4, [ip]
 8008b4a:	e7db      	b.n	8008b04 <sys_timeout+0x44>
 8008b4c:	0800cb93 	.word	0x0800cb93
 8008b50:	0800cbc7 	.word	0x0800cbc7
 8008b54:	0800bcae 	.word	0x0800bcae
 8008b58:	2000044c 	.word	0x2000044c
 8008b5c:	20000454 	.word	0x20000454

08008b60 <tcp_timer_needed>:
 8008b60:	4b08      	ldr	r3, [pc, #32]	; (8008b84 <tcp_timer_needed+0x24>)
 8008b62:	681a      	ldr	r2, [r3, #0]
 8008b64:	b962      	cbnz	r2, 8008b80 <tcp_timer_needed+0x20>
 8008b66:	4a08      	ldr	r2, [pc, #32]	; (8008b88 <tcp_timer_needed+0x28>)
 8008b68:	6812      	ldr	r2, [r2, #0]
 8008b6a:	b912      	cbnz	r2, 8008b72 <tcp_timer_needed+0x12>
 8008b6c:	4a07      	ldr	r2, [pc, #28]	; (8008b8c <tcp_timer_needed+0x2c>)
 8008b6e:	6812      	ldr	r2, [r2, #0]
 8008b70:	b132      	cbz	r2, 8008b80 <tcp_timer_needed+0x20>
 8008b72:	2201      	movs	r2, #1
 8008b74:	20fa      	movs	r0, #250	; 0xfa
 8008b76:	601a      	str	r2, [r3, #0]
 8008b78:	4905      	ldr	r1, [pc, #20]	; (8008b90 <tcp_timer_needed+0x30>)
 8008b7a:	2200      	movs	r2, #0
 8008b7c:	f7ff bfa0 	b.w	8008ac0 <sys_timeout>
 8008b80:	4770      	bx	lr
 8008b82:	bf00      	nop
 8008b84:	20000450 	.word	0x20000450
 8008b88:	20006b8c 	.word	0x20006b8c
 8008b8c:	20006b9c 	.word	0x20006b9c
 8008b90:	08008b95 	.word	0x08008b95

08008b94 <tcpip_tcp_timer>:
 8008b94:	b508      	push	{r3, lr}
 8008b96:	f7fd ff17 	bl	80069c8 <tcp_tmr>
 8008b9a:	4b08      	ldr	r3, [pc, #32]	; (8008bbc <tcpip_tcp_timer+0x28>)
 8008b9c:	681b      	ldr	r3, [r3, #0]
 8008b9e:	b913      	cbnz	r3, 8008ba6 <tcpip_tcp_timer+0x12>
 8008ba0:	4b07      	ldr	r3, [pc, #28]	; (8008bc0 <tcpip_tcp_timer+0x2c>)
 8008ba2:	681b      	ldr	r3, [r3, #0]
 8008ba4:	b133      	cbz	r3, 8008bb4 <tcpip_tcp_timer+0x20>
 8008ba6:	e8bd 4008 	ldmia.w	sp!, {r3, lr}
 8008baa:	2200      	movs	r2, #0
 8008bac:	20fa      	movs	r0, #250	; 0xfa
 8008bae:	4905      	ldr	r1, [pc, #20]	; (8008bc4 <tcpip_tcp_timer+0x30>)
 8008bb0:	f7ff bf86 	b.w	8008ac0 <sys_timeout>
 8008bb4:	4a04      	ldr	r2, [pc, #16]	; (8008bc8 <tcpip_tcp_timer+0x34>)
 8008bb6:	6013      	str	r3, [r2, #0]
 8008bb8:	bd08      	pop	{r3, pc}
 8008bba:	bf00      	nop
 8008bbc:	20006b8c 	.word	0x20006b8c
 8008bc0:	20006b9c 	.word	0x20006b9c
 8008bc4:	08008b95 	.word	0x08008b95
 8008bc8:	20000450 	.word	0x20000450

08008bcc <sys_timeouts_init>:
 8008bcc:	b538      	push	{r3, r4, r5, lr}
 8008bce:	4d0a      	ldr	r5, [pc, #40]	; (8008bf8 <sys_timeouts_init+0x2c>)
 8008bd0:	4c0a      	ldr	r4, [pc, #40]	; (8008bfc <sys_timeouts_init+0x30>)
 8008bd2:	f44f 707a 	mov.w	r0, #1000	; 0x3e8
 8008bd6:	4621      	mov	r1, r4
 8008bd8:	f105 0208 	add.w	r2, r5, #8
 8008bdc:	f7ff ff70 	bl	8008ac0 <sys_timeout>
 8008be0:	4621      	mov	r1, r4
 8008be2:	f44f 707a 	mov.w	r0, #1000	; 0x3e8
 8008be6:	f105 0210 	add.w	r2, r5, #16
 8008bea:	f7ff ff69 	bl	8008ac0 <sys_timeout>
 8008bee:	f7fc fb5b 	bl	80052a8 <sys_now>
 8008bf2:	4b03      	ldr	r3, [pc, #12]	; (8008c00 <sys_timeouts_init+0x34>)
 8008bf4:	6018      	str	r0, [r3, #0]
 8008bf6:	bd38      	pop	{r3, r4, r5, pc}
 8008bf8:	0800cc04 	.word	0x0800cc04
 8008bfc:	08008c05 	.word	0x08008c05
 8008c00:	20000454 	.word	0x20000454

08008c04 <cyclic_timer>:
 8008c04:	b510      	push	{r4, lr}
 8008c06:	4604      	mov	r4, r0
 8008c08:	6843      	ldr	r3, [r0, #4]
 8008c0a:	4798      	blx	r3
 8008c0c:	4622      	mov	r2, r4
 8008c0e:	6820      	ldr	r0, [r4, #0]
 8008c10:	4902      	ldr	r1, [pc, #8]	; (8008c1c <cyclic_timer+0x18>)
 8008c12:	e8bd 4010 	ldmia.w	sp!, {r4, lr}
 8008c16:	f7ff bf53 	b.w	8008ac0 <sys_timeout>
 8008c1a:	bf00      	nop
 8008c1c:	08008c05 	.word	0x08008c05

08008c20 <sys_check_timeouts>:
 8008c20:	e92d 43f8 	stmdb	sp!, {r3, r4, r5, r6, r7, r8, r9, lr}
 8008c24:	4d12      	ldr	r5, [pc, #72]	; (8008c70 <sys_check_timeouts+0x50>)
 8008c26:	682b      	ldr	r3, [r5, #0]
 8008c28:	b1fb      	cbz	r3, 8008c6a <sys_check_timeouts+0x4a>
 8008c2a:	f7fc fb3d 	bl	80052a8 <sys_now>
 8008c2e:	4e11      	ldr	r6, [pc, #68]	; (8008c74 <sys_check_timeouts+0x54>)
 8008c30:	4f11      	ldr	r7, [pc, #68]	; (8008c78 <sys_check_timeouts+0x58>)
 8008c32:	6833      	ldr	r3, [r6, #0]
 8008c34:	1ac4      	subs	r4, r0, r3
 8008c36:	783b      	ldrb	r3, [r7, #0]
 8008c38:	b10b      	cbz	r3, 8008c3e <sys_check_timeouts+0x1e>
 8008c3a:	f7fc fef9 	bl	8005a30 <pbuf_free_ooseq>
 8008c3e:	6829      	ldr	r1, [r5, #0]
 8008c40:	b199      	cbz	r1, 8008c6a <sys_check_timeouts+0x4a>
 8008c42:	684b      	ldr	r3, [r1, #4]
 8008c44:	42a3      	cmp	r3, r4
 8008c46:	d810      	bhi.n	8008c6a <sys_check_timeouts+0x4a>
 8008c48:	e9d1 8902 	ldrd	r8, r9, [r1, #8]
 8008c4c:	6832      	ldr	r2, [r6, #0]
 8008c4e:	1ae4      	subs	r4, r4, r3
 8008c50:	441a      	add	r2, r3
 8008c52:	680b      	ldr	r3, [r1, #0]
 8008c54:	2006      	movs	r0, #6
 8008c56:	6032      	str	r2, [r6, #0]
 8008c58:	602b      	str	r3, [r5, #0]
 8008c5a:	f7fc fdcf 	bl	80057fc <memp_free>
 8008c5e:	f1b8 0f00 	cmp.w	r8, #0
 8008c62:	d0e8      	beq.n	8008c36 <sys_check_timeouts+0x16>
 8008c64:	4648      	mov	r0, r9
 8008c66:	47c0      	blx	r8
 8008c68:	e7e5      	b.n	8008c36 <sys_check_timeouts+0x16>
 8008c6a:	e8bd 83f8 	ldmia.w	sp!, {r3, r4, r5, r6, r7, r8, r9, pc}
 8008c6e:	bf00      	nop
 8008c70:	2000044c 	.word	0x2000044c
 8008c74:	20000454 	.word	0x20000454
 8008c78:	20006b84 	.word	0x20006b84

08008c7c <udp_init>:
 8008c7c:	4770      	bx	lr
	...

08008c80 <udp_input>:
 8008c80:	e92d 4ff0 	stmdb	sp!, {r4, r5, r6, r7, r8, r9, sl, fp, lr}
 8008c84:	8943      	ldrh	r3, [r0, #10]
 8008c86:	4605      	mov	r5, r0
 8008c88:	2b07      	cmp	r3, #7
 8008c8a:	4689      	mov	r9, r1
 8008c8c:	b085      	sub	sp, #20
 8008c8e:	d805      	bhi.n	8008c9c <udp_input+0x1c>
 8008c90:	4628      	mov	r0, r5
 8008c92:	b005      	add	sp, #20
 8008c94:	e8bd 4ff0 	ldmia.w	sp!, {r4, r5, r6, r7, r8, r9, sl, fp, lr}
 8008c98:	f7fc bf14 	b.w	8005ac4 <pbuf_free>
 8008c9c:	4e3d      	ldr	r6, [pc, #244]	; (8008d94 <udp_input+0x114>)
 8008c9e:	6844      	ldr	r4, [r0, #4]
 8008ca0:	6831      	ldr	r1, [r6, #0]
 8008ca2:	6970      	ldr	r0, [r6, #20]
 8008ca4:	f000 ffcb 	bl	8009c3e <ip4_addr_isbroadcast_u32>
 8008ca8:	4607      	mov	r7, r0
 8008caa:	8820      	ldrh	r0, [r4, #0]
 8008cac:	f7fc fb54 	bl	8005358 <lwip_htons>
 8008cb0:	4680      	mov	r8, r0
 8008cb2:	8860      	ldrh	r0, [r4, #2]
 8008cb4:	f7fc fb50 	bl	8005358 <lwip_htons>
 8008cb8:	e9d6 b104 	ldrd	fp, r1, [r6, #16]
 8008cbc:	2400      	movs	r4, #0
 8008cbe:	4a36      	ldr	r2, [pc, #216]	; (8008d98 <udp_input+0x118>)
 8008cc0:	4684      	mov	ip, r0
 8008cc2:	f8d2 e000 	ldr.w	lr, [r2]
 8008cc6:	4620      	mov	r0, r4
 8008cc8:	4673      	mov	r3, lr
 8008cca:	4692      	mov	sl, r2
 8008ccc:	9603      	str	r6, [sp, #12]
 8008cce:	b99b      	cbnz	r3, 8008cf8 <udp_input+0x78>
 8008cd0:	b91c      	cbnz	r4, 8008cda <udp_input+0x5a>
 8008cd2:	f8d9 3004 	ldr.w	r3, [r9, #4]
 8008cd6:	428b      	cmp	r3, r1
 8008cd8:	d1da      	bne.n	8008c90 <udp_input+0x10>
 8008cda:	f06f 0107 	mvn.w	r1, #7
 8008cde:	4628      	mov	r0, r5
 8008ce0:	f7fc feea 	bl	8005ab8 <pbuf_header>
 8008ce4:	2800      	cmp	r0, #0
 8008ce6:	d032      	beq.n	8008d4e <udp_input+0xce>
 8008ce8:	f240 1255 	movw	r2, #341	; 0x155
 8008cec:	4b2b      	ldr	r3, [pc, #172]	; (8008d9c <udp_input+0x11c>)
 8008cee:	492c      	ldr	r1, [pc, #176]	; (8008da0 <udp_input+0x120>)
 8008cf0:	482c      	ldr	r0, [pc, #176]	; (8008da4 <udp_input+0x124>)
 8008cf2:	f001 fdc1 	bl	800a878 <iprintf>
 8008cf6:	e7cb      	b.n	8008c90 <udp_input+0x10>
 8008cf8:	8a5a      	ldrh	r2, [r3, #18]
 8008cfa:	4562      	cmp	r2, ip
 8008cfc:	d124      	bne.n	8008d48 <udp_input+0xc8>
 8008cfe:	681a      	ldr	r2, [r3, #0]
 8008d00:	b1f7      	cbz	r7, 8008d40 <udp_input+0xc0>
 8008d02:	b13a      	cbz	r2, 8008d14 <udp_input+0x94>
 8008d04:	1c4e      	adds	r6, r1, #1
 8008d06:	d005      	beq.n	8008d14 <udp_input+0x94>
 8008d08:	404a      	eors	r2, r1
 8008d0a:	4616      	mov	r6, r2
 8008d0c:	f8d9 2008 	ldr.w	r2, [r9, #8]
 8008d10:	4216      	tst	r6, r2
 8008d12:	d119      	bne.n	8008d48 <udp_input+0xc8>
 8008d14:	7c1a      	ldrb	r2, [r3, #16]
 8008d16:	0752      	lsls	r2, r2, #29
 8008d18:	d402      	bmi.n	8008d20 <udp_input+0xa0>
 8008d1a:	2c00      	cmp	r4, #0
 8008d1c:	bf08      	it	eq
 8008d1e:	461c      	moveq	r4, r3
 8008d20:	8a9a      	ldrh	r2, [r3, #20]
 8008d22:	4542      	cmp	r2, r8
 8008d24:	d110      	bne.n	8008d48 <udp_input+0xc8>
 8008d26:	685a      	ldr	r2, [r3, #4]
 8008d28:	b10a      	cbz	r2, 8008d2e <udp_input+0xae>
 8008d2a:	455a      	cmp	r2, fp
 8008d2c:	d10c      	bne.n	8008d48 <udp_input+0xc8>
 8008d2e:	b128      	cbz	r0, 8008d3c <udp_input+0xbc>
 8008d30:	68da      	ldr	r2, [r3, #12]
 8008d32:	f8ca 3000 	str.w	r3, [sl]
 8008d36:	60c2      	str	r2, [r0, #12]
 8008d38:	f8c3 e00c 	str.w	lr, [r3, #12]
 8008d3c:	461c      	mov	r4, r3
 8008d3e:	e7cc      	b.n	8008cda <udp_input+0x5a>
 8008d40:	2a00      	cmp	r2, #0
 8008d42:	d0e7      	beq.n	8008d14 <udp_input+0x94>
 8008d44:	428a      	cmp	r2, r1
 8008d46:	d0e5      	beq.n	8008d14 <udp_input+0x94>
 8008d48:	4618      	mov	r0, r3
 8008d4a:	68db      	ldr	r3, [r3, #12]
 8008d4c:	e7bf      	b.n	8008cce <udp_input+0x4e>
 8008d4e:	b164      	cbz	r4, 8008d6a <udp_input+0xea>
 8008d50:	69a6      	ldr	r6, [r4, #24]
 8008d52:	2e00      	cmp	r6, #0
 8008d54:	d09c      	beq.n	8008c90 <udp_input+0x10>
 8008d56:	f8cd 8000 	str.w	r8, [sp]
 8008d5a:	462a      	mov	r2, r5
 8008d5c:	4621      	mov	r1, r4
 8008d5e:	4b12      	ldr	r3, [pc, #72]	; (8008da8 <udp_input+0x128>)
 8008d60:	69e0      	ldr	r0, [r4, #28]
 8008d62:	47b0      	blx	r6
 8008d64:	b005      	add	sp, #20
 8008d66:	e8bd 8ff0 	ldmia.w	sp!, {r4, r5, r6, r7, r8, r9, sl, fp, pc}
 8008d6a:	2f00      	cmp	r7, #0
 8008d6c:	d190      	bne.n	8008c90 <udp_input+0x10>
 8008d6e:	9b03      	ldr	r3, [sp, #12]
 8008d70:	695b      	ldr	r3, [r3, #20]
 8008d72:	f003 03f0 	and.w	r3, r3, #240	; 0xf0
 8008d76:	2be0      	cmp	r3, #224	; 0xe0
 8008d78:	d08a      	beq.n	8008c90 <udp_input+0x10>
 8008d7a:	9b03      	ldr	r3, [sp, #12]
 8008d7c:	4628      	mov	r0, r5
 8008d7e:	8999      	ldrh	r1, [r3, #12]
 8008d80:	3108      	adds	r1, #8
 8008d82:	b209      	sxth	r1, r1
 8008d84:	f7fc fe9b 	bl	8005abe <pbuf_header_force>
 8008d88:	2103      	movs	r1, #3
 8008d8a:	4628      	mov	r0, r5
 8008d8c:	f000 fdce 	bl	800992c <icmp_dest_unreach>
 8008d90:	e77e      	b.n	8008c90 <udp_input+0x10>
 8008d92:	bf00      	nop
 8008d94:	20003664 	.word	0x20003664
 8008d98:	20006ba4 	.word	0x20006ba4
 8008d9c:	0800cc1c 	.word	0x0800cc1c
 8008da0:	0800cc4b 	.word	0x0800cc4b
 8008da4:	0800bcae 	.word	0x0800bcae
 8008da8:	20003674 	.word	0x20003674

08008dac <udp_bind>:
 8008dac:	4b28      	ldr	r3, [pc, #160]	; (8008e50 <udp_bind+0xa4>)
 8008dae:	e92d 41f0 	stmdb	sp!, {r4, r5, r6, r7, r8, lr}
 8008db2:	2900      	cmp	r1, #0
 8008db4:	bf08      	it	eq
 8008db6:	4619      	moveq	r1, r3
 8008db8:	4605      	mov	r5, r0
 8008dba:	2800      	cmp	r0, #0
 8008dbc:	d044      	beq.n	8008e48 <udp_bind+0x9c>
 8008dbe:	4e25      	ldr	r6, [pc, #148]	; (8008e54 <udp_bind+0xa8>)
 8008dc0:	f8d6 c000 	ldr.w	ip, [r6]
 8008dc4:	4660      	mov	r0, ip
 8008dc6:	b9d0      	cbnz	r0, 8008dfe <udp_bind+0x52>
 8008dc8:	2a00      	cmp	r2, #0
 8008dca:	d139      	bne.n	8008e40 <udp_bind+0x94>
 8008dcc:	f44f 4480 	mov.w	r4, #16384	; 0x4000
 8008dd0:	f64f 7eff 	movw	lr, #65535	; 0xffff
 8008dd4:	4b20      	ldr	r3, [pc, #128]	; (8008e58 <udp_bind+0xac>)
 8008dd6:	881a      	ldrh	r2, [r3, #0]
 8008dd8:	4572      	cmp	r2, lr
 8008dda:	bf08      	it	eq
 8008ddc:	f44f 4240 	moveq.w	r2, #49152	; 0xc000
 8008de0:	4667      	mov	r7, ip
 8008de2:	bf1c      	itt	ne
 8008de4:	3201      	addne	r2, #1
 8008de6:	b292      	uxthne	r2, r2
 8008de8:	b97f      	cbnz	r7, 8008e0a <udp_bind+0x5e>
 8008dea:	801a      	strh	r2, [r3, #0]
 8008dec:	680b      	ldr	r3, [r1, #0]
 8008dee:	826a      	strh	r2, [r5, #18]
 8008df0:	602b      	str	r3, [r5, #0]
 8008df2:	bb38      	cbnz	r0, 8008e44 <udp_bind+0x98>
 8008df4:	f8c5 c00c 	str.w	ip, [r5, #12]
 8008df8:	6035      	str	r5, [r6, #0]
 8008dfa:	e8bd 81f0 	ldmia.w	sp!, {r4, r5, r6, r7, r8, pc}
 8008dfe:	42a8      	cmp	r0, r5
 8008e00:	d001      	beq.n	8008e06 <udp_bind+0x5a>
 8008e02:	68c0      	ldr	r0, [r0, #12]
 8008e04:	e7df      	b.n	8008dc6 <udp_bind+0x1a>
 8008e06:	2001      	movs	r0, #1
 8008e08:	e7de      	b.n	8008dc8 <udp_bind+0x1c>
 8008e0a:	f8b7 8012 	ldrh.w	r8, [r7, #18]
 8008e0e:	4590      	cmp	r8, r2
 8008e10:	d107      	bne.n	8008e22 <udp_bind+0x76>
 8008e12:	3c01      	subs	r4, #1
 8008e14:	b2a4      	uxth	r4, r4
 8008e16:	2c00      	cmp	r4, #0
 8008e18:	d1de      	bne.n	8008dd8 <udp_bind+0x2c>
 8008e1a:	801a      	strh	r2, [r3, #0]
 8008e1c:	f06f 0007 	mvn.w	r0, #7
 8008e20:	e7eb      	b.n	8008dfa <udp_bind+0x4e>
 8008e22:	68ff      	ldr	r7, [r7, #12]
 8008e24:	e7e0      	b.n	8008de8 <udp_bind+0x3c>
 8008e26:	42ab      	cmp	r3, r5
 8008e28:	d006      	beq.n	8008e38 <udp_bind+0x8c>
 8008e2a:	8a5c      	ldrh	r4, [r3, #18]
 8008e2c:	4294      	cmp	r4, r2
 8008e2e:	d103      	bne.n	8008e38 <udp_bind+0x8c>
 8008e30:	681f      	ldr	r7, [r3, #0]
 8008e32:	680c      	ldr	r4, [r1, #0]
 8008e34:	42a7      	cmp	r7, r4
 8008e36:	d0f1      	beq.n	8008e1c <udp_bind+0x70>
 8008e38:	68db      	ldr	r3, [r3, #12]
 8008e3a:	2b00      	cmp	r3, #0
 8008e3c:	d1f3      	bne.n	8008e26 <udp_bind+0x7a>
 8008e3e:	e7d5      	b.n	8008dec <udp_bind+0x40>
 8008e40:	4663      	mov	r3, ip
 8008e42:	e7fa      	b.n	8008e3a <udp_bind+0x8e>
 8008e44:	2000      	movs	r0, #0
 8008e46:	e7d8      	b.n	8008dfa <udp_bind+0x4e>
 8008e48:	f06f 0005 	mvn.w	r0, #5
 8008e4c:	e7d5      	b.n	8008dfa <udp_bind+0x4e>
 8008e4e:	bf00      	nop
 8008e50:	0800cf38 	.word	0x0800cf38
 8008e54:	20006ba4 	.word	0x20006ba4
 8008e58:	20000014 	.word	0x20000014

08008e5c <udp_sendto_if_src>:
 8008e5c:	e92d 43f0 	stmdb	sp!, {r4, r5, r6, r7, r8, r9, lr}
 8008e60:	460f      	mov	r7, r1
 8008e62:	4690      	mov	r8, r2
 8008e64:	4699      	mov	r9, r3
 8008e66:	4606      	mov	r6, r0
 8008e68:	b085      	sub	sp, #20
 8008e6a:	2800      	cmp	r0, #0
 8008e6c:	d050      	beq.n	8008f10 <udp_sendto_if_src+0xb4>
 8008e6e:	2a00      	cmp	r2, #0
 8008e70:	d04e      	beq.n	8008f10 <udp_sendto_if_src+0xb4>
 8008e72:	8a42      	ldrh	r2, [r0, #18]
 8008e74:	2a00      	cmp	r2, #0
 8008e76:	d033      	beq.n	8008ee0 <udp_sendto_if_src+0x84>
 8008e78:	2108      	movs	r1, #8
 8008e7a:	4638      	mov	r0, r7
 8008e7c:	f7fc fe1c 	bl	8005ab8 <pbuf_header>
 8008e80:	2800      	cmp	r0, #0
 8008e82:	d137      	bne.n	8008ef4 <udp_sendto_if_src+0x98>
 8008e84:	463d      	mov	r5, r7
 8008e86:	896b      	ldrh	r3, [r5, #10]
 8008e88:	2b07      	cmp	r3, #7
 8008e8a:	d806      	bhi.n	8008e9a <udp_sendto_if_src+0x3e>
 8008e8c:	f240 22db 	movw	r2, #731	; 0x2db
 8008e90:	4b22      	ldr	r3, [pc, #136]	; (8008f1c <udp_sendto_if_src+0xc0>)
 8008e92:	4923      	ldr	r1, [pc, #140]	; (8008f20 <udp_sendto_if_src+0xc4>)
 8008e94:	4823      	ldr	r0, [pc, #140]	; (8008f24 <udp_sendto_if_src+0xc8>)
 8008e96:	f001 fcef 	bl	800a878 <iprintf>
 8008e9a:	8a70      	ldrh	r0, [r6, #18]
 8008e9c:	686c      	ldr	r4, [r5, #4]
 8008e9e:	f7fc fa5b 	bl	8005358 <lwip_htons>
 8008ea2:	8020      	strh	r0, [r4, #0]
 8008ea4:	4648      	mov	r0, r9
 8008ea6:	f7fc fa57 	bl	8005358 <lwip_htons>
 8008eaa:	2300      	movs	r3, #0
 8008eac:	8060      	strh	r0, [r4, #2]
 8008eae:	71a3      	strb	r3, [r4, #6]
 8008eb0:	71e3      	strb	r3, [r4, #7]
 8008eb2:	8928      	ldrh	r0, [r5, #8]
 8008eb4:	f7fc fa50 	bl	8005358 <lwip_htons>
 8008eb8:	9b0c      	ldr	r3, [sp, #48]	; 0x30
 8008eba:	80a0      	strh	r0, [r4, #4]
 8008ebc:	9302      	str	r3, [sp, #8]
 8008ebe:	2311      	movs	r3, #17
 8008ec0:	9301      	str	r3, [sp, #4]
 8008ec2:	7a73      	ldrb	r3, [r6, #9]
 8008ec4:	4642      	mov	r2, r8
 8008ec6:	9300      	str	r3, [sp, #0]
 8008ec8:	4628      	mov	r0, r5
 8008eca:	7ab3      	ldrb	r3, [r6, #10]
 8008ecc:	990d      	ldr	r1, [sp, #52]	; 0x34
 8008ece:	f000 fe2d 	bl	8009b2c <ip4_output_if_src>
 8008ed2:	42bd      	cmp	r5, r7
 8008ed4:	4604      	mov	r4, r0
 8008ed6:	d009      	beq.n	8008eec <udp_sendto_if_src+0x90>
 8008ed8:	4628      	mov	r0, r5
 8008eda:	f7fc fdf3 	bl	8005ac4 <pbuf_free>
 8008ede:	e005      	b.n	8008eec <udp_sendto_if_src+0x90>
 8008ee0:	4601      	mov	r1, r0
 8008ee2:	f7ff ff63 	bl	8008dac <udp_bind>
 8008ee6:	4604      	mov	r4, r0
 8008ee8:	2800      	cmp	r0, #0
 8008eea:	d0c5      	beq.n	8008e78 <udp_sendto_if_src+0x1c>
 8008eec:	4620      	mov	r0, r4
 8008eee:	b005      	add	sp, #20
 8008ef0:	e8bd 83f0 	ldmia.w	sp!, {r4, r5, r6, r7, r8, r9, pc}
 8008ef4:	2200      	movs	r2, #0
 8008ef6:	2108      	movs	r1, #8
 8008ef8:	2001      	movs	r0, #1
 8008efa:	f7fc fe47 	bl	8005b8c <pbuf_alloc>
 8008efe:	4605      	mov	r5, r0
 8008f00:	b148      	cbz	r0, 8008f16 <udp_sendto_if_src+0xba>
 8008f02:	893b      	ldrh	r3, [r7, #8]
 8008f04:	2b00      	cmp	r3, #0
 8008f06:	d0be      	beq.n	8008e86 <udp_sendto_if_src+0x2a>
 8008f08:	4639      	mov	r1, r7
 8008f0a:	f7fc ffd9 	bl	8005ec0 <pbuf_chain>
 8008f0e:	e7ba      	b.n	8008e86 <udp_sendto_if_src+0x2a>
 8008f10:	f06f 0405 	mvn.w	r4, #5
 8008f14:	e7ea      	b.n	8008eec <udp_sendto_if_src+0x90>
 8008f16:	f04f 34ff 	mov.w	r4, #4294967295
 8008f1a:	e7e7      	b.n	8008eec <udp_sendto_if_src+0x90>
 8008f1c:	0800cc1c 	.word	0x0800cc1c
 8008f20:	0800cc5f 	.word	0x0800cc5f
 8008f24:	0800bcae 	.word	0x0800bcae

08008f28 <udp_sendto_if>:
 8008f28:	b573      	push	{r0, r1, r4, r5, r6, lr}
 8008f2a:	9c06      	ldr	r4, [sp, #24]
 8008f2c:	b190      	cbz	r0, 8008f54 <udp_sendto_if+0x2c>
 8008f2e:	b18a      	cbz	r2, 8008f54 <udp_sendto_if+0x2c>
 8008f30:	6805      	ldr	r5, [r0, #0]
 8008f32:	b11d      	cbz	r5, 8008f3c <udp_sendto_if+0x14>
 8008f34:	f005 06f0 	and.w	r6, r5, #240	; 0xf0
 8008f38:	2ee0      	cmp	r6, #224	; 0xe0
 8008f3a:	d106      	bne.n	8008f4a <udp_sendto_if+0x22>
 8008f3c:	1d25      	adds	r5, r4, #4
 8008f3e:	e9cd 4500 	strd	r4, r5, [sp]
 8008f42:	f7ff ff8b 	bl	8008e5c <udp_sendto_if_src>
 8008f46:	b002      	add	sp, #8
 8008f48:	bd70      	pop	{r4, r5, r6, pc}
 8008f4a:	6866      	ldr	r6, [r4, #4]
 8008f4c:	42b5      	cmp	r5, r6
 8008f4e:	d104      	bne.n	8008f5a <udp_sendto_if+0x32>
 8008f50:	4605      	mov	r5, r0
 8008f52:	e7f4      	b.n	8008f3e <udp_sendto_if+0x16>
 8008f54:	f06f 0005 	mvn.w	r0, #5
 8008f58:	e7f5      	b.n	8008f46 <udp_sendto_if+0x1e>
 8008f5a:	f06f 0003 	mvn.w	r0, #3
 8008f5e:	e7f2      	b.n	8008f46 <udp_sendto_if+0x1e>

08008f60 <udp_sendto>:
 8008f60:	b5f7      	push	{r0, r1, r2, r4, r5, r6, r7, lr}
 8008f62:	460e      	mov	r6, r1
 8008f64:	4614      	mov	r4, r2
 8008f66:	461f      	mov	r7, r3
 8008f68:	4605      	mov	r5, r0
 8008f6a:	b168      	cbz	r0, 8008f88 <udp_sendto+0x28>
 8008f6c:	b162      	cbz	r2, 8008f88 <udp_sendto+0x28>
 8008f6e:	4610      	mov	r0, r2
 8008f70:	f000 fce6 	bl	8009940 <ip4_route>
 8008f74:	b158      	cbz	r0, 8008f8e <udp_sendto+0x2e>
 8008f76:	9000      	str	r0, [sp, #0]
 8008f78:	463b      	mov	r3, r7
 8008f7a:	4622      	mov	r2, r4
 8008f7c:	4631      	mov	r1, r6
 8008f7e:	4628      	mov	r0, r5
 8008f80:	f7ff ffd2 	bl	8008f28 <udp_sendto_if>
 8008f84:	b003      	add	sp, #12
 8008f86:	bdf0      	pop	{r4, r5, r6, r7, pc}
 8008f88:	f06f 0005 	mvn.w	r0, #5
 8008f8c:	e7fa      	b.n	8008f84 <udp_sendto+0x24>
 8008f8e:	f06f 0003 	mvn.w	r0, #3
 8008f92:	e7f7      	b.n	8008f84 <udp_sendto+0x24>

08008f94 <udp_send>:
 8008f94:	4602      	mov	r2, r0
 8008f96:	b118      	cbz	r0, 8008fa0 <udp_send+0xc>
 8008f98:	8a83      	ldrh	r3, [r0, #20]
 8008f9a:	3204      	adds	r2, #4
 8008f9c:	f7ff bfe0 	b.w	8008f60 <udp_sendto>
 8008fa0:	f06f 0005 	mvn.w	r0, #5
 8008fa4:	4770      	bx	lr
	...

08008fa8 <udp_connect>:
 8008fa8:	b570      	push	{r4, r5, r6, lr}
 8008faa:	460d      	mov	r5, r1
 8008fac:	4616      	mov	r6, r2
 8008fae:	4604      	mov	r4, r0
 8008fb0:	b1d0      	cbz	r0, 8008fe8 <udp_connect+0x40>
 8008fb2:	b1c9      	cbz	r1, 8008fe8 <udp_connect+0x40>
 8008fb4:	8a42      	ldrh	r2, [r0, #18]
 8008fb6:	b16a      	cbz	r2, 8008fd4 <udp_connect+0x2c>
 8008fb8:	682b      	ldr	r3, [r5, #0]
 8008fba:	82a6      	strh	r6, [r4, #20]
 8008fbc:	6063      	str	r3, [r4, #4]
 8008fbe:	7c23      	ldrb	r3, [r4, #16]
 8008fc0:	f043 0304 	orr.w	r3, r3, #4
 8008fc4:	7423      	strb	r3, [r4, #16]
 8008fc6:	4b0b      	ldr	r3, [pc, #44]	; (8008ff4 <udp_connect+0x4c>)
 8008fc8:	681a      	ldr	r2, [r3, #0]
 8008fca:	4610      	mov	r0, r2
 8008fcc:	b940      	cbnz	r0, 8008fe0 <udp_connect+0x38>
 8008fce:	60e2      	str	r2, [r4, #12]
 8008fd0:	601c      	str	r4, [r3, #0]
 8008fd2:	e004      	b.n	8008fde <udp_connect+0x36>
 8008fd4:	4601      	mov	r1, r0
 8008fd6:	f7ff fee9 	bl	8008dac <udp_bind>
 8008fda:	2800      	cmp	r0, #0
 8008fdc:	d0ec      	beq.n	8008fb8 <udp_connect+0x10>
 8008fde:	bd70      	pop	{r4, r5, r6, pc}
 8008fe0:	42a0      	cmp	r0, r4
 8008fe2:	d004      	beq.n	8008fee <udp_connect+0x46>
 8008fe4:	68c0      	ldr	r0, [r0, #12]
 8008fe6:	e7f1      	b.n	8008fcc <udp_connect+0x24>
 8008fe8:	f06f 0005 	mvn.w	r0, #5
 8008fec:	e7f7      	b.n	8008fde <udp_connect+0x36>
 8008fee:	2000      	movs	r0, #0
 8008ff0:	e7f5      	b.n	8008fde <udp_connect+0x36>
 8008ff2:	bf00      	nop
 8008ff4:	20006ba4 	.word	0x20006ba4

08008ff8 <udp_disconnect>:
 8008ff8:	2300      	movs	r3, #0
 8008ffa:	6043      	str	r3, [r0, #4]
 8008ffc:	8283      	strh	r3, [r0, #20]
 8008ffe:	7c03      	ldrb	r3, [r0, #16]
 8009000:	f023 0304 	bic.w	r3, r3, #4
 8009004:	7403      	strb	r3, [r0, #16]
 8009006:	4770      	bx	lr

08009008 <udp_recv>:
 8009008:	e9c0 1206 	strd	r1, r2, [r0, #24]
 800900c:	4770      	bx	lr
	...

08009010 <udp_remove>:
 8009010:	4a0a      	ldr	r2, [pc, #40]	; (800903c <udp_remove+0x2c>)
 8009012:	4601      	mov	r1, r0
 8009014:	6813      	ldr	r3, [r2, #0]
 8009016:	4283      	cmp	r3, r0
 8009018:	d105      	bne.n	8009026 <udp_remove+0x16>
 800901a:	68c3      	ldr	r3, [r0, #12]
 800901c:	6013      	str	r3, [r2, #0]
 800901e:	2000      	movs	r0, #0
 8009020:	f7fc bbec 	b.w	80057fc <memp_free>
 8009024:	4613      	mov	r3, r2
 8009026:	2b00      	cmp	r3, #0
 8009028:	d0f9      	beq.n	800901e <udp_remove+0xe>
 800902a:	68da      	ldr	r2, [r3, #12]
 800902c:	2a00      	cmp	r2, #0
 800902e:	d0f6      	beq.n	800901e <udp_remove+0xe>
 8009030:	428a      	cmp	r2, r1
 8009032:	d1f7      	bne.n	8009024 <udp_remove+0x14>
 8009034:	68ca      	ldr	r2, [r1, #12]
 8009036:	60da      	str	r2, [r3, #12]
 8009038:	e7f1      	b.n	800901e <udp_remove+0xe>
 800903a:	bf00      	nop
 800903c:	20006ba4 	.word	0x20006ba4

08009040 <udp_new>:
 8009040:	b510      	push	{r4, lr}
 8009042:	2000      	movs	r0, #0
 8009044:	f7fc fbbe 	bl	80057c4 <memp_malloc>
 8009048:	4604      	mov	r4, r0
 800904a:	b128      	cbz	r0, 8009058 <udp_new+0x18>
 800904c:	2220      	movs	r2, #32
 800904e:	2100      	movs	r1, #0
 8009050:	f001 fb64 	bl	800a71c <memset>
 8009054:	23ff      	movs	r3, #255	; 0xff
 8009056:	72a3      	strb	r3, [r4, #10]
 8009058:	4620      	mov	r0, r4
 800905a:	bd10      	pop	{r4, pc}

0800905c <udp_netif_ip_addr_changed>:
 800905c:	b510      	push	{r4, lr}
 800905e:	b138      	cbz	r0, 8009070 <udp_netif_ip_addr_changed+0x14>
 8009060:	6803      	ldr	r3, [r0, #0]
 8009062:	b12b      	cbz	r3, 8009070 <udp_netif_ip_addr_changed+0x14>
 8009064:	b121      	cbz	r1, 8009070 <udp_netif_ip_addr_changed+0x14>
 8009066:	680b      	ldr	r3, [r1, #0]
 8009068:	b113      	cbz	r3, 8009070 <udp_netif_ip_addr_changed+0x14>
 800906a:	4b06      	ldr	r3, [pc, #24]	; (8009084 <udp_netif_ip_addr_changed+0x28>)
 800906c:	681b      	ldr	r3, [r3, #0]
 800906e:	b903      	cbnz	r3, 8009072 <udp_netif_ip_addr_changed+0x16>
 8009070:	bd10      	pop	{r4, pc}
 8009072:	681c      	ldr	r4, [r3, #0]
 8009074:	6802      	ldr	r2, [r0, #0]
 8009076:	4294      	cmp	r4, r2
 8009078:	bf04      	itt	eq
 800907a:	680a      	ldreq	r2, [r1, #0]
 800907c:	601a      	streq	r2, [r3, #0]
 800907e:	68db      	ldr	r3, [r3, #12]
 8009080:	e7f5      	b.n	800906e <udp_netif_ip_addr_changed+0x12>
 8009082:	bf00      	nop
 8009084:	20006ba4 	.word	0x20006ba4

08009088 <etharp_free_entry>:
 8009088:	b570      	push	{r4, r5, r6, lr}
 800908a:	2618      	movs	r6, #24
 800908c:	4346      	muls	r6, r0
 800908e:	4d07      	ldr	r5, [pc, #28]	; (80090ac <etharp_free_entry+0x24>)
 8009090:	4604      	mov	r4, r0
 8009092:	59a8      	ldr	r0, [r5, r6]
 8009094:	b118      	cbz	r0, 800909e <etharp_free_entry+0x16>
 8009096:	f7fc fd15 	bl	8005ac4 <pbuf_free>
 800909a:	2300      	movs	r3, #0
 800909c:	51ab      	str	r3, [r5, r6]
 800909e:	2018      	movs	r0, #24
 80090a0:	2300      	movs	r3, #0
 80090a2:	fb00 5404 	mla	r4, r0, r4, r5
 80090a6:	7523      	strb	r3, [r4, #20]
 80090a8:	bd70      	pop	{r4, r5, r6, pc}
 80090aa:	bf00      	nop
 80090ac:	20000458 	.word	0x20000458

080090b0 <etharp_raw>:
 80090b0:	e92d 47f3 	stmdb	sp!, {r0, r1, r4, r5, r6, r7, r8, r9, sl, lr}
 80090b4:	f8dd a02c 	ldr.w	sl, [sp, #44]	; 0x2c
 80090b8:	4688      	mov	r8, r1
 80090ba:	4691      	mov	r9, r2
 80090bc:	461e      	mov	r6, r3
 80090be:	4607      	mov	r7, r0
 80090c0:	b930      	cbnz	r0, 80090d0 <etharp_raw+0x20>
 80090c2:	f44f 628b 	mov.w	r2, #1112	; 0x458
 80090c6:	4b2c      	ldr	r3, [pc, #176]	; (8009178 <etharp_raw+0xc8>)
 80090c8:	492c      	ldr	r1, [pc, #176]	; (800917c <etharp_raw+0xcc>)
 80090ca:	482d      	ldr	r0, [pc, #180]	; (8009180 <etharp_raw+0xd0>)
 80090cc:	f001 fbd4 	bl	800a878 <iprintf>
 80090d0:	2200      	movs	r2, #0
 80090d2:	211c      	movs	r1, #28
 80090d4:	2002      	movs	r0, #2
 80090d6:	f7fc fd59 	bl	8005b8c <pbuf_alloc>
 80090da:	4605      	mov	r5, r0
 80090dc:	2800      	cmp	r0, #0
 80090de:	d047      	beq.n	8009170 <etharp_raw+0xc0>
 80090e0:	8943      	ldrh	r3, [r0, #10]
 80090e2:	2b1b      	cmp	r3, #27
 80090e4:	d806      	bhi.n	80090f4 <etharp_raw+0x44>
 80090e6:	f240 4263 	movw	r2, #1123	; 0x463
 80090ea:	4b23      	ldr	r3, [pc, #140]	; (8009178 <etharp_raw+0xc8>)
 80090ec:	4925      	ldr	r1, [pc, #148]	; (8009184 <etharp_raw+0xd4>)
 80090ee:	4824      	ldr	r0, [pc, #144]	; (8009180 <etharp_raw+0xd0>)
 80090f0:	f001 fbc2 	bl	800a878 <iprintf>
 80090f4:	f8bd 0034 	ldrh.w	r0, [sp, #52]	; 0x34
 80090f8:	686c      	ldr	r4, [r5, #4]
 80090fa:	f7fc f92d 	bl	8005358 <lwip_htons>
 80090fe:	80e0      	strh	r0, [r4, #6]
 8009100:	f897 3028 	ldrb.w	r3, [r7, #40]	; 0x28
 8009104:	2b06      	cmp	r3, #6
 8009106:	d006      	beq.n	8009116 <etharp_raw+0x66>
 8009108:	f240 426a 	movw	r2, #1130	; 0x46a
 800910c:	4b1a      	ldr	r3, [pc, #104]	; (8009178 <etharp_raw+0xc8>)
 800910e:	491e      	ldr	r1, [pc, #120]	; (8009188 <etharp_raw+0xd8>)
 8009110:	481b      	ldr	r0, [pc, #108]	; (8009180 <etharp_raw+0xd0>)
 8009112:	f001 fbb1 	bl	800a878 <iprintf>
 8009116:	6833      	ldr	r3, [r6, #0]
 8009118:	4642      	mov	r2, r8
 800911a:	60a3      	str	r3, [r4, #8]
 800911c:	88b3      	ldrh	r3, [r6, #4]
 800911e:	2600      	movs	r6, #0
 8009120:	81a3      	strh	r3, [r4, #12]
 8009122:	f8da 3000 	ldr.w	r3, [sl]
 8009126:	4629      	mov	r1, r5
 8009128:	f8c4 3012 	str.w	r3, [r4, #18]
 800912c:	f8ba 3004 	ldrh.w	r3, [sl, #4]
 8009130:	4638      	mov	r0, r7
 8009132:	82e3      	strh	r3, [r4, #22]
 8009134:	9b0a      	ldr	r3, [sp, #40]	; 0x28
 8009136:	681b      	ldr	r3, [r3, #0]
 8009138:	f8c4 300e 	str.w	r3, [r4, #14]
 800913c:	9b0c      	ldr	r3, [sp, #48]	; 0x30
 800913e:	681b      	ldr	r3, [r3, #0]
 8009140:	7026      	strb	r6, [r4, #0]
 8009142:	61a3      	str	r3, [r4, #24]
 8009144:	2301      	movs	r3, #1
 8009146:	7063      	strb	r3, [r4, #1]
 8009148:	2308      	movs	r3, #8
 800914a:	70a3      	strb	r3, [r4, #2]
 800914c:	2306      	movs	r3, #6
 800914e:	7123      	strb	r3, [r4, #4]
 8009150:	2304      	movs	r3, #4
 8009152:	7163      	strb	r3, [r4, #5]
 8009154:	f640 0306 	movw	r3, #2054	; 0x806
 8009158:	70e6      	strb	r6, [r4, #3]
 800915a:	9300      	str	r3, [sp, #0]
 800915c:	464b      	mov	r3, r9
 800915e:	f001 f975 	bl	800a44c <ethernet_output>
 8009162:	4628      	mov	r0, r5
 8009164:	f7fc fcae 	bl	8005ac4 <pbuf_free>
 8009168:	4630      	mov	r0, r6
 800916a:	b002      	add	sp, #8
 800916c:	e8bd 87f0 	ldmia.w	sp!, {r4, r5, r6, r7, r8, r9, sl, pc}
 8009170:	f04f 30ff 	mov.w	r0, #4294967295
 8009174:	e7f9      	b.n	800916a <etharp_raw+0xba>
 8009176:	bf00      	nop
 8009178:	0800cc8d 	.word	0x0800cc8d
 800917c:	0800bca0 	.word	0x0800bca0
 8009180:	0800bcae 	.word	0x0800bcae
 8009184:	0800ccc4 	.word	0x0800ccc4
 8009188:	0800ccf5 	.word	0x0800ccf5

0800918c <etharp_find_entry.isra.0>:
 800918c:	e92d 4ff7 	stmdb	sp!, {r0, r1, r2, r4, r5, r6, r7, r8, r9, sl, fp, lr}
 8009190:	2300      	movs	r3, #0
 8009192:	4604      	mov	r4, r0
 8009194:	200a      	movs	r0, #10
 8009196:	4a3d      	ldr	r2, [pc, #244]	; (800928c <etharp_find_entry.isra.0+0x100>)
 8009198:	9101      	str	r1, [sp, #4]
 800919a:	4686      	mov	lr, r0
 800919c:	4601      	mov	r1, r0
 800919e:	469a      	mov	sl, r3
 80091a0:	4699      	mov	r9, r3
 80091a2:	4698      	mov	r8, r3
 80091a4:	4684      	mov	ip, r0
 80091a6:	4615      	mov	r5, r2
 80091a8:	f1bc 0f0a 	cmp.w	ip, #10
 80091ac:	f892 b014 	ldrb.w	fp, [r2, #20]
 80091b0:	d12a      	bne.n	8009208 <etharp_find_entry.isra.0+0x7c>
 80091b2:	f1bb 0f00 	cmp.w	fp, #0
 80091b6:	d12a      	bne.n	800920e <etharp_find_entry.isra.0+0x82>
 80091b8:	fa4f fc83 	sxtb.w	ip, r3
 80091bc:	3301      	adds	r3, #1
 80091be:	2b0a      	cmp	r3, #10
 80091c0:	f102 0218 	add.w	r2, r2, #24
 80091c4:	d1f0      	bne.n	80091a8 <etharp_find_entry.isra.0+0x1c>
 80091c6:	9b01      	ldr	r3, [sp, #4]
 80091c8:	2b01      	cmp	r3, #1
 80091ca:	d15b      	bne.n	8009284 <etharp_find_entry.isra.0+0xf8>
 80091cc:	f1bc 0f0a 	cmp.w	ip, #10
 80091d0:	d03c      	beq.n	800924c <etharp_find_entry.isra.0+0xc0>
 80091d2:	fa5f f68c 	uxtb.w	r6, ip
 80091d6:	2318      	movs	r3, #24
 80091d8:	fb03 5306 	mla	r3, r3, r6, r5
 80091dc:	7d1b      	ldrb	r3, [r3, #20]
 80091de:	b133      	cbz	r3, 80091ee <etharp_find_entry.isra.0+0x62>
 80091e0:	f44f 72c3 	mov.w	r2, #390	; 0x186
 80091e4:	4b2a      	ldr	r3, [pc, #168]	; (8009290 <etharp_find_entry.isra.0+0x104>)
 80091e6:	492b      	ldr	r1, [pc, #172]	; (8009294 <etharp_find_entry.isra.0+0x108>)
 80091e8:	482b      	ldr	r0, [pc, #172]	; (8009298 <etharp_find_entry.isra.0+0x10c>)
 80091ea:	f001 fb45 	bl	800a878 <iprintf>
 80091ee:	b124      	cbz	r4, 80091fa <etharp_find_entry.isra.0+0x6e>
 80091f0:	2318      	movs	r3, #24
 80091f2:	fb03 5306 	mla	r3, r3, r6, r5
 80091f6:	6822      	ldr	r2, [r4, #0]
 80091f8:	605a      	str	r2, [r3, #4]
 80091fa:	2318      	movs	r3, #24
 80091fc:	fb03 5506 	mla	r5, r3, r6, r5
 8009200:	2300      	movs	r3, #0
 8009202:	b270      	sxtb	r0, r6
 8009204:	826b      	strh	r3, [r5, #18]
 8009206:	e008      	b.n	800921a <etharp_find_entry.isra.0+0x8e>
 8009208:	f1bb 0f00 	cmp.w	fp, #0
 800920c:	d0d6      	beq.n	80091bc <etharp_find_entry.isra.0+0x30>
 800920e:	b13c      	cbz	r4, 8009220 <etharp_find_entry.isra.0+0x94>
 8009210:	6827      	ldr	r7, [r4, #0]
 8009212:	6856      	ldr	r6, [r2, #4]
 8009214:	42b7      	cmp	r7, r6
 8009216:	d103      	bne.n	8009220 <etharp_find_entry.isra.0+0x94>
 8009218:	b258      	sxtb	r0, r3
 800921a:	b003      	add	sp, #12
 800921c:	e8bd 8ff0 	ldmia.w	sp!, {r4, r5, r6, r7, r8, r9, sl, fp, pc}
 8009220:	f1bb 0f01 	cmp.w	fp, #1
 8009224:	8a57      	ldrh	r7, [r2, #18]
 8009226:	d10c      	bne.n	8009242 <etharp_find_entry.isra.0+0xb6>
 8009228:	6816      	ldr	r6, [r2, #0]
 800922a:	b126      	cbz	r6, 8009236 <etharp_find_entry.isra.0+0xaa>
 800922c:	4547      	cmp	r7, r8
 800922e:	d3c5      	bcc.n	80091bc <etharp_find_entry.isra.0+0x30>
 8009230:	46b8      	mov	r8, r7
 8009232:	b258      	sxtb	r0, r3
 8009234:	e7c2      	b.n	80091bc <etharp_find_entry.isra.0+0x30>
 8009236:	454f      	cmp	r7, r9
 8009238:	d3c0      	bcc.n	80091bc <etharp_find_entry.isra.0+0x30>
 800923a:	46b9      	mov	r9, r7
 800923c:	fa4f fe83 	sxtb.w	lr, r3
 8009240:	e7bc      	b.n	80091bc <etharp_find_entry.isra.0+0x30>
 8009242:	4557      	cmp	r7, sl
 8009244:	bf24      	itt	cs
 8009246:	46ba      	movcs	sl, r7
 8009248:	b259      	sxtbcs	r1, r3
 800924a:	e7b7      	b.n	80091bc <etharp_find_entry.isra.0+0x30>
 800924c:	290a      	cmp	r1, #10
 800924e:	d00f      	beq.n	8009270 <etharp_find_entry.isra.0+0xe4>
 8009250:	2318      	movs	r3, #24
 8009252:	b2ce      	uxtb	r6, r1
 8009254:	4359      	muls	r1, r3
 8009256:	586b      	ldr	r3, [r5, r1]
 8009258:	b133      	cbz	r3, 8009268 <etharp_find_entry.isra.0+0xdc>
 800925a:	f240 126f 	movw	r2, #367	; 0x16f
 800925e:	4b0c      	ldr	r3, [pc, #48]	; (8009290 <etharp_find_entry.isra.0+0x104>)
 8009260:	490e      	ldr	r1, [pc, #56]	; (800929c <etharp_find_entry.isra.0+0x110>)
 8009262:	480d      	ldr	r0, [pc, #52]	; (8009298 <etharp_find_entry.isra.0+0x10c>)
 8009264:	f001 fb08 	bl	800a878 <iprintf>
 8009268:	4630      	mov	r0, r6
 800926a:	f7ff ff0d 	bl	8009088 <etharp_free_entry>
 800926e:	e7b2      	b.n	80091d6 <etharp_find_entry.isra.0+0x4a>
 8009270:	f1be 0f0a 	cmp.w	lr, #10
 8009274:	d002      	beq.n	800927c <etharp_find_entry.isra.0+0xf0>
 8009276:	fa5f f68e 	uxtb.w	r6, lr
 800927a:	e7f5      	b.n	8009268 <etharp_find_entry.isra.0+0xdc>
 800927c:	280a      	cmp	r0, #10
 800927e:	d001      	beq.n	8009284 <etharp_find_entry.isra.0+0xf8>
 8009280:	b2c6      	uxtb	r6, r0
 8009282:	e7f1      	b.n	8009268 <etharp_find_entry.isra.0+0xdc>
 8009284:	f04f 30ff 	mov.w	r0, #4294967295
 8009288:	e7c7      	b.n	800921a <etharp_find_entry.isra.0+0x8e>
 800928a:	bf00      	nop
 800928c:	20000458 	.word	0x20000458
 8009290:	0800cc8d 	.word	0x0800cc8d
 8009294:	0800cd4d 	.word	0x0800cd4d
 8009298:	0800bcae 	.word	0x0800bcae
 800929c:	0800cd36 	.word	0x0800cd36

080092a0 <etharp_cleanup_netif>:
 80092a0:	b570      	push	{r4, r5, r6, lr}
 80092a2:	4606      	mov	r6, r0
 80092a4:	2400      	movs	r4, #0
 80092a6:	4d07      	ldr	r5, [pc, #28]	; (80092c4 <etharp_cleanup_netif+0x24>)
 80092a8:	7d2b      	ldrb	r3, [r5, #20]
 80092aa:	b12b      	cbz	r3, 80092b8 <etharp_cleanup_netif+0x18>
 80092ac:	68ab      	ldr	r3, [r5, #8]
 80092ae:	42b3      	cmp	r3, r6
 80092b0:	d102      	bne.n	80092b8 <etharp_cleanup_netif+0x18>
 80092b2:	4620      	mov	r0, r4
 80092b4:	f7ff fee8 	bl	8009088 <etharp_free_entry>
 80092b8:	3401      	adds	r4, #1
 80092ba:	2c0a      	cmp	r4, #10
 80092bc:	f105 0518 	add.w	r5, r5, #24
 80092c0:	d1f2      	bne.n	80092a8 <etharp_cleanup_netif+0x8>
 80092c2:	bd70      	pop	{r4, r5, r6, pc}
 80092c4:	20000458 	.word	0x20000458

080092c8 <etharp_input>:
 80092c8:	e92d 47f0 	stmdb	sp!, {r4, r5, r6, r7, r8, r9, sl, lr}
 80092cc:	4607      	mov	r7, r0
 80092ce:	460c      	mov	r4, r1
 80092d0:	b086      	sub	sp, #24
 80092d2:	b949      	cbnz	r1, 80092e8 <etharp_input+0x20>
 80092d4:	f44f 7222 	mov.w	r2, #648	; 0x288
 80092d8:	4b43      	ldr	r3, [pc, #268]	; (80093e8 <etharp_input+0x120>)
 80092da:	4944      	ldr	r1, [pc, #272]	; (80093ec <etharp_input+0x124>)
 80092dc:	4844      	ldr	r0, [pc, #272]	; (80093f0 <etharp_input+0x128>)
 80092de:	f001 facb 	bl	800a878 <iprintf>
 80092e2:	b006      	add	sp, #24
 80092e4:	e8bd 87f0 	ldmia.w	sp!, {r4, r5, r6, r7, r8, r9, sl, pc}
 80092e8:	6845      	ldr	r5, [r0, #4]
 80092ea:	882b      	ldrh	r3, [r5, #0]
 80092ec:	f5b3 7f80 	cmp.w	r3, #256	; 0x100
 80092f0:	d108      	bne.n	8009304 <etharp_input+0x3c>
 80092f2:	792b      	ldrb	r3, [r5, #4]
 80092f4:	2b06      	cmp	r3, #6
 80092f6:	d105      	bne.n	8009304 <etharp_input+0x3c>
 80092f8:	796b      	ldrb	r3, [r5, #5]
 80092fa:	2b04      	cmp	r3, #4
 80092fc:	d102      	bne.n	8009304 <etharp_input+0x3c>
 80092fe:	886b      	ldrh	r3, [r5, #2]
 8009300:	2b08      	cmp	r3, #8
 8009302:	d003      	beq.n	800930c <etharp_input+0x44>
 8009304:	4638      	mov	r0, r7
 8009306:	f7fc fbdd 	bl	8005ac4 <pbuf_free>
 800930a:	e7ea      	b.n	80092e2 <etharp_input+0x1a>
 800930c:	f8d5 300e 	ldr.w	r3, [r5, #14]
 8009310:	684e      	ldr	r6, [r1, #4]
 8009312:	9305      	str	r3, [sp, #20]
 8009314:	f105 0808 	add.w	r8, r5, #8
 8009318:	69ab      	ldr	r3, [r5, #24]
 800931a:	2e00      	cmp	r6, #0
 800931c:	d061      	beq.n	80093e2 <etharp_input+0x11a>
 800931e:	1af3      	subs	r3, r6, r3
 8009320:	425e      	negs	r6, r3
 8009322:	415e      	adcs	r6, r3
 8009324:	f1c6 0a02 	rsb	sl, r6, #2
 8009328:	fa5f fa8a 	uxtb.w	sl, sl
 800932c:	f894 3028 	ldrb.w	r3, [r4, #40]	; 0x28
 8009330:	2b06      	cmp	r3, #6
 8009332:	d006      	beq.n	8009342 <etharp_input+0x7a>
 8009334:	f240 12ab 	movw	r2, #427	; 0x1ab
 8009338:	4b2b      	ldr	r3, [pc, #172]	; (80093e8 <etharp_input+0x120>)
 800933a:	492e      	ldr	r1, [pc, #184]	; (80093f4 <etharp_input+0x12c>)
 800933c:	482c      	ldr	r0, [pc, #176]	; (80093f0 <etharp_input+0x128>)
 800933e:	f001 fa9b 	bl	800a878 <iprintf>
 8009342:	9805      	ldr	r0, [sp, #20]
 8009344:	b3c0      	cbz	r0, 80093b8 <etharp_input+0xf0>
 8009346:	4621      	mov	r1, r4
 8009348:	f000 fc79 	bl	8009c3e <ip4_addr_isbroadcast_u32>
 800934c:	4681      	mov	r9, r0
 800934e:	bb98      	cbnz	r0, 80093b8 <etharp_input+0xf0>
 8009350:	9b05      	ldr	r3, [sp, #20]
 8009352:	f003 03f0 	and.w	r3, r3, #240	; 0xf0
 8009356:	2be0      	cmp	r3, #224	; 0xe0
 8009358:	d02e      	beq.n	80093b8 <etharp_input+0xf0>
 800935a:	4651      	mov	r1, sl
 800935c:	a805      	add	r0, sp, #20
 800935e:	f7ff ff15 	bl	800918c <etharp_find_entry.isra.0>
 8009362:	2800      	cmp	r0, #0
 8009364:	db28      	blt.n	80093b8 <etharp_input+0xf0>
 8009366:	2318      	movs	r3, #24
 8009368:	4343      	muls	r3, r0
 800936a:	2002      	movs	r0, #2
 800936c:	4a22      	ldr	r2, [pc, #136]	; (80093f8 <etharp_input+0x130>)
 800936e:	f103 0c0c 	add.w	ip, r3, #12
 8009372:	18d1      	adds	r1, r2, r3
 8009374:	7508      	strb	r0, [r1, #20]
 8009376:	608c      	str	r4, [r1, #8]
 8009378:	f8d8 0000 	ldr.w	r0, [r8]
 800937c:	eb02 0e0c 	add.w	lr, r2, ip
 8009380:	f842 000c 	str.w	r0, [r2, ip]
 8009384:	f8b8 0004 	ldrh.w	r0, [r8, #4]
 8009388:	f8ae 0004 	strh.w	r0, [lr, #4]
 800938c:	f852 a003 	ldr.w	sl, [r2, r3]
 8009390:	f8a1 9012 	strh.w	r9, [r1, #18]
 8009394:	f1ba 0f00 	cmp.w	sl, #0
 8009398:	d00e      	beq.n	80093b8 <etharp_input+0xf0>
 800939a:	f842 9003 	str.w	r9, [r2, r3]
 800939e:	f44f 6300 	mov.w	r3, #2048	; 0x800
 80093a2:	4651      	mov	r1, sl
 80093a4:	9300      	str	r3, [sp, #0]
 80093a6:	4620      	mov	r0, r4
 80093a8:	4643      	mov	r3, r8
 80093aa:	f104 0229 	add.w	r2, r4, #41	; 0x29
 80093ae:	f001 f84d 	bl	800a44c <ethernet_output>
 80093b2:	4650      	mov	r0, sl
 80093b4:	f7fc fb86 	bl	8005ac4 <pbuf_free>
 80093b8:	88eb      	ldrh	r3, [r5, #6]
 80093ba:	f5b3 7f80 	cmp.w	r3, #256	; 0x100
 80093be:	d1a1      	bne.n	8009304 <etharp_input+0x3c>
 80093c0:	2e00      	cmp	r6, #0
 80093c2:	d09f      	beq.n	8009304 <etharp_input+0x3c>
 80093c4:	2202      	movs	r2, #2
 80093c6:	9203      	str	r2, [sp, #12]
 80093c8:	aa05      	add	r2, sp, #20
 80093ca:	e9cd 8201 	strd	r8, r2, [sp, #4]
 80093ce:	f104 0329 	add.w	r3, r4, #41	; 0x29
 80093d2:	1d22      	adds	r2, r4, #4
 80093d4:	9200      	str	r2, [sp, #0]
 80093d6:	4619      	mov	r1, r3
 80093d8:	4642      	mov	r2, r8
 80093da:	4620      	mov	r0, r4
 80093dc:	f7ff fe68 	bl	80090b0 <etharp_raw>
 80093e0:	e790      	b.n	8009304 <etharp_input+0x3c>
 80093e2:	f04f 0a02 	mov.w	sl, #2
 80093e6:	e7a1      	b.n	800932c <etharp_input+0x64>
 80093e8:	0800cc8d 	.word	0x0800cc8d
 80093ec:	0800bca0 	.word	0x0800bca0
 80093f0:	0800bcae 	.word	0x0800bcae
 80093f4:	0800cd95 	.word	0x0800cd95
 80093f8:	20000458 	.word	0x20000458

080093fc <etharp_request>:
 80093fc:	b51f      	push	{r0, r1, r2, r3, r4, lr}
 80093fe:	2401      	movs	r4, #1
 8009400:	4602      	mov	r2, r0
 8009402:	e9cd 1402 	strd	r1, r4, [sp, #8]
 8009406:	4906      	ldr	r1, [pc, #24]	; (8009420 <etharp_request+0x24>)
 8009408:	f100 0329 	add.w	r3, r0, #41	; 0x29
 800940c:	3204      	adds	r2, #4
 800940e:	9101      	str	r1, [sp, #4]
 8009410:	9200      	str	r2, [sp, #0]
 8009412:	4619      	mov	r1, r3
 8009414:	4a03      	ldr	r2, [pc, #12]	; (8009424 <etharp_request+0x28>)
 8009416:	f7ff fe4b 	bl	80090b0 <etharp_raw>
 800941a:	b004      	add	sp, #16
 800941c:	bd10      	pop	{r4, pc}
 800941e:	bf00      	nop
 8009420:	0800d141 	.word	0x0800d141
 8009424:	0800d13b 	.word	0x0800d13b

08009428 <etharp_tmr>:
 8009428:	b5f8      	push	{r3, r4, r5, r6, r7, lr}
 800942a:	2500      	movs	r5, #0
 800942c:	2602      	movs	r6, #2
 800942e:	2704      	movs	r7, #4
 8009430:	4c11      	ldr	r4, [pc, #68]	; (8009478 <etharp_tmr+0x50>)
 8009432:	7d22      	ldrb	r2, [r4, #20]
 8009434:	b16a      	cbz	r2, 8009452 <etharp_tmr+0x2a>
 8009436:	8a63      	ldrh	r3, [r4, #18]
 8009438:	3301      	adds	r3, #1
 800943a:	b29b      	uxth	r3, r3
 800943c:	f5b3 7f96 	cmp.w	r3, #300	; 0x12c
 8009440:	8263      	strh	r3, [r4, #18]
 8009442:	d203      	bcs.n	800944c <etharp_tmr+0x24>
 8009444:	2a01      	cmp	r2, #1
 8009446:	d10a      	bne.n	800945e <etharp_tmr+0x36>
 8009448:	2b04      	cmp	r3, #4
 800944a:	d910      	bls.n	800946e <etharp_tmr+0x46>
 800944c:	4628      	mov	r0, r5
 800944e:	f7ff fe1b 	bl	8009088 <etharp_free_entry>
 8009452:	3501      	adds	r5, #1
 8009454:	2d0a      	cmp	r5, #10
 8009456:	f104 0418 	add.w	r4, r4, #24
 800945a:	d1ea      	bne.n	8009432 <etharp_tmr+0xa>
 800945c:	bdf8      	pop	{r3, r4, r5, r6, r7, pc}
 800945e:	2a03      	cmp	r2, #3
 8009460:	d101      	bne.n	8009466 <etharp_tmr+0x3e>
 8009462:	7527      	strb	r7, [r4, #20]
 8009464:	e7f5      	b.n	8009452 <etharp_tmr+0x2a>
 8009466:	2a04      	cmp	r2, #4
 8009468:	d1f3      	bne.n	8009452 <etharp_tmr+0x2a>
 800946a:	7526      	strb	r6, [r4, #20]
 800946c:	e7f1      	b.n	8009452 <etharp_tmr+0x2a>
 800946e:	68a0      	ldr	r0, [r4, #8]
 8009470:	1d21      	adds	r1, r4, #4
 8009472:	f7ff ffc3 	bl	80093fc <etharp_request>
 8009476:	e7ec      	b.n	8009452 <etharp_tmr+0x2a>
 8009478:	20000458 	.word	0x20000458

0800947c <etharp_output_to_arp_index>:
 800947c:	e92d 47ff 	stmdb	sp!, {r0, r1, r2, r3, r4, r5, r6, r7, r8, r9, sl, lr}
 8009480:	2318      	movs	r3, #24
 8009482:	4d23      	ldr	r5, [pc, #140]	; (8009510 <etharp_output_to_arp_index+0x94>)
 8009484:	4606      	mov	r6, r0
 8009486:	fb03 5302 	mla	r3, r3, r2, r5
 800948a:	7d1b      	ldrb	r3, [r3, #20]
 800948c:	4688      	mov	r8, r1
 800948e:	2b01      	cmp	r3, #1
 8009490:	4614      	mov	r4, r2
 8009492:	d806      	bhi.n	80094a2 <etharp_output_to_arp_index+0x26>
 8009494:	f44f 723b 	mov.w	r2, #748	; 0x2ec
 8009498:	4b1e      	ldr	r3, [pc, #120]	; (8009514 <etharp_output_to_arp_index+0x98>)
 800949a:	491f      	ldr	r1, [pc, #124]	; (8009518 <etharp_output_to_arp_index+0x9c>)
 800949c:	481f      	ldr	r0, [pc, #124]	; (800951c <etharp_output_to_arp_index+0xa0>)
 800949e:	f001 f9eb 	bl	800a878 <iprintf>
 80094a2:	2318      	movs	r3, #24
 80094a4:	435c      	muls	r4, r3
 80094a6:	192f      	adds	r7, r5, r4
 80094a8:	7d3b      	ldrb	r3, [r7, #20]
 80094aa:	f104 0a0c 	add.w	sl, r4, #12
 80094ae:	2b02      	cmp	r3, #2
 80094b0:	44aa      	add	sl, r5
 80094b2:	f106 0929 	add.w	r9, r6, #41	; 0x29
 80094b6:	d10b      	bne.n	80094d0 <etharp_output_to_arp_index+0x54>
 80094b8:	8a7b      	ldrh	r3, [r7, #18]
 80094ba:	f5b3 7f8e 	cmp.w	r3, #284	; 0x11c
 80094be:	d913      	bls.n	80094e8 <etharp_output_to_arp_index+0x6c>
 80094c0:	3404      	adds	r4, #4
 80094c2:	4630      	mov	r0, r6
 80094c4:	1929      	adds	r1, r5, r4
 80094c6:	f7ff ff99 	bl	80093fc <etharp_request>
 80094ca:	b908      	cbnz	r0, 80094d0 <etharp_output_to_arp_index+0x54>
 80094cc:	2303      	movs	r3, #3
 80094ce:	753b      	strb	r3, [r7, #20]
 80094d0:	f44f 6300 	mov.w	r3, #2048	; 0x800
 80094d4:	464a      	mov	r2, r9
 80094d6:	9300      	str	r3, [sp, #0]
 80094d8:	4641      	mov	r1, r8
 80094da:	4653      	mov	r3, sl
 80094dc:	4630      	mov	r0, r6
 80094de:	f000 ffb5 	bl	800a44c <ethernet_output>
 80094e2:	b004      	add	sp, #16
 80094e4:	e8bd 87f0 	ldmia.w	sp!, {r4, r5, r6, r7, r8, r9, sl, pc}
 80094e8:	f5b3 7f87 	cmp.w	r3, #270	; 0x10e
 80094ec:	d3f0      	bcc.n	80094d0 <etharp_output_to_arp_index+0x54>
 80094ee:	2301      	movs	r3, #1
 80094f0:	9303      	str	r3, [sp, #12]
 80094f2:	4b0b      	ldr	r3, [pc, #44]	; (8009520 <etharp_output_to_arp_index+0xa4>)
 80094f4:	3404      	adds	r4, #4
 80094f6:	442c      	add	r4, r5
 80094f8:	9301      	str	r3, [sp, #4]
 80094fa:	1d33      	adds	r3, r6, #4
 80094fc:	9300      	str	r3, [sp, #0]
 80094fe:	4652      	mov	r2, sl
 8009500:	464b      	mov	r3, r9
 8009502:	4649      	mov	r1, r9
 8009504:	4630      	mov	r0, r6
 8009506:	9402      	str	r4, [sp, #8]
 8009508:	f7ff fdd2 	bl	80090b0 <etharp_raw>
 800950c:	e7dd      	b.n	80094ca <etharp_output_to_arp_index+0x4e>
 800950e:	bf00      	nop
 8009510:	20000458 	.word	0x20000458
 8009514:	0800cc8d 	.word	0x0800cc8d
 8009518:	0800cdb9 	.word	0x0800cdb9
 800951c:	0800bcae 	.word	0x0800bcae
 8009520:	0800d141 	.word	0x0800d141

08009524 <etharp_query>:
 8009524:	e92d 47f3 	stmdb	sp!, {r0, r1, r4, r5, r6, r7, r8, r9, sl, lr}
 8009528:	4688      	mov	r8, r1
 800952a:	4606      	mov	r6, r0
 800952c:	4601      	mov	r1, r0
 800952e:	f8d8 0000 	ldr.w	r0, [r8]
 8009532:	4615      	mov	r5, r2
 8009534:	f000 fb83 	bl	8009c3e <ip4_addr_isbroadcast_u32>
 8009538:	2800      	cmp	r0, #0
 800953a:	d14b      	bne.n	80095d4 <etharp_query+0xb0>
 800953c:	f8d8 3000 	ldr.w	r3, [r8]
 8009540:	f003 02f0 	and.w	r2, r3, #240	; 0xf0
 8009544:	2ae0      	cmp	r2, #224	; 0xe0
 8009546:	d045      	beq.n	80095d4 <etharp_query+0xb0>
 8009548:	2b00      	cmp	r3, #0
 800954a:	d043      	beq.n	80095d4 <etharp_query+0xb0>
 800954c:	2101      	movs	r1, #1
 800954e:	4640      	mov	r0, r8
 8009550:	f7ff fe1c 	bl	800918c <etharp_find_entry.isra.0>
 8009554:	1e04      	subs	r4, r0, #0
 8009556:	db40      	blt.n	80095da <etharp_query+0xb6>
 8009558:	2318      	movs	r3, #24
 800955a:	4f36      	ldr	r7, [pc, #216]	; (8009634 <etharp_query+0x110>)
 800955c:	fb03 7304 	mla	r3, r3, r4, r7
 8009560:	7d1a      	ldrb	r2, [r3, #20]
 8009562:	2a00      	cmp	r2, #0
 8009564:	d14d      	bne.n	8009602 <etharp_query+0xde>
 8009566:	2201      	movs	r2, #1
 8009568:	609e      	str	r6, [r3, #8]
 800956a:	751a      	strb	r2, [r3, #20]
 800956c:	4641      	mov	r1, r8
 800956e:	4630      	mov	r0, r6
 8009570:	f7ff ff44 	bl	80093fc <etharp_request>
 8009574:	2d00      	cmp	r5, #0
 8009576:	d148      	bne.n	800960a <etharp_query+0xe6>
 8009578:	b002      	add	sp, #8
 800957a:	e8bd 87f0 	ldmia.w	sp!, {r4, r5, r6, r7, r8, r9, sl, pc}
 800957e:	d1fb      	bne.n	8009578 <etharp_query+0x54>
 8009580:	462e      	mov	r6, r5
 8009582:	f8df 80b8 	ldr.w	r8, [pc, #184]	; 800963c <etharp_query+0x118>
 8009586:	f8df 90b8 	ldr.w	r9, [pc, #184]	; 8009640 <etharp_query+0x11c>
 800958a:	f8df a0b8 	ldr.w	sl, [pc, #184]	; 8009644 <etharp_query+0x120>
 800958e:	8972      	ldrh	r2, [r6, #10]
 8009590:	8933      	ldrh	r3, [r6, #8]
 8009592:	429a      	cmp	r2, r3
 8009594:	d108      	bne.n	80095a8 <etharp_query+0x84>
 8009596:	6833      	ldr	r3, [r6, #0]
 8009598:	b133      	cbz	r3, 80095a8 <etharp_query+0x84>
 800959a:	4643      	mov	r3, r8
 800959c:	f44f 727b 	mov.w	r2, #1004	; 0x3ec
 80095a0:	4649      	mov	r1, r9
 80095a2:	4650      	mov	r0, sl
 80095a4:	f001 f968 	bl	800a878 <iprintf>
 80095a8:	7b33      	ldrb	r3, [r6, #12]
 80095aa:	2b01      	cmp	r3, #1
 80095ac:	d117      	bne.n	80095de <etharp_query+0xba>
 80095ae:	6836      	ldr	r6, [r6, #0]
 80095b0:	2e00      	cmp	r6, #0
 80095b2:	d1ec      	bne.n	800958e <etharp_query+0x6a>
 80095b4:	4628      	mov	r0, r5
 80095b6:	f7fc fc35 	bl	8005e24 <pbuf_ref>
 80095ba:	462e      	mov	r6, r5
 80095bc:	2318      	movs	r3, #24
 80095be:	fb03 f204 	mul.w	r2, r3, r4
 80095c2:	58b8      	ldr	r0, [r7, r2]
 80095c4:	461d      	mov	r5, r3
 80095c6:	b108      	cbz	r0, 80095cc <etharp_query+0xa8>
 80095c8:	f7fc fa7c 	bl	8005ac4 <pbuf_free>
 80095cc:	436c      	muls	r4, r5
 80095ce:	2000      	movs	r0, #0
 80095d0:	513e      	str	r6, [r7, r4]
 80095d2:	e7d1      	b.n	8009578 <etharp_query+0x54>
 80095d4:	f06f 000f 	mvn.w	r0, #15
 80095d8:	e7ce      	b.n	8009578 <etharp_query+0x54>
 80095da:	4620      	mov	r0, r4
 80095dc:	e7cc      	b.n	8009578 <etharp_query+0x54>
 80095de:	8931      	ldrh	r1, [r6, #8]
 80095e0:	2200      	movs	r2, #0
 80095e2:	2002      	movs	r0, #2
 80095e4:	f7fc fad2 	bl	8005b8c <pbuf_alloc>
 80095e8:	4606      	mov	r6, r0
 80095ea:	b138      	cbz	r0, 80095fc <etharp_query+0xd8>
 80095ec:	4629      	mov	r1, r5
 80095ee:	f7fc fc71 	bl	8005ed4 <pbuf_copy>
 80095f2:	2800      	cmp	r0, #0
 80095f4:	d0e2      	beq.n	80095bc <etharp_query+0x98>
 80095f6:	4630      	mov	r0, r6
 80095f8:	f7fc fa64 	bl	8005ac4 <pbuf_free>
 80095fc:	f04f 30ff 	mov.w	r0, #4294967295
 8009600:	e7ba      	b.n	8009578 <etharp_query+0x54>
 8009602:	2d00      	cmp	r5, #0
 8009604:	d0b2      	beq.n	800956c <etharp_query+0x48>
 8009606:	f04f 30ff 	mov.w	r0, #4294967295
 800960a:	2318      	movs	r3, #24
 800960c:	4363      	muls	r3, r4
 800960e:	18fa      	adds	r2, r7, r3
 8009610:	7d12      	ldrb	r2, [r2, #20]
 8009612:	2a01      	cmp	r2, #1
 8009614:	d9b3      	bls.n	800957e <etharp_query+0x5a>
 8009616:	4a08      	ldr	r2, [pc, #32]	; (8009638 <etharp_query+0x114>)
 8009618:	330c      	adds	r3, #12
 800961a:	7014      	strb	r4, [r2, #0]
 800961c:	f44f 6200 	mov.w	r2, #2048	; 0x800
 8009620:	4629      	mov	r1, r5
 8009622:	9200      	str	r2, [sp, #0]
 8009624:	4630      	mov	r0, r6
 8009626:	443b      	add	r3, r7
 8009628:	f106 0229 	add.w	r2, r6, #41	; 0x29
 800962c:	f000 ff0e 	bl	800a44c <ethernet_output>
 8009630:	e7a2      	b.n	8009578 <etharp_query+0x54>
 8009632:	bf00      	nop
 8009634:	20000458 	.word	0x20000458
 8009638:	20000548 	.word	0x20000548
 800963c:	0800cc8d 	.word	0x0800cc8d
 8009640:	0800cde9 	.word	0x0800cde9
 8009644:	0800bcae 	.word	0x0800bcae

08009648 <etharp_output>:
 8009648:	b5f0      	push	{r4, r5, r6, r7, lr}
 800964a:	460e      	mov	r6, r1
 800964c:	4615      	mov	r5, r2
 800964e:	4604      	mov	r4, r0
 8009650:	b085      	sub	sp, #20
 8009652:	b930      	cbnz	r0, 8009662 <etharp_output+0x1a>
 8009654:	f240 321b 	movw	r2, #795	; 0x31b
 8009658:	4b3c      	ldr	r3, [pc, #240]	; (800974c <etharp_output+0x104>)
 800965a:	493d      	ldr	r1, [pc, #244]	; (8009750 <etharp_output+0x108>)
 800965c:	483d      	ldr	r0, [pc, #244]	; (8009754 <etharp_output+0x10c>)
 800965e:	f001 f90b 	bl	800a878 <iprintf>
 8009662:	b936      	cbnz	r6, 8009672 <etharp_output+0x2a>
 8009664:	f44f 7247 	mov.w	r2, #796	; 0x31c
 8009668:	4b38      	ldr	r3, [pc, #224]	; (800974c <etharp_output+0x104>)
 800966a:	493b      	ldr	r1, [pc, #236]	; (8009758 <etharp_output+0x110>)
 800966c:	4839      	ldr	r0, [pc, #228]	; (8009754 <etharp_output+0x10c>)
 800966e:	f001 f903 	bl	800a878 <iprintf>
 8009672:	b935      	cbnz	r5, 8009682 <etharp_output+0x3a>
 8009674:	f240 321d 	movw	r2, #797	; 0x31d
 8009678:	4b34      	ldr	r3, [pc, #208]	; (800974c <etharp_output+0x104>)
 800967a:	4938      	ldr	r1, [pc, #224]	; (800975c <etharp_output+0x114>)
 800967c:	4835      	ldr	r0, [pc, #212]	; (8009754 <etharp_output+0x10c>)
 800967e:	f001 f8fb 	bl	800a878 <iprintf>
 8009682:	4621      	mov	r1, r4
 8009684:	6828      	ldr	r0, [r5, #0]
 8009686:	f000 fada 	bl	8009c3e <ip4_addr_isbroadcast_u32>
 800968a:	2800      	cmp	r0, #0
 800968c:	d159      	bne.n	8009742 <etharp_output+0xfa>
 800968e:	682b      	ldr	r3, [r5, #0]
 8009690:	f003 02f0 	and.w	r2, r3, #240	; 0xf0
 8009694:	2ae0      	cmp	r2, #224	; 0xe0
 8009696:	d11b      	bne.n	80096d0 <etharp_output+0x88>
 8009698:	2301      	movs	r3, #1
 800969a:	f8ad 3008 	strh.w	r3, [sp, #8]
 800969e:	235e      	movs	r3, #94	; 0x5e
 80096a0:	f88d 300a 	strb.w	r3, [sp, #10]
 80096a4:	786b      	ldrb	r3, [r5, #1]
 80096a6:	f003 037f 	and.w	r3, r3, #127	; 0x7f
 80096aa:	f88d 300b 	strb.w	r3, [sp, #11]
 80096ae:	78ab      	ldrb	r3, [r5, #2]
 80096b0:	f88d 300c 	strb.w	r3, [sp, #12]
 80096b4:	78eb      	ldrb	r3, [r5, #3]
 80096b6:	f88d 300d 	strb.w	r3, [sp, #13]
 80096ba:	ab02      	add	r3, sp, #8
 80096bc:	f44f 6200 	mov.w	r2, #2048	; 0x800
 80096c0:	4631      	mov	r1, r6
 80096c2:	9200      	str	r2, [sp, #0]
 80096c4:	4620      	mov	r0, r4
 80096c6:	f104 0229 	add.w	r2, r4, #41	; 0x29
 80096ca:	f000 febf 	bl	800a44c <ethernet_output>
 80096ce:	e01f      	b.n	8009710 <etharp_output+0xc8>
 80096d0:	6862      	ldr	r2, [r4, #4]
 80096d2:	68a1      	ldr	r1, [r4, #8]
 80096d4:	405a      	eors	r2, r3
 80096d6:	420a      	tst	r2, r1
 80096d8:	d008      	beq.n	80096ec <etharp_output+0xa4>
 80096da:	f64f 62a9 	movw	r2, #65193	; 0xfea9
 80096de:	b29b      	uxth	r3, r3
 80096e0:	4293      	cmp	r3, r2
 80096e2:	d003      	beq.n	80096ec <etharp_output+0xa4>
 80096e4:	68e3      	ldr	r3, [r4, #12]
 80096e6:	b373      	cbz	r3, 8009746 <etharp_output+0xfe>
 80096e8:	f104 050c 	add.w	r5, r4, #12
 80096ec:	2018      	movs	r0, #24
 80096ee:	4b1c      	ldr	r3, [pc, #112]	; (8009760 <etharp_output+0x118>)
 80096f0:	491c      	ldr	r1, [pc, #112]	; (8009764 <etharp_output+0x11c>)
 80096f2:	781a      	ldrb	r2, [r3, #0]
 80096f4:	fb00 1002 	mla	r0, r0, r2, r1
 80096f8:	7d01      	ldrb	r1, [r0, #20]
 80096fa:	2901      	cmp	r1, #1
 80096fc:	4619      	mov	r1, r3
 80096fe:	d909      	bls.n	8009714 <etharp_output+0xcc>
 8009700:	682f      	ldr	r7, [r5, #0]
 8009702:	6843      	ldr	r3, [r0, #4]
 8009704:	429f      	cmp	r7, r3
 8009706:	d105      	bne.n	8009714 <etharp_output+0xcc>
 8009708:	4631      	mov	r1, r6
 800970a:	4620      	mov	r0, r4
 800970c:	f7ff feb6 	bl	800947c <etharp_output_to_arp_index>
 8009710:	b005      	add	sp, #20
 8009712:	bdf0      	pop	{r4, r5, r6, r7, pc}
 8009714:	2200      	movs	r2, #0
 8009716:	4b13      	ldr	r3, [pc, #76]	; (8009764 <etharp_output+0x11c>)
 8009718:	7d18      	ldrb	r0, [r3, #20]
 800971a:	2801      	cmp	r0, #1
 800971c:	d906      	bls.n	800972c <etharp_output+0xe4>
 800971e:	682f      	ldr	r7, [r5, #0]
 8009720:	6858      	ldr	r0, [r3, #4]
 8009722:	4287      	cmp	r7, r0
 8009724:	d102      	bne.n	800972c <etharp_output+0xe4>
 8009726:	b2d2      	uxtb	r2, r2
 8009728:	700a      	strb	r2, [r1, #0]
 800972a:	e7ed      	b.n	8009708 <etharp_output+0xc0>
 800972c:	3201      	adds	r2, #1
 800972e:	2a0a      	cmp	r2, #10
 8009730:	f103 0318 	add.w	r3, r3, #24
 8009734:	d1f0      	bne.n	8009718 <etharp_output+0xd0>
 8009736:	4632      	mov	r2, r6
 8009738:	4629      	mov	r1, r5
 800973a:	4620      	mov	r0, r4
 800973c:	f7ff fef2 	bl	8009524 <etharp_query>
 8009740:	e7e6      	b.n	8009710 <etharp_output+0xc8>
 8009742:	4b09      	ldr	r3, [pc, #36]	; (8009768 <etharp_output+0x120>)
 8009744:	e7ba      	b.n	80096bc <etharp_output+0x74>
 8009746:	f06f 0003 	mvn.w	r0, #3
 800974a:	e7e1      	b.n	8009710 <etharp_output+0xc8>
 800974c:	0800cc8d 	.word	0x0800cc8d
 8009750:	0800bca0 	.word	0x0800bca0
 8009754:	0800bcae 	.word	0x0800bcae
 8009758:	0800c1e2 	.word	0x0800c1e2
 800975c:	0800cd76 	.word	0x0800cd76
 8009760:	20000548 	.word	0x20000548
 8009764:	20000458 	.word	0x20000458
 8009768:	0800d13b 	.word	0x0800d13b

0800976c <icmp_send_response.isra.0>:
 800976c:	b5f0      	push	{r4, r5, r6, r7, lr}
 800976e:	4604      	mov	r4, r0
 8009770:	460f      	mov	r7, r1
 8009772:	4616      	mov	r6, r2
 8009774:	2124      	movs	r1, #36	; 0x24
 8009776:	2200      	movs	r2, #0
 8009778:	2001      	movs	r0, #1
 800977a:	b087      	sub	sp, #28
 800977c:	f7fc fa06 	bl	8005b8c <pbuf_alloc>
 8009780:	4605      	mov	r5, r0
 8009782:	b390      	cbz	r0, 80097ea <icmp_send_response.isra.0+0x7e>
 8009784:	8943      	ldrh	r3, [r0, #10]
 8009786:	2b23      	cmp	r3, #35	; 0x23
 8009788:	d806      	bhi.n	8009798 <icmp_send_response.isra.0+0x2c>
 800978a:	f240 1261 	movw	r2, #353	; 0x161
 800978e:	4b18      	ldr	r3, [pc, #96]	; (80097f0 <icmp_send_response.isra.0+0x84>)
 8009790:	4918      	ldr	r1, [pc, #96]	; (80097f4 <icmp_send_response.isra.0+0x88>)
 8009792:	4819      	ldr	r0, [pc, #100]	; (80097f8 <icmp_send_response.isra.0+0x8c>)
 8009794:	f001 f870 	bl	800a878 <iprintf>
 8009798:	2300      	movs	r3, #0
 800979a:	6820      	ldr	r0, [r4, #0]
 800979c:	686c      	ldr	r4, [r5, #4]
 800979e:	f100 011c 	add.w	r1, r0, #28
 80097a2:	7123      	strb	r3, [r4, #4]
 80097a4:	7163      	strb	r3, [r4, #5]
 80097a6:	71a3      	strb	r3, [r4, #6]
 80097a8:	71e3      	strb	r3, [r4, #7]
 80097aa:	4603      	mov	r3, r0
 80097ac:	7027      	strb	r7, [r4, #0]
 80097ae:	7066      	strb	r6, [r4, #1]
 80097b0:	f104 0208 	add.w	r2, r4, #8
 80097b4:	f853 6b04 	ldr.w	r6, [r3], #4
 80097b8:	428b      	cmp	r3, r1
 80097ba:	f842 6b04 	str.w	r6, [r2], #4
 80097be:	d1f9      	bne.n	80097b4 <icmp_send_response.isra.0+0x48>
 80097c0:	68c3      	ldr	r3, [r0, #12]
 80097c2:	a805      	add	r0, sp, #20
 80097c4:	9305      	str	r3, [sp, #20]
 80097c6:	f000 f8bb 	bl	8009940 <ip4_route>
 80097ca:	b158      	cbz	r0, 80097e4 <icmp_send_response.isra.0+0x78>
 80097cc:	2100      	movs	r1, #0
 80097ce:	2301      	movs	r3, #1
 80097d0:	70a1      	strb	r1, [r4, #2]
 80097d2:	70e1      	strb	r1, [r4, #3]
 80097d4:	aa05      	add	r2, sp, #20
 80097d6:	e9cd 1300 	strd	r1, r3, [sp]
 80097da:	9002      	str	r0, [sp, #8]
 80097dc:	23ff      	movs	r3, #255	; 0xff
 80097de:	4628      	mov	r0, r5
 80097e0:	f000 fa1c 	bl	8009c1c <ip4_output_if>
 80097e4:	4628      	mov	r0, r5
 80097e6:	f7fc f96d 	bl	8005ac4 <pbuf_free>
 80097ea:	b007      	add	sp, #28
 80097ec:	bdf0      	pop	{r4, r5, r6, r7, pc}
 80097ee:	bf00      	nop
 80097f0:	0800ce03 	.word	0x0800ce03
 80097f4:	0800ce38 	.word	0x0800ce38
 80097f8:	0800bcae 	.word	0x0800bcae

080097fc <icmp_input>:
 80097fc:	e92d 43f0 	stmdb	sp!, {r4, r5, r6, r7, r8, r9, lr}
 8009800:	4b44      	ldr	r3, [pc, #272]	; (8009914 <icmp_input+0x118>)
 8009802:	4604      	mov	r4, r0
 8009804:	f8d3 9008 	ldr.w	r9, [r3, #8]
 8009808:	460f      	mov	r7, r1
 800980a:	f899 5000 	ldrb.w	r5, [r9]
 800980e:	4698      	mov	r8, r3
 8009810:	f005 050f 	and.w	r5, r5, #15
 8009814:	00ad      	lsls	r5, r5, #2
 8009816:	2d13      	cmp	r5, #19
 8009818:	b085      	sub	sp, #20
 800981a:	d92a      	bls.n	8009872 <icmp_input+0x76>
 800981c:	8942      	ldrh	r2, [r0, #10]
 800981e:	2a03      	cmp	r2, #3
 8009820:	d927      	bls.n	8009872 <icmp_input+0x76>
 8009822:	6842      	ldr	r2, [r0, #4]
 8009824:	7812      	ldrb	r2, [r2, #0]
 8009826:	2a08      	cmp	r2, #8
 8009828:	d123      	bne.n	8009872 <icmp_input+0x76>
 800982a:	6958      	ldr	r0, [r3, #20]
 800982c:	f000 02f0 	and.w	r2, r0, #240	; 0xf0
 8009830:	2ae0      	cmp	r2, #224	; 0xe0
 8009832:	d01e      	beq.n	8009872 <icmp_input+0x76>
 8009834:	6819      	ldr	r1, [r3, #0]
 8009836:	f000 fa02 	bl	8009c3e <ip4_addr_isbroadcast_u32>
 800983a:	4606      	mov	r6, r0
 800983c:	b9c8      	cbnz	r0, 8009872 <icmp_input+0x76>
 800983e:	8923      	ldrh	r3, [r4, #8]
 8009840:	2b07      	cmp	r3, #7
 8009842:	d916      	bls.n	8009872 <icmp_input+0x76>
 8009844:	4620      	mov	r0, r4
 8009846:	f105 010e 	add.w	r1, r5, #14
 800984a:	f7fc f935 	bl	8005ab8 <pbuf_header>
 800984e:	2800      	cmp	r0, #0
 8009850:	d050      	beq.n	80098f4 <icmp_input+0xf8>
 8009852:	8921      	ldrh	r1, [r4, #8]
 8009854:	4632      	mov	r2, r6
 8009856:	4429      	add	r1, r5
 8009858:	2002      	movs	r0, #2
 800985a:	b289      	uxth	r1, r1
 800985c:	f7fc f996 	bl	8005b8c <pbuf_alloc>
 8009860:	4606      	mov	r6, r0
 8009862:	b130      	cbz	r0, 8009872 <icmp_input+0x76>
 8009864:	8942      	ldrh	r2, [r0, #10]
 8009866:	f105 0308 	add.w	r3, r5, #8
 800986a:	429a      	cmp	r2, r3
 800986c:	d207      	bcs.n	800987e <icmp_input+0x82>
 800986e:	f7fc f929 	bl	8005ac4 <pbuf_free>
 8009872:	4620      	mov	r0, r4
 8009874:	b005      	add	sp, #20
 8009876:	e8bd 43f0 	ldmia.w	sp!, {r4, r5, r6, r7, r8, r9, lr}
 800987a:	f7fc b923 	b.w	8005ac4 <pbuf_free>
 800987e:	4649      	mov	r1, r9
 8009880:	462a      	mov	r2, r5
 8009882:	6840      	ldr	r0, [r0, #4]
 8009884:	f000 ff22 	bl	800a6cc <memcpy>
 8009888:	4630      	mov	r0, r6
 800988a:	4269      	negs	r1, r5
 800988c:	f7fc f914 	bl	8005ab8 <pbuf_header>
 8009890:	b138      	cbz	r0, 80098a2 <icmp_input+0xa6>
 8009892:	22af      	movs	r2, #175	; 0xaf
 8009894:	4b20      	ldr	r3, [pc, #128]	; (8009918 <icmp_input+0x11c>)
 8009896:	4921      	ldr	r1, [pc, #132]	; (800991c <icmp_input+0x120>)
 8009898:	4821      	ldr	r0, [pc, #132]	; (8009920 <icmp_input+0x124>)
 800989a:	f000 ffed 	bl	800a878 <iprintf>
 800989e:	4630      	mov	r0, r6
 80098a0:	e7e5      	b.n	800986e <icmp_input+0x72>
 80098a2:	4621      	mov	r1, r4
 80098a4:	4630      	mov	r0, r6
 80098a6:	f7fc fb15 	bl	8005ed4 <pbuf_copy>
 80098aa:	2800      	cmp	r0, #0
 80098ac:	d1f7      	bne.n	800989e <icmp_input+0xa2>
 80098ae:	4620      	mov	r0, r4
 80098b0:	f7fc f908 	bl	8005ac4 <pbuf_free>
 80098b4:	4634      	mov	r4, r6
 80098b6:	4629      	mov	r1, r5
 80098b8:	4620      	mov	r0, r4
 80098ba:	6866      	ldr	r6, [r4, #4]
 80098bc:	f7fc f8fc 	bl	8005ab8 <pbuf_header>
 80098c0:	4602      	mov	r2, r0
 80098c2:	2800      	cmp	r0, #0
 80098c4:	d1d5      	bne.n	8009872 <icmp_input+0x76>
 80098c6:	6860      	ldr	r0, [r4, #4]
 80098c8:	f8d8 3014 	ldr.w	r3, [r8, #20]
 80098cc:	2101      	movs	r1, #1
 80098ce:	60c3      	str	r3, [r0, #12]
 80098d0:	f8d8 3010 	ldr.w	r3, [r8, #16]
 80098d4:	6103      	str	r3, [r0, #16]
 80098d6:	23ff      	movs	r3, #255	; 0xff
 80098d8:	7032      	strb	r2, [r6, #0]
 80098da:	70b2      	strb	r2, [r6, #2]
 80098dc:	70f2      	strb	r2, [r6, #3]
 80098de:	7203      	strb	r3, [r0, #8]
 80098e0:	7282      	strb	r2, [r0, #10]
 80098e2:	72c2      	strb	r2, [r0, #11]
 80098e4:	e9cd 2100 	strd	r2, r1, [sp]
 80098e8:	4620      	mov	r0, r4
 80098ea:	490e      	ldr	r1, [pc, #56]	; (8009924 <icmp_input+0x128>)
 80098ec:	9702      	str	r7, [sp, #8]
 80098ee:	f000 f995 	bl	8009c1c <ip4_output_if>
 80098f2:	e7be      	b.n	8009872 <icmp_input+0x76>
 80098f4:	f5c5 417f 	rsb	r1, r5, #65280	; 0xff00
 80098f8:	31f2      	adds	r1, #242	; 0xf2
 80098fa:	4620      	mov	r0, r4
 80098fc:	b209      	sxth	r1, r1
 80098fe:	f7fc f8db 	bl	8005ab8 <pbuf_header>
 8009902:	2800      	cmp	r0, #0
 8009904:	d0d7      	beq.n	80098b6 <icmp_input+0xba>
 8009906:	22c0      	movs	r2, #192	; 0xc0
 8009908:	4b03      	ldr	r3, [pc, #12]	; (8009918 <icmp_input+0x11c>)
 800990a:	4907      	ldr	r1, [pc, #28]	; (8009928 <icmp_input+0x12c>)
 800990c:	4804      	ldr	r0, [pc, #16]	; (8009920 <icmp_input+0x124>)
 800990e:	f000 ffb3 	bl	800a878 <iprintf>
 8009912:	e7ae      	b.n	8009872 <icmp_input+0x76>
 8009914:	20003664 	.word	0x20003664
 8009918:	0800ce03 	.word	0x0800ce03
 800991c:	0800ce64 	.word	0x0800ce64
 8009920:	0800bcae 	.word	0x0800bcae
 8009924:	20003678 	.word	0x20003678
 8009928:	0800ce99 	.word	0x0800ce99

0800992c <icmp_dest_unreach>:
 800992c:	460a      	mov	r2, r1
 800992e:	3004      	adds	r0, #4
 8009930:	2103      	movs	r1, #3
 8009932:	f7ff bf1b 	b.w	800976c <icmp_send_response.isra.0>

08009936 <icmp_time_exceeded>:
 8009936:	460a      	mov	r2, r1
 8009938:	3004      	adds	r0, #4
 800993a:	210b      	movs	r1, #11
 800993c:	f7ff bf16 	b.w	800976c <icmp_send_response.isra.0>

08009940 <ip4_route>:
 8009940:	b530      	push	{r4, r5, lr}
 8009942:	4b13      	ldr	r3, [pc, #76]	; (8009990 <ip4_route+0x50>)
 8009944:	4602      	mov	r2, r0
 8009946:	6818      	ldr	r0, [r3, #0]
 8009948:	b968      	cbnz	r0, 8009966 <ip4_route+0x26>
 800994a:	4b12      	ldr	r3, [pc, #72]	; (8009994 <ip4_route+0x54>)
 800994c:	681b      	ldr	r3, [r3, #0]
 800994e:	b14b      	cbz	r3, 8009964 <ip4_route+0x24>
 8009950:	f893 202f 	ldrb.w	r2, [r3, #47]	; 0x2f
 8009954:	f002 0205 	and.w	r2, r2, #5
 8009958:	2a05      	cmp	r2, #5
 800995a:	d103      	bne.n	8009964 <ip4_route+0x24>
 800995c:	685a      	ldr	r2, [r3, #4]
 800995e:	2a00      	cmp	r2, #0
 8009960:	bf18      	it	ne
 8009962:	4618      	movne	r0, r3
 8009964:	bd30      	pop	{r4, r5, pc}
 8009966:	f890 102f 	ldrb.w	r1, [r0, #47]	; 0x2f
 800996a:	07cd      	lsls	r5, r1, #31
 800996c:	d50d      	bpl.n	800998a <ip4_route+0x4a>
 800996e:	074c      	lsls	r4, r1, #29
 8009970:	d50b      	bpl.n	800998a <ip4_route+0x4a>
 8009972:	6843      	ldr	r3, [r0, #4]
 8009974:	b14b      	cbz	r3, 800998a <ip4_route+0x4a>
 8009976:	6814      	ldr	r4, [r2, #0]
 8009978:	6885      	ldr	r5, [r0, #8]
 800997a:	4063      	eors	r3, r4
 800997c:	422b      	tst	r3, r5
 800997e:	d0f1      	beq.n	8009964 <ip4_route+0x24>
 8009980:	078b      	lsls	r3, r1, #30
 8009982:	d402      	bmi.n	800998a <ip4_route+0x4a>
 8009984:	68c3      	ldr	r3, [r0, #12]
 8009986:	429c      	cmp	r4, r3
 8009988:	d0ec      	beq.n	8009964 <ip4_route+0x24>
 800998a:	6800      	ldr	r0, [r0, #0]
 800998c:	e7dc      	b.n	8009948 <ip4_route+0x8>
 800998e:	bf00      	nop
 8009990:	20006b7c 	.word	0x20006b7c
 8009994:	20006b80 	.word	0x20006b80

08009998 <ip4_input>:
 8009998:	e92d 4ff8 	stmdb	sp!, {r3, r4, r5, r6, r7, r8, r9, sl, fp, lr}
 800999c:	f8d0 8004 	ldr.w	r8, [r0, #4]
 80099a0:	4604      	mov	r4, r0
 80099a2:	f898 9000 	ldrb.w	r9, [r8]
 80099a6:	460f      	mov	r7, r1
 80099a8:	ea4f 1319 	mov.w	r3, r9, lsr #4
 80099ac:	2b04      	cmp	r3, #4
 80099ae:	d005      	beq.n	80099bc <ip4_input+0x24>
 80099b0:	4620      	mov	r0, r4
 80099b2:	f7fc f887 	bl	8005ac4 <pbuf_free>
 80099b6:	2000      	movs	r0, #0
 80099b8:	e8bd 8ff8 	ldmia.w	sp!, {r3, r4, r5, r6, r7, r8, r9, sl, fp, pc}
 80099bc:	f8b8 0002 	ldrh.w	r0, [r8, #2]
 80099c0:	f7fb fcca 	bl	8005358 <lwip_htons>
 80099c4:	8923      	ldrh	r3, [r4, #8]
 80099c6:	f009 090f 	and.w	r9, r9, #15
 80099ca:	4283      	cmp	r3, r0
 80099cc:	4605      	mov	r5, r0
 80099ce:	ea4f 0989 	mov.w	r9, r9, lsl #2
 80099d2:	d903      	bls.n	80099dc <ip4_input+0x44>
 80099d4:	4601      	mov	r1, r0
 80099d6:	4620      	mov	r0, r4
 80099d8:	f7fc f9ac 	bl	8005d34 <pbuf_realloc>
 80099dc:	8963      	ldrh	r3, [r4, #10]
 80099de:	454b      	cmp	r3, r9
 80099e0:	d3e6      	bcc.n	80099b0 <ip4_input+0x18>
 80099e2:	8923      	ldrh	r3, [r4, #8]
 80099e4:	42ab      	cmp	r3, r5
 80099e6:	d3e3      	bcc.n	80099b0 <ip4_input+0x18>
 80099e8:	f1b9 0f13 	cmp.w	r9, #19
 80099ec:	d9e0      	bls.n	80099b0 <ip4_input+0x18>
 80099ee:	f8d8 3010 	ldr.w	r3, [r8, #16]
 80099f2:	4d4c      	ldr	r5, [pc, #304]	; (8009b24 <ip4_input+0x18c>)
 80099f4:	616b      	str	r3, [r5, #20]
 80099f6:	f8d8 200c 	ldr.w	r2, [r8, #12]
 80099fa:	f003 03f0 	and.w	r3, r3, #240	; 0xf0
 80099fe:	2be0      	cmp	r3, #224	; 0xe0
 8009a00:	612a      	str	r2, [r5, #16]
 8009a02:	d13d      	bne.n	8009a80 <ip4_input+0xe8>
 8009a04:	f897 302f 	ldrb.w	r3, [r7, #47]	; 0x2f
 8009a08:	07da      	lsls	r2, r3, #31
 8009a0a:	d502      	bpl.n	8009a12 <ip4_input+0x7a>
 8009a0c:	687b      	ldr	r3, [r7, #4]
 8009a0e:	2b00      	cmp	r3, #0
 8009a10:	d15d      	bne.n	8009ace <ip4_input+0x136>
 8009a12:	2600      	movs	r6, #0
 8009a14:	4639      	mov	r1, r7
 8009a16:	6928      	ldr	r0, [r5, #16]
 8009a18:	f000 f911 	bl	8009c3e <ip4_addr_isbroadcast_u32>
 8009a1c:	2800      	cmp	r0, #0
 8009a1e:	d1c7      	bne.n	80099b0 <ip4_input+0x18>
 8009a20:	692b      	ldr	r3, [r5, #16]
 8009a22:	f003 03f0 	and.w	r3, r3, #240	; 0xf0
 8009a26:	2be0      	cmp	r3, #224	; 0xe0
 8009a28:	d0c2      	beq.n	80099b0 <ip4_input+0x18>
 8009a2a:	2e00      	cmp	r6, #0
 8009a2c:	d0c0      	beq.n	80099b0 <ip4_input+0x18>
 8009a2e:	f8b8 3006 	ldrh.w	r3, [r8, #6]
 8009a32:	f023 03c0 	bic.w	r3, r3, #192	; 0xc0
 8009a36:	b13b      	cbz	r3, 8009a48 <ip4_input+0xb0>
 8009a38:	4620      	mov	r0, r4
 8009a3a:	f000 fa33 	bl	8009ea4 <ip4_reass>
 8009a3e:	4604      	mov	r4, r0
 8009a40:	2800      	cmp	r0, #0
 8009a42:	d0b8      	beq.n	80099b6 <ip4_input+0x1e>
 8009a44:	f8d0 8004 	ldr.w	r8, [r0, #4]
 8009a48:	e9c5 6700 	strd	r6, r7, [r5]
 8009a4c:	f8c5 8008 	str.w	r8, [r5, #8]
 8009a50:	f898 3000 	ldrb.w	r3, [r8]
 8009a54:	4620      	mov	r0, r4
 8009a56:	f003 030f 	and.w	r3, r3, #15
 8009a5a:	009b      	lsls	r3, r3, #2
 8009a5c:	f1c9 0100 	rsb	r1, r9, #0
 8009a60:	81ab      	strh	r3, [r5, #12]
 8009a62:	f7fc f829 	bl	8005ab8 <pbuf_header>
 8009a66:	f898 3009 	ldrb.w	r3, [r8, #9]
 8009a6a:	2b06      	cmp	r3, #6
 8009a6c:	d03d      	beq.n	8009aea <ip4_input+0x152>
 8009a6e:	2b11      	cmp	r3, #17
 8009a70:	d02f      	beq.n	8009ad2 <ip4_input+0x13a>
 8009a72:	2b01      	cmp	r3, #1
 8009a74:	d13e      	bne.n	8009af4 <ip4_input+0x15c>
 8009a76:	4639      	mov	r1, r7
 8009a78:	4620      	mov	r0, r4
 8009a7a:	f7ff febf 	bl	80097fc <icmp_input>
 8009a7e:	e02c      	b.n	8009ada <ip4_input+0x142>
 8009a80:	463e      	mov	r6, r7
 8009a82:	f04f 0a01 	mov.w	sl, #1
 8009a86:	f8df b0a0 	ldr.w	fp, [pc, #160]	; 8009b28 <ip4_input+0x190>
 8009a8a:	f896 302f 	ldrb.w	r3, [r6, #47]	; 0x2f
 8009a8e:	07db      	lsls	r3, r3, #31
 8009a90:	d404      	bmi.n	8009a9c <ip4_input+0x104>
 8009a92:	f1ba 0f00 	cmp.w	sl, #0
 8009a96:	d10d      	bne.n	8009ab4 <ip4_input+0x11c>
 8009a98:	6836      	ldr	r6, [r6, #0]
 8009a9a:	e010      	b.n	8009abe <ip4_input+0x126>
 8009a9c:	6873      	ldr	r3, [r6, #4]
 8009a9e:	2b00      	cmp	r3, #0
 8009aa0:	d0f7      	beq.n	8009a92 <ip4_input+0xfa>
 8009aa2:	6968      	ldr	r0, [r5, #20]
 8009aa4:	4283      	cmp	r3, r0
 8009aa6:	d0b5      	beq.n	8009a14 <ip4_input+0x7c>
 8009aa8:	4631      	mov	r1, r6
 8009aaa:	f000 f8c8 	bl	8009c3e <ip4_addr_isbroadcast_u32>
 8009aae:	2800      	cmp	r0, #0
 8009ab0:	d0ef      	beq.n	8009a92 <ip4_input+0xfa>
 8009ab2:	e7af      	b.n	8009a14 <ip4_input+0x7c>
 8009ab4:	7d2b      	ldrb	r3, [r5, #20]
 8009ab6:	2b7f      	cmp	r3, #127	; 0x7f
 8009ab8:	d0ab      	beq.n	8009a12 <ip4_input+0x7a>
 8009aba:	f8db 6000 	ldr.w	r6, [fp]
 8009abe:	42be      	cmp	r6, r7
 8009ac0:	bf08      	it	eq
 8009ac2:	6836      	ldreq	r6, [r6, #0]
 8009ac4:	f04f 0a00 	mov.w	sl, #0
 8009ac8:	2e00      	cmp	r6, #0
 8009aca:	d1de      	bne.n	8009a8a <ip4_input+0xf2>
 8009acc:	e7a1      	b.n	8009a12 <ip4_input+0x7a>
 8009ace:	463e      	mov	r6, r7
 8009ad0:	e7a0      	b.n	8009a14 <ip4_input+0x7c>
 8009ad2:	4639      	mov	r1, r7
 8009ad4:	4620      	mov	r0, r4
 8009ad6:	f7ff f8d3 	bl	8008c80 <udp_input>
 8009ada:	2300      	movs	r3, #0
 8009adc:	e9c5 3300 	strd	r3, r3, [r5]
 8009ae0:	e9c5 3304 	strd	r3, r3, [r5, #16]
 8009ae4:	60ab      	str	r3, [r5, #8]
 8009ae6:	81ab      	strh	r3, [r5, #12]
 8009ae8:	e765      	b.n	80099b6 <ip4_input+0x1e>
 8009aea:	4639      	mov	r1, r7
 8009aec:	4620      	mov	r0, r4
 8009aee:	f7fd fe69 	bl	80077c4 <tcp_input>
 8009af2:	e7f2      	b.n	8009ada <ip4_input+0x142>
 8009af4:	4631      	mov	r1, r6
 8009af6:	6968      	ldr	r0, [r5, #20]
 8009af8:	f000 f8a1 	bl	8009c3e <ip4_addr_isbroadcast_u32>
 8009afc:	b970      	cbnz	r0, 8009b1c <ip4_input+0x184>
 8009afe:	696b      	ldr	r3, [r5, #20]
 8009b00:	f003 03f0 	and.w	r3, r3, #240	; 0xf0
 8009b04:	2be0      	cmp	r3, #224	; 0xe0
 8009b06:	d009      	beq.n	8009b1c <ip4_input+0x184>
 8009b08:	4649      	mov	r1, r9
 8009b0a:	4620      	mov	r0, r4
 8009b0c:	f7fb ffd7 	bl	8005abe <pbuf_header_force>
 8009b10:	2102      	movs	r1, #2
 8009b12:	4620      	mov	r0, r4
 8009b14:	f8c4 8004 	str.w	r8, [r4, #4]
 8009b18:	f7ff ff08 	bl	800992c <icmp_dest_unreach>
 8009b1c:	4620      	mov	r0, r4
 8009b1e:	f7fb ffd1 	bl	8005ac4 <pbuf_free>
 8009b22:	e7da      	b.n	8009ada <ip4_input+0x142>
 8009b24:	20003664 	.word	0x20003664
 8009b28:	20006b7c 	.word	0x20006b7c

08009b2c <ip4_output_if_src>:
 8009b2c:	e92d 47f3 	stmdb	sp!, {r0, r1, r4, r5, r6, r7, r8, r9, sl, lr}
 8009b30:	461f      	mov	r7, r3
 8009b32:	89c3      	ldrh	r3, [r0, #14]
 8009b34:	4605      	mov	r5, r0
 8009b36:	2b01      	cmp	r3, #1
 8009b38:	4689      	mov	r9, r1
 8009b3a:	4616      	mov	r6, r2
 8009b3c:	f8dd 8030 	ldr.w	r8, [sp, #48]	; 0x30
 8009b40:	d006      	beq.n	8009b50 <ip4_output_if_src+0x24>
 8009b42:	f240 3233 	movw	r2, #819	; 0x333
 8009b46:	4b2f      	ldr	r3, [pc, #188]	; (8009c04 <ip4_output_if_src+0xd8>)
 8009b48:	492f      	ldr	r1, [pc, #188]	; (8009c08 <ip4_output_if_src+0xdc>)
 8009b4a:	4830      	ldr	r0, [pc, #192]	; (8009c0c <ip4_output_if_src+0xe0>)
 8009b4c:	f000 fe94 	bl	800a878 <iprintf>
 8009b50:	2e00      	cmp	r6, #0
 8009b52:	d047      	beq.n	8009be4 <ip4_output_if_src+0xb8>
 8009b54:	2114      	movs	r1, #20
 8009b56:	4628      	mov	r0, r5
 8009b58:	f7fb ffae 	bl	8005ab8 <pbuf_header>
 8009b5c:	2800      	cmp	r0, #0
 8009b5e:	d14d      	bne.n	8009bfc <ip4_output_if_src+0xd0>
 8009b60:	896b      	ldrh	r3, [r5, #10]
 8009b62:	686c      	ldr	r4, [r5, #4]
 8009b64:	2b13      	cmp	r3, #19
 8009b66:	d806      	bhi.n	8009b76 <ip4_output_if_src+0x4a>
 8009b68:	f44f 7258 	mov.w	r2, #864	; 0x360
 8009b6c:	4b25      	ldr	r3, [pc, #148]	; (8009c04 <ip4_output_if_src+0xd8>)
 8009b6e:	4928      	ldr	r1, [pc, #160]	; (8009c10 <ip4_output_if_src+0xe4>)
 8009b70:	4826      	ldr	r0, [pc, #152]	; (8009c0c <ip4_output_if_src+0xe0>)
 8009b72:	f000 fe81 	bl	800a878 <iprintf>
 8009b76:	f89d 302c 	ldrb.w	r3, [sp, #44]	; 0x2c
 8009b7a:	7227      	strb	r7, [r4, #8]
 8009b7c:	7263      	strb	r3, [r4, #9]
 8009b7e:	6833      	ldr	r3, [r6, #0]
 8009b80:	2700      	movs	r7, #0
 8009b82:	6123      	str	r3, [r4, #16]
 8009b84:	2345      	movs	r3, #69	; 0x45
 8009b86:	7023      	strb	r3, [r4, #0]
 8009b88:	f89d 3028 	ldrb.w	r3, [sp, #40]	; 0x28
 8009b8c:	f8df a088 	ldr.w	sl, [pc, #136]	; 8009c18 <ip4_output_if_src+0xec>
 8009b90:	7063      	strb	r3, [r4, #1]
 8009b92:	8928      	ldrh	r0, [r5, #8]
 8009b94:	f7fb fbe0 	bl	8005358 <lwip_htons>
 8009b98:	71a7      	strb	r7, [r4, #6]
 8009b9a:	8060      	strh	r0, [r4, #2]
 8009b9c:	71e7      	strb	r7, [r4, #7]
 8009b9e:	f8ba 0000 	ldrh.w	r0, [sl]
 8009ba2:	f7fb fbd9 	bl	8005358 <lwip_htons>
 8009ba6:	f8ba 3000 	ldrh.w	r3, [sl]
 8009baa:	80a0      	strh	r0, [r4, #4]
 8009bac:	3301      	adds	r3, #1
 8009bae:	f8aa 3000 	strh.w	r3, [sl]
 8009bb2:	f1b9 0f00 	cmp.w	r9, #0
 8009bb6:	d112      	bne.n	8009bde <ip4_output_if_src+0xb2>
 8009bb8:	4b16      	ldr	r3, [pc, #88]	; (8009c14 <ip4_output_if_src+0xe8>)
 8009bba:	681b      	ldr	r3, [r3, #0]
 8009bbc:	60e3      	str	r3, [r4, #12]
 8009bbe:	72a7      	strb	r7, [r4, #10]
 8009bc0:	72e7      	strb	r7, [r4, #11]
 8009bc2:	f8b8 3026 	ldrh.w	r3, [r8, #38]	; 0x26
 8009bc6:	b193      	cbz	r3, 8009bee <ip4_output_if_src+0xc2>
 8009bc8:	892a      	ldrh	r2, [r5, #8]
 8009bca:	429a      	cmp	r2, r3
 8009bcc:	d90f      	bls.n	8009bee <ip4_output_if_src+0xc2>
 8009bce:	4632      	mov	r2, r6
 8009bd0:	4641      	mov	r1, r8
 8009bd2:	4628      	mov	r0, r5
 8009bd4:	f000 fb10 	bl	800a1f8 <ip4_frag>
 8009bd8:	b002      	add	sp, #8
 8009bda:	e8bd 87f0 	ldmia.w	sp!, {r4, r5, r6, r7, r8, r9, sl, pc}
 8009bde:	f8d9 3000 	ldr.w	r3, [r9]
 8009be2:	e7eb      	b.n	8009bbc <ip4_output_if_src+0x90>
 8009be4:	686b      	ldr	r3, [r5, #4]
 8009be6:	ae01      	add	r6, sp, #4
 8009be8:	691b      	ldr	r3, [r3, #16]
 8009bea:	9301      	str	r3, [sp, #4]
 8009bec:	e7e9      	b.n	8009bc2 <ip4_output_if_src+0x96>
 8009bee:	4632      	mov	r2, r6
 8009bf0:	4629      	mov	r1, r5
 8009bf2:	4640      	mov	r0, r8
 8009bf4:	f8d8 3014 	ldr.w	r3, [r8, #20]
 8009bf8:	4798      	blx	r3
 8009bfa:	e7ed      	b.n	8009bd8 <ip4_output_if_src+0xac>
 8009bfc:	f06f 0001 	mvn.w	r0, #1
 8009c00:	e7ea      	b.n	8009bd8 <ip4_output_if_src+0xac>
 8009c02:	bf00      	nop
 8009c04:	0800cecb 	.word	0x0800cecb
 8009c08:	0800ceff 	.word	0x0800ceff
 8009c0c:	0800bcae 	.word	0x0800bcae
 8009c10:	0800cf0b 	.word	0x0800cf0b
 8009c14:	0800cf38 	.word	0x0800cf38
 8009c18:	2000054a 	.word	0x2000054a

08009c1c <ip4_output_if>:
 8009c1c:	b4f0      	push	{r4, r5, r6, r7}
 8009c1e:	9c06      	ldr	r4, [sp, #24]
 8009c20:	f89d 5010 	ldrb.w	r5, [sp, #16]
 8009c24:	f89d 6014 	ldrb.w	r6, [sp, #20]
 8009c28:	b11a      	cbz	r2, 8009c32 <ip4_output_if+0x16>
 8009c2a:	b109      	cbz	r1, 8009c30 <ip4_output_if+0x14>
 8009c2c:	680f      	ldr	r7, [r1, #0]
 8009c2e:	b907      	cbnz	r7, 8009c32 <ip4_output_if+0x16>
 8009c30:	1d21      	adds	r1, r4, #4
 8009c32:	e9cd 6405 	strd	r6, r4, [sp, #20]
 8009c36:	9504      	str	r5, [sp, #16]
 8009c38:	bcf0      	pop	{r4, r5, r6, r7}
 8009c3a:	f7ff bf77 	b.w	8009b2c <ip4_output_if_src>

08009c3e <ip4_addr_isbroadcast_u32>:
 8009c3e:	1e43      	subs	r3, r0, #1
 8009c40:	3303      	adds	r3, #3
 8009c42:	4602      	mov	r2, r0
 8009c44:	d812      	bhi.n	8009c6c <ip4_addr_isbroadcast_u32+0x2e>
 8009c46:	f891 302f 	ldrb.w	r3, [r1, #47]	; 0x2f
 8009c4a:	f013 0002 	ands.w	r0, r3, #2
 8009c4e:	d010      	beq.n	8009c72 <ip4_addr_isbroadcast_u32+0x34>
 8009c50:	684b      	ldr	r3, [r1, #4]
 8009c52:	4293      	cmp	r3, r2
 8009c54:	d00c      	beq.n	8009c70 <ip4_addr_isbroadcast_u32+0x32>
 8009c56:	6888      	ldr	r0, [r1, #8]
 8009c58:	4053      	eors	r3, r2
 8009c5a:	4203      	tst	r3, r0
 8009c5c:	d108      	bne.n	8009c70 <ip4_addr_isbroadcast_u32+0x32>
 8009c5e:	43c3      	mvns	r3, r0
 8009c60:	ea22 0000 	bic.w	r0, r2, r0
 8009c64:	1ac3      	subs	r3, r0, r3
 8009c66:	4258      	negs	r0, r3
 8009c68:	4158      	adcs	r0, r3
 8009c6a:	4770      	bx	lr
 8009c6c:	2001      	movs	r0, #1
 8009c6e:	4770      	bx	lr
 8009c70:	2000      	movs	r0, #0
 8009c72:	4770      	bx	lr

08009c74 <ip_reass_dequeue_datagram>:
 8009c74:	b538      	push	{r3, r4, r5, lr}
 8009c76:	4b0c      	ldr	r3, [pc, #48]	; (8009ca8 <ip_reass_dequeue_datagram+0x34>)
 8009c78:	4604      	mov	r4, r0
 8009c7a:	681a      	ldr	r2, [r3, #0]
 8009c7c:	460d      	mov	r5, r1
 8009c7e:	4282      	cmp	r2, r0
 8009c80:	d107      	bne.n	8009c92 <ip_reass_dequeue_datagram+0x1e>
 8009c82:	6802      	ldr	r2, [r0, #0]
 8009c84:	601a      	str	r2, [r3, #0]
 8009c86:	4621      	mov	r1, r4
 8009c88:	e8bd 4038 	ldmia.w	sp!, {r3, r4, r5, lr}
 8009c8c:	2004      	movs	r0, #4
 8009c8e:	f7fb bdb5 	b.w	80057fc <memp_free>
 8009c92:	b931      	cbnz	r1, 8009ca2 <ip_reass_dequeue_datagram+0x2e>
 8009c94:	f240 1245 	movw	r2, #325	; 0x145
 8009c98:	4b04      	ldr	r3, [pc, #16]	; (8009cac <ip_reass_dequeue_datagram+0x38>)
 8009c9a:	4905      	ldr	r1, [pc, #20]	; (8009cb0 <ip_reass_dequeue_datagram+0x3c>)
 8009c9c:	4805      	ldr	r0, [pc, #20]	; (8009cb4 <ip_reass_dequeue_datagram+0x40>)
 8009c9e:	f000 fdeb 	bl	800a878 <iprintf>
 8009ca2:	6823      	ldr	r3, [r4, #0]
 8009ca4:	602b      	str	r3, [r5, #0]
 8009ca6:	e7ee      	b.n	8009c86 <ip_reass_dequeue_datagram+0x12>
 8009ca8:	20000550 	.word	0x20000550
 8009cac:	0800cf3c 	.word	0x0800cf3c
 8009cb0:	0800cf75 	.word	0x0800cf75
 8009cb4:	0800bcae 	.word	0x0800bcae

08009cb8 <ip_reass_free_complete_datagram>:
 8009cb8:	4281      	cmp	r1, r0
 8009cba:	e92d 4ff8 	stmdb	sp!, {r3, r4, r5, r6, r7, r8, r9, sl, fp, lr}
 8009cbe:	4604      	mov	r4, r0
 8009cc0:	460e      	mov	r6, r1
 8009cc2:	d105      	bne.n	8009cd0 <ip_reass_free_complete_datagram+0x18>
 8009cc4:	22ab      	movs	r2, #171	; 0xab
 8009cc6:	4b2f      	ldr	r3, [pc, #188]	; (8009d84 <ip_reass_free_complete_datagram+0xcc>)
 8009cc8:	492f      	ldr	r1, [pc, #188]	; (8009d88 <ip_reass_free_complete_datagram+0xd0>)
 8009cca:	4830      	ldr	r0, [pc, #192]	; (8009d8c <ip_reass_free_complete_datagram+0xd4>)
 8009ccc:	f000 fdd4 	bl	800a878 <iprintf>
 8009cd0:	b146      	cbz	r6, 8009ce4 <ip_reass_free_complete_datagram+0x2c>
 8009cd2:	6833      	ldr	r3, [r6, #0]
 8009cd4:	42a3      	cmp	r3, r4
 8009cd6:	d005      	beq.n	8009ce4 <ip_reass_free_complete_datagram+0x2c>
 8009cd8:	22ad      	movs	r2, #173	; 0xad
 8009cda:	4b2a      	ldr	r3, [pc, #168]	; (8009d84 <ip_reass_free_complete_datagram+0xcc>)
 8009cdc:	492c      	ldr	r1, [pc, #176]	; (8009d90 <ip_reass_free_complete_datagram+0xd8>)
 8009cde:	482b      	ldr	r0, [pc, #172]	; (8009d8c <ip_reass_free_complete_datagram+0xd4>)
 8009ce0:	f000 fdca 	bl	800a878 <iprintf>
 8009ce4:	6867      	ldr	r7, [r4, #4]
 8009ce6:	687b      	ldr	r3, [r7, #4]
 8009ce8:	889a      	ldrh	r2, [r3, #4]
 8009cea:	bb92      	cbnz	r2, 8009d52 <ip_reass_free_complete_datagram+0x9a>
 8009cec:	681a      	ldr	r2, [r3, #0]
 8009cee:	f104 011c 	add.w	r1, r4, #28
 8009cf2:	6062      	str	r2, [r4, #4]
 8009cf4:	f104 0208 	add.w	r2, r4, #8
 8009cf8:	f852 0b04 	ldr.w	r0, [r2], #4
 8009cfc:	428a      	cmp	r2, r1
 8009cfe:	f843 0b04 	str.w	r0, [r3], #4
 8009d02:	d1f9      	bne.n	8009cf8 <ip_reass_free_complete_datagram+0x40>
 8009d04:	2101      	movs	r1, #1
 8009d06:	4638      	mov	r0, r7
 8009d08:	f7ff fe15 	bl	8009936 <icmp_time_exceeded>
 8009d0c:	4638      	mov	r0, r7
 8009d0e:	f7fc f881 	bl	8005e14 <pbuf_clen>
 8009d12:	4605      	mov	r5, r0
 8009d14:	4638      	mov	r0, r7
 8009d16:	f7fb fed5 	bl	8005ac4 <pbuf_free>
 8009d1a:	6867      	ldr	r7, [r4, #4]
 8009d1c:	f8df 8064 	ldr.w	r8, [pc, #100]	; 8009d84 <ip_reass_free_complete_datagram+0xcc>
 8009d20:	f8df 9078 	ldr.w	r9, [pc, #120]	; 8009d9c <ip_reass_free_complete_datagram+0xe4>
 8009d24:	f8df a064 	ldr.w	sl, [pc, #100]	; 8009d8c <ip_reass_free_complete_datagram+0xd4>
 8009d28:	b9af      	cbnz	r7, 8009d56 <ip_reass_free_complete_datagram+0x9e>
 8009d2a:	4620      	mov	r0, r4
 8009d2c:	4c19      	ldr	r4, [pc, #100]	; (8009d94 <ip_reass_free_complete_datagram+0xdc>)
 8009d2e:	4631      	mov	r1, r6
 8009d30:	f7ff ffa0 	bl	8009c74 <ip_reass_dequeue_datagram>
 8009d34:	8823      	ldrh	r3, [r4, #0]
 8009d36:	42ab      	cmp	r3, r5
 8009d38:	d205      	bcs.n	8009d46 <ip_reass_free_complete_datagram+0x8e>
 8009d3a:	22d2      	movs	r2, #210	; 0xd2
 8009d3c:	4b11      	ldr	r3, [pc, #68]	; (8009d84 <ip_reass_free_complete_datagram+0xcc>)
 8009d3e:	4916      	ldr	r1, [pc, #88]	; (8009d98 <ip_reass_free_complete_datagram+0xe0>)
 8009d40:	4812      	ldr	r0, [pc, #72]	; (8009d8c <ip_reass_free_complete_datagram+0xd4>)
 8009d42:	f000 fd99 	bl	800a878 <iprintf>
 8009d46:	8823      	ldrh	r3, [r4, #0]
 8009d48:	4628      	mov	r0, r5
 8009d4a:	1b5b      	subs	r3, r3, r5
 8009d4c:	8023      	strh	r3, [r4, #0]
 8009d4e:	e8bd 8ff8 	ldmia.w	sp!, {r3, r4, r5, r6, r7, r8, r9, sl, fp, pc}
 8009d52:	2500      	movs	r5, #0
 8009d54:	e7e1      	b.n	8009d1a <ip_reass_free_complete_datagram+0x62>
 8009d56:	687b      	ldr	r3, [r7, #4]
 8009d58:	4638      	mov	r0, r7
 8009d5a:	f8d3 b000 	ldr.w	fp, [r3]
 8009d5e:	f7fc f859 	bl	8005e14 <pbuf_clen>
 8009d62:	4405      	add	r5, r0
 8009d64:	f5b5 3f80 	cmp.w	r5, #65536	; 0x10000
 8009d68:	db05      	blt.n	8009d76 <ip_reass_free_complete_datagram+0xbe>
 8009d6a:	4643      	mov	r3, r8
 8009d6c:	22cc      	movs	r2, #204	; 0xcc
 8009d6e:	4649      	mov	r1, r9
 8009d70:	4650      	mov	r0, sl
 8009d72:	f000 fd81 	bl	800a878 <iprintf>
 8009d76:	4638      	mov	r0, r7
 8009d78:	f7fb fea4 	bl	8005ac4 <pbuf_free>
 8009d7c:	465f      	mov	r7, fp
 8009d7e:	b2ad      	uxth	r5, r5
 8009d80:	e7d2      	b.n	8009d28 <ip_reass_free_complete_datagram+0x70>
 8009d82:	bf00      	nop
 8009d84:	0800cf3c 	.word	0x0800cf3c
 8009d88:	0800cf8e 	.word	0x0800cf8e
 8009d8c:	0800bcae 	.word	0x0800bcae
 8009d90:	0800cf9a 	.word	0x0800cf9a
 8009d94:	2000054c 	.word	0x2000054c
 8009d98:	0800cfc9 	.word	0x0800cfc9
 8009d9c:	0800cfac 	.word	0x0800cfac

08009da0 <ip_reass_remove_oldest_datagram>:
 8009da0:	e92d 41f0 	stmdb	sp!, {r4, r5, r6, r7, r8, lr}
 8009da4:	4605      	mov	r5, r0
 8009da6:	460f      	mov	r7, r1
 8009da8:	2600      	movs	r6, #0
 8009daa:	f8df 8068 	ldr.w	r8, [pc, #104]	; 8009e14 <ip_reass_remove_oldest_datagram+0x74>
 8009dae:	2400      	movs	r4, #0
 8009db0:	4621      	mov	r1, r4
 8009db2:	46a4      	mov	ip, r4
 8009db4:	4620      	mov	r0, r4
 8009db6:	f8d8 3000 	ldr.w	r3, [r8]
 8009dba:	b953      	cbnz	r3, 8009dd2 <ip_reass_remove_oldest_datagram+0x32>
 8009dbc:	b110      	cbz	r0, 8009dc4 <ip_reass_remove_oldest_datagram+0x24>
 8009dbe:	f7ff ff7b 	bl	8009cb8 <ip_reass_free_complete_datagram>
 8009dc2:	4406      	add	r6, r0
 8009dc4:	42be      	cmp	r6, r7
 8009dc6:	da01      	bge.n	8009dcc <ip_reass_remove_oldest_datagram+0x2c>
 8009dc8:	2c01      	cmp	r4, #1
 8009dca:	dcf0      	bgt.n	8009dae <ip_reass_remove_oldest_datagram+0xe>
 8009dcc:	4630      	mov	r0, r6
 8009dce:	e8bd 81f0 	ldmia.w	sp!, {r4, r5, r6, r7, r8, pc}
 8009dd2:	f8d5 e00c 	ldr.w	lr, [r5, #12]
 8009dd6:	695a      	ldr	r2, [r3, #20]
 8009dd8:	4572      	cmp	r2, lr
 8009dda:	d109      	bne.n	8009df0 <ip_reass_remove_oldest_datagram+0x50>
 8009ddc:	f8d5 e010 	ldr.w	lr, [r5, #16]
 8009de0:	699a      	ldr	r2, [r3, #24]
 8009de2:	4572      	cmp	r2, lr
 8009de4:	d104      	bne.n	8009df0 <ip_reass_remove_oldest_datagram+0x50>
 8009de6:	f8b3 e00c 	ldrh.w	lr, [r3, #12]
 8009dea:	88aa      	ldrh	r2, [r5, #4]
 8009dec:	4596      	cmp	lr, r2
 8009dee:	d008      	beq.n	8009e02 <ip_reass_remove_oldest_datagram+0x62>
 8009df0:	3401      	adds	r4, #1
 8009df2:	b160      	cbz	r0, 8009e0e <ip_reass_remove_oldest_datagram+0x6e>
 8009df4:	7fc2      	ldrb	r2, [r0, #31]
 8009df6:	f893 e01f 	ldrb.w	lr, [r3, #31]
 8009dfa:	4596      	cmp	lr, r2
 8009dfc:	bf9c      	itt	ls
 8009dfe:	4661      	movls	r1, ip
 8009e00:	4618      	movls	r0, r3
 8009e02:	681a      	ldr	r2, [r3, #0]
 8009e04:	2a00      	cmp	r2, #0
 8009e06:	bf18      	it	ne
 8009e08:	469c      	movne	ip, r3
 8009e0a:	4613      	mov	r3, r2
 8009e0c:	e7d5      	b.n	8009dba <ip_reass_remove_oldest_datagram+0x1a>
 8009e0e:	4661      	mov	r1, ip
 8009e10:	4618      	mov	r0, r3
 8009e12:	e7f6      	b.n	8009e02 <ip_reass_remove_oldest_datagram+0x62>
 8009e14:	20000550 	.word	0x20000550

08009e18 <ip_frag_free_pbuf_custom_ref>:
 8009e18:	b510      	push	{r4, lr}
 8009e1a:	4604      	mov	r4, r0
 8009e1c:	b930      	cbnz	r0, 8009e2c <ip_frag_free_pbuf_custom_ref+0x14>
 8009e1e:	f240 22ae 	movw	r2, #686	; 0x2ae
 8009e22:	4b05      	ldr	r3, [pc, #20]	; (8009e38 <ip_frag_free_pbuf_custom_ref+0x20>)
 8009e24:	4905      	ldr	r1, [pc, #20]	; (8009e3c <ip_frag_free_pbuf_custom_ref+0x24>)
 8009e26:	4806      	ldr	r0, [pc, #24]	; (8009e40 <ip_frag_free_pbuf_custom_ref+0x28>)
 8009e28:	f000 fd26 	bl	800a878 <iprintf>
 8009e2c:	4621      	mov	r1, r4
 8009e2e:	e8bd 4010 	ldmia.w	sp!, {r4, lr}
 8009e32:	2005      	movs	r0, #5
 8009e34:	f7fb bce2 	b.w	80057fc <memp_free>
 8009e38:	0800cf3c 	.word	0x0800cf3c
 8009e3c:	0800c19e 	.word	0x0800c19e
 8009e40:	0800bcae 	.word	0x0800bcae

08009e44 <ipfrag_free_pbuf_custom>:
 8009e44:	b510      	push	{r4, lr}
 8009e46:	4604      	mov	r4, r0
 8009e48:	b930      	cbnz	r0, 8009e58 <ipfrag_free_pbuf_custom+0x14>
 8009e4a:	f44f 722e 	mov.w	r2, #696	; 0x2b8
 8009e4e:	4b07      	ldr	r3, [pc, #28]	; (8009e6c <ipfrag_free_pbuf_custom+0x28>)
 8009e50:	4907      	ldr	r1, [pc, #28]	; (8009e70 <ipfrag_free_pbuf_custom+0x2c>)
 8009e52:	4808      	ldr	r0, [pc, #32]	; (8009e74 <ipfrag_free_pbuf_custom+0x30>)
 8009e54:	f000 fd10 	bl	800a878 <iprintf>
 8009e58:	6960      	ldr	r0, [r4, #20]
 8009e5a:	b108      	cbz	r0, 8009e60 <ipfrag_free_pbuf_custom+0x1c>
 8009e5c:	f7fb fe32 	bl	8005ac4 <pbuf_free>
 8009e60:	4620      	mov	r0, r4
 8009e62:	e8bd 4010 	ldmia.w	sp!, {r4, lr}
 8009e66:	f7ff bfd7 	b.w	8009e18 <ip_frag_free_pbuf_custom_ref>
 8009e6a:	bf00      	nop
 8009e6c:	0800cf3c 	.word	0x0800cf3c
 8009e70:	0800cfe4 	.word	0x0800cfe4
 8009e74:	0800bcae 	.word	0x0800bcae

08009e78 <ip_reass_tmr>:
 8009e78:	b538      	push	{r3, r4, r5, lr}
 8009e7a:	2400      	movs	r4, #0
 8009e7c:	4b08      	ldr	r3, [pc, #32]	; (8009ea0 <ip_reass_tmr+0x28>)
 8009e7e:	6818      	ldr	r0, [r3, #0]
 8009e80:	b900      	cbnz	r0, 8009e84 <ip_reass_tmr+0xc>
 8009e82:	bd38      	pop	{r3, r4, r5, pc}
 8009e84:	7fc3      	ldrb	r3, [r0, #31]
 8009e86:	6805      	ldr	r5, [r0, #0]
 8009e88:	b123      	cbz	r3, 8009e94 <ip_reass_tmr+0x1c>
 8009e8a:	3b01      	subs	r3, #1
 8009e8c:	77c3      	strb	r3, [r0, #31]
 8009e8e:	4604      	mov	r4, r0
 8009e90:	4628      	mov	r0, r5
 8009e92:	e7f5      	b.n	8009e80 <ip_reass_tmr+0x8>
 8009e94:	4621      	mov	r1, r4
 8009e96:	f7ff ff0f 	bl	8009cb8 <ip_reass_free_complete_datagram>
 8009e9a:	4620      	mov	r0, r4
 8009e9c:	e7f7      	b.n	8009e8e <ip_reass_tmr+0x16>
 8009e9e:	bf00      	nop
 8009ea0:	20000550 	.word	0x20000550

08009ea4 <ip4_reass>:
 8009ea4:	e92d 4ff7 	stmdb	sp!, {r0, r1, r2, r4, r5, r6, r7, r8, r9, sl, fp, lr}
 8009ea8:	6845      	ldr	r5, [r0, #4]
 8009eaa:	4607      	mov	r7, r0
 8009eac:	782b      	ldrb	r3, [r5, #0]
 8009eae:	f003 030f 	and.w	r3, r3, #15
 8009eb2:	2b05      	cmp	r3, #5
 8009eb4:	f040 808c 	bne.w	8009fd0 <ip4_reass+0x12c>
 8009eb8:	88e8      	ldrh	r0, [r5, #6]
 8009eba:	f7fb fa4d 	bl	8005358 <lwip_htons>
 8009ebe:	f3c0 080c 	ubfx	r8, r0, #0, #13
 8009ec2:	8868      	ldrh	r0, [r5, #2]
 8009ec4:	f7fb fa48 	bl	8005358 <lwip_htons>
 8009ec8:	782b      	ldrb	r3, [r5, #0]
 8009eca:	4cb1      	ldr	r4, [pc, #708]	; (800a190 <ip4_reass+0x2ec>)
 8009ecc:	f003 030f 	and.w	r3, r3, #15
 8009ed0:	eba0 0083 	sub.w	r0, r0, r3, lsl #2
 8009ed4:	b283      	uxth	r3, r0
 8009ed6:	4638      	mov	r0, r7
 8009ed8:	9301      	str	r3, [sp, #4]
 8009eda:	f7fb ff9b 	bl	8005e14 <pbuf_clen>
 8009ede:	8823      	ldrh	r3, [r4, #0]
 8009ee0:	4681      	mov	r9, r0
 8009ee2:	4403      	add	r3, r0
 8009ee4:	2b0a      	cmp	r3, #10
 8009ee6:	ea4f 08c8 	mov.w	r8, r8, lsl #3
 8009eea:	dc68      	bgt.n	8009fbe <ip4_reass+0x11a>
 8009eec:	4ea9      	ldr	r6, [pc, #676]	; (800a194 <ip4_reass+0x2f0>)
 8009eee:	6834      	ldr	r4, [r6, #0]
 8009ef0:	2c00      	cmp	r4, #0
 8009ef2:	d172      	bne.n	8009fda <ip4_reass+0x136>
 8009ef4:	2004      	movs	r0, #4
 8009ef6:	f7fb fc65 	bl	80057c4 <memp_malloc>
 8009efa:	4604      	mov	r4, r0
 8009efc:	b958      	cbnz	r0, 8009f16 <ip4_reass+0x72>
 8009efe:	4649      	mov	r1, r9
 8009f00:	4628      	mov	r0, r5
 8009f02:	f7ff ff4d 	bl	8009da0 <ip_reass_remove_oldest_datagram>
 8009f06:	4581      	cmp	r9, r0
 8009f08:	dc62      	bgt.n	8009fd0 <ip4_reass+0x12c>
 8009f0a:	2004      	movs	r0, #4
 8009f0c:	f7fb fc5a 	bl	80057c4 <memp_malloc>
 8009f10:	4604      	mov	r4, r0
 8009f12:	2800      	cmp	r0, #0
 8009f14:	d05c      	beq.n	8009fd0 <ip4_reass+0x12c>
 8009f16:	221c      	movs	r2, #28
 8009f18:	2100      	movs	r1, #0
 8009f1a:	1d20      	adds	r0, r4, #4
 8009f1c:	f000 fbfe 	bl	800a71c <memset>
 8009f20:	2303      	movs	r3, #3
 8009f22:	77e3      	strb	r3, [r4, #31]
 8009f24:	6833      	ldr	r3, [r6, #0]
 8009f26:	f104 0208 	add.w	r2, r4, #8
 8009f2a:	6023      	str	r3, [r4, #0]
 8009f2c:	462b      	mov	r3, r5
 8009f2e:	6034      	str	r4, [r6, #0]
 8009f30:	f105 0114 	add.w	r1, r5, #20
 8009f34:	f853 0b04 	ldr.w	r0, [r3], #4
 8009f38:	428b      	cmp	r3, r1
 8009f3a:	f842 0b04 	str.w	r0, [r2], #4
 8009f3e:	d1f9      	bne.n	8009f34 <ip4_reass+0x90>
 8009f40:	f8b5 b006 	ldrh.w	fp, [r5, #6]
 8009f44:	f01b 0b20 	ands.w	fp, fp, #32
 8009f48:	d108      	bne.n	8009f5c <ip4_reass+0xb8>
 8009f4a:	9b01      	ldr	r3, [sp, #4]
 8009f4c:	4443      	add	r3, r8
 8009f4e:	b29b      	uxth	r3, r3
 8009f50:	4598      	cmp	r8, r3
 8009f52:	d83d      	bhi.n	8009fd0 <ip4_reass+0x12c>
 8009f54:	f64f 72eb 	movw	r2, #65515	; 0xffeb
 8009f58:	4293      	cmp	r3, r2
 8009f5a:	d839      	bhi.n	8009fd0 <ip4_reass+0x12c>
 8009f5c:	687d      	ldr	r5, [r7, #4]
 8009f5e:	8868      	ldrh	r0, [r5, #2]
 8009f60:	f7fb f9fa 	bl	8005358 <lwip_htons>
 8009f64:	782b      	ldrb	r3, [r5, #0]
 8009f66:	f003 030f 	and.w	r3, r3, #15
 8009f6a:	eba0 0383 	sub.w	r3, r0, r3, lsl #2
 8009f6e:	88e8      	ldrh	r0, [r5, #6]
 8009f70:	fa1f fa83 	uxth.w	sl, r3
 8009f74:	f7fb f9f0 	bl	8005358 <lwip_htons>
 8009f78:	f3c0 000c 	ubfx	r0, r0, #0, #13
 8009f7c:	687e      	ldr	r6, [r7, #4]
 8009f7e:	00c0      	lsls	r0, r0, #3
 8009f80:	f8d4 c004 	ldr.w	ip, [r4, #4]
 8009f84:	2500      	movs	r5, #0
 8009f86:	eb0a 0300 	add.w	r3, sl, r0
 8009f8a:	b29a      	uxth	r2, r3
 8009f8c:	80f3      	strh	r3, [r6, #6]
 8009f8e:	f04f 0a01 	mov.w	sl, #1
 8009f92:	4663      	mov	r3, ip
 8009f94:	7035      	strb	r5, [r6, #0]
 8009f96:	7075      	strb	r5, [r6, #1]
 8009f98:	70b5      	strb	r5, [r6, #2]
 8009f9a:	70f5      	strb	r5, [r6, #3]
 8009f9c:	80b0      	strh	r0, [r6, #4]
 8009f9e:	bb5b      	cbnz	r3, 8009ff8 <ip4_reass+0x154>
 8009fa0:	2d00      	cmp	r5, #0
 8009fa2:	f040 80a2 	bne.w	800a0ea <ip4_reass+0x246>
 8009fa6:	f1bc 0f00 	cmp.w	ip, #0
 8009faa:	f000 808d 	beq.w	800a0c8 <ip4_reass+0x224>
 8009fae:	f240 12b3 	movw	r2, #435	; 0x1b3
 8009fb2:	4b79      	ldr	r3, [pc, #484]	; (800a198 <ip4_reass+0x2f4>)
 8009fb4:	4979      	ldr	r1, [pc, #484]	; (800a19c <ip4_reass+0x2f8>)
 8009fb6:	487a      	ldr	r0, [pc, #488]	; (800a1a0 <ip4_reass+0x2fc>)
 8009fb8:	f000 fc5e 	bl	800a878 <iprintf>
 8009fbc:	e084      	b.n	800a0c8 <ip4_reass+0x224>
 8009fbe:	4601      	mov	r1, r0
 8009fc0:	4628      	mov	r0, r5
 8009fc2:	f7ff feed 	bl	8009da0 <ip_reass_remove_oldest_datagram>
 8009fc6:	b118      	cbz	r0, 8009fd0 <ip4_reass+0x12c>
 8009fc8:	8823      	ldrh	r3, [r4, #0]
 8009fca:	444b      	add	r3, r9
 8009fcc:	2b0a      	cmp	r3, #10
 8009fce:	dd8d      	ble.n	8009eec <ip4_reass+0x48>
 8009fd0:	4638      	mov	r0, r7
 8009fd2:	f7fb fd77 	bl	8005ac4 <pbuf_free>
 8009fd6:	2600      	movs	r6, #0
 8009fd8:	e070      	b.n	800a0bc <ip4_reass+0x218>
 8009fda:	68eb      	ldr	r3, [r5, #12]
 8009fdc:	6962      	ldr	r2, [r4, #20]
 8009fde:	429a      	cmp	r2, r3
 8009fe0:	d108      	bne.n	8009ff4 <ip4_reass+0x150>
 8009fe2:	692b      	ldr	r3, [r5, #16]
 8009fe4:	69a2      	ldr	r2, [r4, #24]
 8009fe6:	429a      	cmp	r2, r3
 8009fe8:	d104      	bne.n	8009ff4 <ip4_reass+0x150>
 8009fea:	89a2      	ldrh	r2, [r4, #12]
 8009fec:	88ab      	ldrh	r3, [r5, #4]
 8009fee:	429a      	cmp	r2, r3
 8009ff0:	f000 80de 	beq.w	800a1b0 <ip4_reass+0x30c>
 8009ff4:	6824      	ldr	r4, [r4, #0]
 8009ff6:	e77b      	b.n	8009ef0 <ip4_reass+0x4c>
 8009ff8:	f8d3 e004 	ldr.w	lr, [r3, #4]
 8009ffc:	f8be 1004 	ldrh.w	r1, [lr, #4]
 800a000:	4288      	cmp	r0, r1
 800a002:	d263      	bcs.n	800a0cc <ip4_reass+0x228>
 800a004:	6033      	str	r3, [r6, #0]
 800a006:	2d00      	cmp	r5, #0
 800a008:	d05c      	beq.n	800a0c4 <ip4_reass+0x220>
 800a00a:	88eb      	ldrh	r3, [r5, #6]
 800a00c:	4298      	cmp	r0, r3
 800a00e:	f0c0 80a1 	bcc.w	800a154 <ip4_reass+0x2b0>
 800a012:	428a      	cmp	r2, r1
 800a014:	f200 809e 	bhi.w	800a154 <ip4_reass+0x2b0>
 800a018:	602f      	str	r7, [r5, #0]
 800a01a:	4298      	cmp	r0, r3
 800a01c:	f040 80e4 	bne.w	800a1e8 <ip4_reass+0x344>
 800a020:	f1bb 0f00 	cmp.w	fp, #0
 800a024:	d004      	beq.n	800a030 <ip4_reass+0x18c>
 800a026:	7fa3      	ldrb	r3, [r4, #30]
 800a028:	f013 0301 	ands.w	r3, r3, #1
 800a02c:	f000 809d 	beq.w	800a16a <ip4_reass+0x2c6>
 800a030:	f1ba 0f00 	cmp.w	sl, #0
 800a034:	d168      	bne.n	800a108 <ip4_reass+0x264>
 800a036:	f04f 0a00 	mov.w	sl, #0
 800a03a:	4f55      	ldr	r7, [pc, #340]	; (800a190 <ip4_reass+0x2ec>)
 800a03c:	8838      	ldrh	r0, [r7, #0]
 800a03e:	4481      	add	r9, r0
 800a040:	f8a7 9000 	strh.w	r9, [r7]
 800a044:	f1bb 0f00 	cmp.w	fp, #0
 800a048:	d107      	bne.n	800a05a <ip4_reass+0x1b6>
 800a04a:	9b01      	ldr	r3, [sp, #4]
 800a04c:	4498      	add	r8, r3
 800a04e:	7fa3      	ldrb	r3, [r4, #30]
 800a050:	f8a4 801c 	strh.w	r8, [r4, #28]
 800a054:	f043 0301 	orr.w	r3, r3, #1
 800a058:	77a3      	strb	r3, [r4, #30]
 800a05a:	f1ba 0f01 	cmp.w	sl, #1
 800a05e:	d1ba      	bne.n	8009fd6 <ip4_reass+0x132>
 800a060:	8ba3      	ldrh	r3, [r4, #28]
 800a062:	f104 011c 	add.w	r1, r4, #28
 800a066:	3314      	adds	r3, #20
 800a068:	83a3      	strh	r3, [r4, #28]
 800a06a:	6863      	ldr	r3, [r4, #4]
 800a06c:	685e      	ldr	r6, [r3, #4]
 800a06e:	f104 0308 	add.w	r3, r4, #8
 800a072:	4632      	mov	r2, r6
 800a074:	6835      	ldr	r5, [r6, #0]
 800a076:	f853 0b04 	ldr.w	r0, [r3], #4
 800a07a:	428b      	cmp	r3, r1
 800a07c:	f842 0b04 	str.w	r0, [r2], #4
 800a080:	d1f9      	bne.n	800a076 <ip4_reass+0x1d2>
 800a082:	8ba0      	ldrh	r0, [r4, #28]
 800a084:	f7fb f968 	bl	8005358 <lwip_htons>
 800a088:	2300      	movs	r3, #0
 800a08a:	8070      	strh	r0, [r6, #2]
 800a08c:	71b3      	strb	r3, [r6, #6]
 800a08e:	71f3      	strb	r3, [r6, #7]
 800a090:	72b3      	strb	r3, [r6, #10]
 800a092:	72f3      	strb	r3, [r6, #11]
 800a094:	6866      	ldr	r6, [r4, #4]
 800a096:	2d00      	cmp	r5, #0
 800a098:	d169      	bne.n	800a16e <ip4_reass+0x2ca>
 800a09a:	4b3e      	ldr	r3, [pc, #248]	; (800a194 <ip4_reass+0x2f0>)
 800a09c:	681b      	ldr	r3, [r3, #0]
 800a09e:	42a3      	cmp	r3, r4
 800a0a0:	d002      	beq.n	800a0a8 <ip4_reass+0x204>
 800a0a2:	461d      	mov	r5, r3
 800a0a4:	2b00      	cmp	r3, #0
 800a0a6:	d170      	bne.n	800a18a <ip4_reass+0x2e6>
 800a0a8:	4629      	mov	r1, r5
 800a0aa:	4620      	mov	r0, r4
 800a0ac:	f7ff fde2 	bl	8009c74 <ip_reass_dequeue_datagram>
 800a0b0:	4630      	mov	r0, r6
 800a0b2:	f7fb feaf 	bl	8005e14 <pbuf_clen>
 800a0b6:	883b      	ldrh	r3, [r7, #0]
 800a0b8:	1a1b      	subs	r3, r3, r0
 800a0ba:	803b      	strh	r3, [r7, #0]
 800a0bc:	4630      	mov	r0, r6
 800a0be:	b003      	add	sp, #12
 800a0c0:	e8bd 8ff0 	ldmia.w	sp!, {r4, r5, r6, r7, r8, r9, sl, fp, pc}
 800a0c4:	428a      	cmp	r2, r1
 800a0c6:	d845      	bhi.n	800a154 <ip4_reass+0x2b0>
 800a0c8:	6067      	str	r7, [r4, #4]
 800a0ca:	e7a9      	b.n	800a020 <ip4_reass+0x17c>
 800a0cc:	d042      	beq.n	800a154 <ip4_reass+0x2b0>
 800a0ce:	f8be 3006 	ldrh.w	r3, [lr, #6]
 800a0d2:	4283      	cmp	r3, r0
 800a0d4:	d83e      	bhi.n	800a154 <ip4_reass+0x2b0>
 800a0d6:	b125      	cbz	r5, 800a0e2 <ip4_reass+0x23e>
 800a0d8:	88eb      	ldrh	r3, [r5, #6]
 800a0da:	428b      	cmp	r3, r1
 800a0dc:	bf18      	it	ne
 800a0de:	f04f 0a00 	movne.w	sl, #0
 800a0e2:	4675      	mov	r5, lr
 800a0e4:	f8de 3000 	ldr.w	r3, [lr]
 800a0e8:	e759      	b.n	8009f9e <ip4_reass+0xfa>
 800a0ea:	88eb      	ldrh	r3, [r5, #6]
 800a0ec:	4283      	cmp	r3, r0
 800a0ee:	d906      	bls.n	800a0fe <ip4_reass+0x25a>
 800a0f0:	f240 12ab 	movw	r2, #427	; 0x1ab
 800a0f4:	4b28      	ldr	r3, [pc, #160]	; (800a198 <ip4_reass+0x2f4>)
 800a0f6:	492b      	ldr	r1, [pc, #172]	; (800a1a4 <ip4_reass+0x300>)
 800a0f8:	4829      	ldr	r0, [pc, #164]	; (800a1a0 <ip4_reass+0x2fc>)
 800a0fa:	f000 fbbd 	bl	800a878 <iprintf>
 800a0fe:	602f      	str	r7, [r5, #0]
 800a100:	88ea      	ldrh	r2, [r5, #6]
 800a102:	88b3      	ldrh	r3, [r6, #4]
 800a104:	429a      	cmp	r2, r3
 800a106:	e789      	b.n	800a01c <ip4_reass+0x178>
 800a108:	6863      	ldr	r3, [r4, #4]
 800a10a:	2b00      	cmp	r3, #0
 800a10c:	d093      	beq.n	800a036 <ip4_reass+0x192>
 800a10e:	6859      	ldr	r1, [r3, #4]
 800a110:	888b      	ldrh	r3, [r1, #4]
 800a112:	2b00      	cmp	r3, #0
 800a114:	d18f      	bne.n	800a036 <ip4_reass+0x192>
 800a116:	6833      	ldr	r3, [r6, #0]
 800a118:	b99b      	cbnz	r3, 800a142 <ip4_reass+0x29e>
 800a11a:	42b1      	cmp	r1, r6
 800a11c:	d106      	bne.n	800a12c <ip4_reass+0x288>
 800a11e:	f240 12d5 	movw	r2, #469	; 0x1d5
 800a122:	4b1d      	ldr	r3, [pc, #116]	; (800a198 <ip4_reass+0x2f4>)
 800a124:	4920      	ldr	r1, [pc, #128]	; (800a1a8 <ip4_reass+0x304>)
 800a126:	481e      	ldr	r0, [pc, #120]	; (800a1a0 <ip4_reass+0x2fc>)
 800a128:	f000 fba6 	bl	800a878 <iprintf>
 800a12c:	6833      	ldr	r3, [r6, #0]
 800a12e:	2b00      	cmp	r3, #0
 800a130:	d083      	beq.n	800a03a <ip4_reass+0x196>
 800a132:	f240 12d7 	movw	r2, #471	; 0x1d7
 800a136:	4b18      	ldr	r3, [pc, #96]	; (800a198 <ip4_reass+0x2f4>)
 800a138:	491c      	ldr	r1, [pc, #112]	; (800a1ac <ip4_reass+0x308>)
 800a13a:	4819      	ldr	r0, [pc, #100]	; (800a1a0 <ip4_reass+0x2fc>)
 800a13c:	f000 fb9c 	bl	800a878 <iprintf>
 800a140:	e77b      	b.n	800a03a <ip4_reass+0x196>
 800a142:	685a      	ldr	r2, [r3, #4]
 800a144:	88f0      	ldrh	r0, [r6, #6]
 800a146:	8893      	ldrh	r3, [r2, #4]
 800a148:	4298      	cmp	r0, r3
 800a14a:	f47f af74 	bne.w	800a036 <ip4_reass+0x192>
 800a14e:	4616      	mov	r6, r2
 800a150:	6813      	ldr	r3, [r2, #0]
 800a152:	e7e1      	b.n	800a118 <ip4_reass+0x274>
 800a154:	4638      	mov	r0, r7
 800a156:	f7fb fe5d 	bl	8005e14 <pbuf_clen>
 800a15a:	4a0d      	ldr	r2, [pc, #52]	; (800a190 <ip4_reass+0x2ec>)
 800a15c:	8813      	ldrh	r3, [r2, #0]
 800a15e:	1a1b      	subs	r3, r3, r0
 800a160:	4638      	mov	r0, r7
 800a162:	8013      	strh	r3, [r2, #0]
 800a164:	f7fb fcae 	bl	8005ac4 <pbuf_free>
 800a168:	e732      	b.n	8009fd0 <ip4_reass+0x12c>
 800a16a:	469a      	mov	sl, r3
 800a16c:	e765      	b.n	800a03a <ip4_reass+0x196>
 800a16e:	f06f 0113 	mvn.w	r1, #19
 800a172:	4628      	mov	r0, r5
 800a174:	f8d5 8004 	ldr.w	r8, [r5, #4]
 800a178:	f7fb fc9e 	bl	8005ab8 <pbuf_header>
 800a17c:	4629      	mov	r1, r5
 800a17e:	4630      	mov	r0, r6
 800a180:	f7fb fe64 	bl	8005e4c <pbuf_cat>
 800a184:	f8d8 5000 	ldr.w	r5, [r8]
 800a188:	e785      	b.n	800a096 <ip4_reass+0x1f2>
 800a18a:	682b      	ldr	r3, [r5, #0]
 800a18c:	e787      	b.n	800a09e <ip4_reass+0x1fa>
 800a18e:	bf00      	nop
 800a190:	2000054c 	.word	0x2000054c
 800a194:	20000550 	.word	0x20000550
 800a198:	0800cf3c 	.word	0x0800cf3c
 800a19c:	0800d00e 	.word	0x0800d00e
 800a1a0:	0800bcae 	.word	0x0800bcae
 800a1a4:	0800cff0 	.word	0x0800cff0
 800a1a8:	0800d045 	.word	0x0800d045
 800a1ac:	0800d052 	.word	0x0800d052
 800a1b0:	88e8      	ldrh	r0, [r5, #6]
 800a1b2:	f7fb f8d1 	bl	8005358 <lwip_htons>
 800a1b6:	f3c0 000c 	ubfx	r0, r0, #0, #13
 800a1ba:	2800      	cmp	r0, #0
 800a1bc:	f47f aec0 	bne.w	8009f40 <ip4_reass+0x9c>
 800a1c0:	89e0      	ldrh	r0, [r4, #14]
 800a1c2:	f7fb f8c9 	bl	8005358 <lwip_htons>
 800a1c6:	f3c0 000c 	ubfx	r0, r0, #0, #13
 800a1ca:	2800      	cmp	r0, #0
 800a1cc:	f43f aeb8 	beq.w	8009f40 <ip4_reass+0x9c>
 800a1d0:	462b      	mov	r3, r5
 800a1d2:	f104 0208 	add.w	r2, r4, #8
 800a1d6:	f105 0114 	add.w	r1, r5, #20
 800a1da:	f853 0b04 	ldr.w	r0, [r3], #4
 800a1de:	428b      	cmp	r3, r1
 800a1e0:	f842 0b04 	str.w	r0, [r2], #4
 800a1e4:	d1f9      	bne.n	800a1da <ip4_reass+0x336>
 800a1e6:	e6ab      	b.n	8009f40 <ip4_reass+0x9c>
 800a1e8:	f1bb 0f00 	cmp.w	fp, #0
 800a1ec:	f43f af23 	beq.w	800a036 <ip4_reass+0x192>
 800a1f0:	f04f 0a00 	mov.w	sl, #0
 800a1f4:	e717      	b.n	800a026 <ip4_reass+0x182>
 800a1f6:	bf00      	nop

0800a1f8 <ip4_frag>:
 800a1f8:	e92d 4ff0 	stmdb	sp!, {r4, r5, r6, r7, r8, r9, sl, fp, lr}
 800a1fc:	b08b      	sub	sp, #44	; 0x2c
 800a1fe:	9207      	str	r2, [sp, #28]
 800a200:	8cca      	ldrh	r2, [r1, #38]	; 0x26
 800a202:	4606      	mov	r6, r0
 800a204:	f1b2 0314 	subs.w	r3, r2, #20
 800a208:	bf48      	it	mi
 800a20a:	f1a2 030d 	submi.w	r3, r2, #13
 800a20e:	ea4f 08e3 	mov.w	r8, r3, asr #3
 800a212:	f3c3 03cf 	ubfx	r3, r3, #3, #16
 800a216:	9306      	str	r3, [sp, #24]
 800a218:	6843      	ldr	r3, [r0, #4]
 800a21a:	468a      	mov	sl, r1
 800a21c:	9302      	str	r3, [sp, #8]
 800a21e:	781b      	ldrb	r3, [r3, #0]
 800a220:	f003 030f 	and.w	r3, r3, #15
 800a224:	2b05      	cmp	r3, #5
 800a226:	ea4f 0783 	mov.w	r7, r3, lsl #2
 800a22a:	d00b      	beq.n	800a244 <ip4_frag+0x4c>
 800a22c:	f240 22e1 	movw	r2, #737	; 0x2e1
 800a230:	4b5a      	ldr	r3, [pc, #360]	; (800a39c <ip4_frag+0x1a4>)
 800a232:	495b      	ldr	r1, [pc, #364]	; (800a3a0 <ip4_frag+0x1a8>)
 800a234:	485b      	ldr	r0, [pc, #364]	; (800a3a4 <ip4_frag+0x1ac>)
 800a236:	f000 fb1f 	bl	800a878 <iprintf>
 800a23a:	f06f 0005 	mvn.w	r0, #5
 800a23e:	b00b      	add	sp, #44	; 0x2c
 800a240:	e8bd 8ff0 	ldmia.w	sp!, {r4, r5, r6, r7, r8, r9, sl, fp, pc}
 800a244:	9b02      	ldr	r3, [sp, #8]
 800a246:	88d8      	ldrh	r0, [r3, #6]
 800a248:	f7fb f886 	bl	8005358 <lwip_htons>
 800a24c:	f3c0 030c 	ubfx	r3, r0, #0, #13
 800a250:	f410 5400 	ands.w	r4, r0, #8192	; 0x2000
 800a254:	9303      	str	r3, [sp, #12]
 800a256:	d004      	beq.n	800a262 <ip4_frag+0x6a>
 800a258:	f240 22e6 	movw	r2, #742	; 0x2e6
 800a25c:	4b4f      	ldr	r3, [pc, #316]	; (800a39c <ip4_frag+0x1a4>)
 800a25e:	4952      	ldr	r1, [pc, #328]	; (800a3a8 <ip4_frag+0x1b0>)
 800a260:	e7e8      	b.n	800a234 <ip4_frag+0x3c>
 800a262:	8935      	ldrh	r5, [r6, #8]
 800a264:	fa1f f888 	uxth.w	r8, r8
 800a268:	3d14      	subs	r5, #20
 800a26a:	ea4f 03c8 	mov.w	r3, r8, lsl #3
 800a26e:	b2ad      	uxth	r5, r5
 800a270:	9305      	str	r3, [sp, #20]
 800a272:	b90d      	cbnz	r5, 800a278 <ip4_frag+0x80>
 800a274:	4628      	mov	r0, r5
 800a276:	e7e2      	b.n	800a23e <ip4_frag+0x46>
 800a278:	9b05      	ldr	r3, [sp, #20]
 800a27a:	2200      	movs	r2, #0
 800a27c:	42ab      	cmp	r3, r5
 800a27e:	bfa8      	it	ge
 800a280:	462b      	movge	r3, r5
 800a282:	2114      	movs	r1, #20
 800a284:	b29b      	uxth	r3, r3
 800a286:	2002      	movs	r0, #2
 800a288:	9304      	str	r3, [sp, #16]
 800a28a:	f7fb fc7f 	bl	8005b8c <pbuf_alloc>
 800a28e:	4680      	mov	r8, r0
 800a290:	b368      	cbz	r0, 800a2ee <ip4_frag+0xf6>
 800a292:	8973      	ldrh	r3, [r6, #10]
 800a294:	2b13      	cmp	r3, #19
 800a296:	d806      	bhi.n	800a2a6 <ip4_frag+0xae>
 800a298:	f44f 7242 	mov.w	r2, #776	; 0x308
 800a29c:	4b3f      	ldr	r3, [pc, #252]	; (800a39c <ip4_frag+0x1a4>)
 800a29e:	4943      	ldr	r1, [pc, #268]	; (800a3ac <ip4_frag+0x1b4>)
 800a2a0:	4840      	ldr	r0, [pc, #256]	; (800a3a4 <ip4_frag+0x1ac>)
 800a2a2:	f000 fae9 	bl	800a878 <iprintf>
 800a2a6:	9b02      	ldr	r3, [sp, #8]
 800a2a8:	f8d8 2004 	ldr.w	r2, [r8, #4]
 800a2ac:	4619      	mov	r1, r3
 800a2ae:	3114      	adds	r1, #20
 800a2b0:	f853 0b04 	ldr.w	r0, [r3], #4
 800a2b4:	428b      	cmp	r3, r1
 800a2b6:	f842 0b04 	str.w	r0, [r2], #4
 800a2ba:	d1f9      	bne.n	800a2b0 <ip4_frag+0xb8>
 800a2bc:	f8d8 b004 	ldr.w	fp, [r8, #4]
 800a2c0:	f8dd 9010 	ldr.w	r9, [sp, #16]
 800a2c4:	f1b9 0f00 	cmp.w	r9, #0
 800a2c8:	d038      	beq.n	800a33c <ip4_frag+0x144>
 800a2ca:	8974      	ldrh	r4, [r6, #10]
 800a2cc:	1be4      	subs	r4, r4, r7
 800a2ce:	b2a4      	uxth	r4, r4
 800a2d0:	454c      	cmp	r4, r9
 800a2d2:	bf28      	it	cs
 800a2d4:	464c      	movcs	r4, r9
 800a2d6:	b914      	cbnz	r4, 800a2de <ip4_frag+0xe6>
 800a2d8:	2700      	movs	r7, #0
 800a2da:	6836      	ldr	r6, [r6, #0]
 800a2dc:	e7f2      	b.n	800a2c4 <ip4_frag+0xcc>
 800a2de:	2005      	movs	r0, #5
 800a2e0:	f7fb fa70 	bl	80057c4 <memp_malloc>
 800a2e4:	4603      	mov	r3, r0
 800a2e6:	b928      	cbnz	r0, 800a2f4 <ip4_frag+0xfc>
 800a2e8:	4640      	mov	r0, r8
 800a2ea:	f7fb fbeb 	bl	8005ac4 <pbuf_free>
 800a2ee:	f04f 30ff 	mov.w	r0, #4294967295
 800a2f2:	e7a4      	b.n	800a23e <ip4_frag+0x46>
 800a2f4:	9401      	str	r4, [sp, #4]
 800a2f6:	6872      	ldr	r2, [r6, #4]
 800a2f8:	9008      	str	r0, [sp, #32]
 800a2fa:	443a      	add	r2, r7
 800a2fc:	9200      	str	r2, [sp, #0]
 800a2fe:	4621      	mov	r1, r4
 800a300:	2202      	movs	r2, #2
 800a302:	2004      	movs	r0, #4
 800a304:	f7fb fba8 	bl	8005a58 <pbuf_alloced_custom>
 800a308:	9b08      	ldr	r3, [sp, #32]
 800a30a:	b918      	cbnz	r0, 800a314 <ip4_frag+0x11c>
 800a30c:	4618      	mov	r0, r3
 800a30e:	f7ff fd83 	bl	8009e18 <ip_frag_free_pbuf_custom_ref>
 800a312:	e7e9      	b.n	800a2e8 <ip4_frag+0xf0>
 800a314:	e9cd 0308 	strd	r0, r3, [sp, #32]
 800a318:	4630      	mov	r0, r6
 800a31a:	f7fb fd83 	bl	8005e24 <pbuf_ref>
 800a31e:	9b09      	ldr	r3, [sp, #36]	; 0x24
 800a320:	4a23      	ldr	r2, [pc, #140]	; (800a3b0 <ip4_frag+0x1b8>)
 800a322:	eba9 0904 	sub.w	r9, r9, r4
 800a326:	4640      	mov	r0, r8
 800a328:	9908      	ldr	r1, [sp, #32]
 800a32a:	615e      	str	r6, [r3, #20]
 800a32c:	611a      	str	r2, [r3, #16]
 800a32e:	fa1f f989 	uxth.w	r9, r9
 800a332:	f7fb fd8b 	bl	8005e4c <pbuf_cat>
 800a336:	f1b9 0f00 	cmp.w	r9, #0
 800a33a:	d1cd      	bne.n	800a2d8 <ip4_frag+0xe0>
 800a33c:	9b03      	ldr	r3, [sp, #12]
 800a33e:	4427      	add	r7, r4
 800a340:	f3c3 000c 	ubfx	r0, r3, #0, #13
 800a344:	f8ba 3026 	ldrh.w	r3, [sl, #38]	; 0x26
 800a348:	b2bf      	uxth	r7, r7
 800a34a:	3b13      	subs	r3, #19
 800a34c:	429d      	cmp	r5, r3
 800a34e:	bfa8      	it	ge
 800a350:	f440 5000 	orrge.w	r0, r0, #8192	; 0x2000
 800a354:	f7fb f800 	bl	8005358 <lwip_htons>
 800a358:	9b04      	ldr	r3, [sp, #16]
 800a35a:	f8ab 0006 	strh.w	r0, [fp, #6]
 800a35e:	f103 0014 	add.w	r0, r3, #20
 800a362:	b280      	uxth	r0, r0
 800a364:	f7fa fff8 	bl	8005358 <lwip_htons>
 800a368:	2300      	movs	r3, #0
 800a36a:	9a07      	ldr	r2, [sp, #28]
 800a36c:	4641      	mov	r1, r8
 800a36e:	f8ab 0002 	strh.w	r0, [fp, #2]
 800a372:	f88b 300a 	strb.w	r3, [fp, #10]
 800a376:	f88b 300b 	strb.w	r3, [fp, #11]
 800a37a:	4650      	mov	r0, sl
 800a37c:	f8da 3014 	ldr.w	r3, [sl, #20]
 800a380:	4798      	blx	r3
 800a382:	4640      	mov	r0, r8
 800a384:	f7fb fb9e 	bl	8005ac4 <pbuf_free>
 800a388:	9b04      	ldr	r3, [sp, #16]
 800a38a:	9a06      	ldr	r2, [sp, #24]
 800a38c:	1aed      	subs	r5, r5, r3
 800a38e:	9b03      	ldr	r3, [sp, #12]
 800a390:	b2ad      	uxth	r5, r5
 800a392:	4413      	add	r3, r2
 800a394:	b29b      	uxth	r3, r3
 800a396:	9303      	str	r3, [sp, #12]
 800a398:	e76b      	b.n	800a272 <ip4_frag+0x7a>
 800a39a:	bf00      	nop
 800a39c:	0800cf3c 	.word	0x0800cf3c
 800a3a0:	0800d074 	.word	0x0800d074
 800a3a4:	0800bcae 	.word	0x0800bcae
 800a3a8:	0800d09b 	.word	0x0800d09b
 800a3ac:	0800d0b5 	.word	0x0800d0b5
 800a3b0:	08009e45 	.word	0x08009e45

0800a3b4 <ethernet_input>:
 800a3b4:	8943      	ldrh	r3, [r0, #10]
 800a3b6:	b570      	push	{r4, r5, r6, lr}
 800a3b8:	2b0e      	cmp	r3, #14
 800a3ba:	4604      	mov	r4, r0
 800a3bc:	460d      	mov	r5, r1
 800a3be:	d914      	bls.n	800a3ea <ethernet_input+0x36>
 800a3c0:	6840      	ldr	r0, [r0, #4]
 800a3c2:	7803      	ldrb	r3, [r0, #0]
 800a3c4:	8986      	ldrh	r6, [r0, #12]
 800a3c6:	07d9      	lsls	r1, r3, #31
 800a3c8:	d50a      	bpl.n	800a3e0 <ethernet_input+0x2c>
 800a3ca:	2b01      	cmp	r3, #1
 800a3cc:	d111      	bne.n	800a3f2 <ethernet_input+0x3e>
 800a3ce:	7843      	ldrb	r3, [r0, #1]
 800a3d0:	b933      	cbnz	r3, 800a3e0 <ethernet_input+0x2c>
 800a3d2:	7883      	ldrb	r3, [r0, #2]
 800a3d4:	2b5e      	cmp	r3, #94	; 0x5e
 800a3d6:	d103      	bne.n	800a3e0 <ethernet_input+0x2c>
 800a3d8:	7b63      	ldrb	r3, [r4, #13]
 800a3da:	f043 0310 	orr.w	r3, r3, #16
 800a3de:	7363      	strb	r3, [r4, #13]
 800a3e0:	2e08      	cmp	r6, #8
 800a3e2:	d010      	beq.n	800a406 <ethernet_input+0x52>
 800a3e4:	f5b6 6fc1 	cmp.w	r6, #1544	; 0x608
 800a3e8:	d01e      	beq.n	800a428 <ethernet_input+0x74>
 800a3ea:	4620      	mov	r0, r4
 800a3ec:	f7fb fb6a 	bl	8005ac4 <pbuf_free>
 800a3f0:	e018      	b.n	800a424 <ethernet_input+0x70>
 800a3f2:	2206      	movs	r2, #6
 800a3f4:	4914      	ldr	r1, [pc, #80]	; (800a448 <ethernet_input+0x94>)
 800a3f6:	f000 f95b 	bl	800a6b0 <memcmp>
 800a3fa:	2800      	cmp	r0, #0
 800a3fc:	d1f0      	bne.n	800a3e0 <ethernet_input+0x2c>
 800a3fe:	7b63      	ldrb	r3, [r4, #13]
 800a400:	f043 0308 	orr.w	r3, r3, #8
 800a404:	e7eb      	b.n	800a3de <ethernet_input+0x2a>
 800a406:	f895 302f 	ldrb.w	r3, [r5, #47]	; 0x2f
 800a40a:	071a      	lsls	r2, r3, #28
 800a40c:	d5ed      	bpl.n	800a3ea <ethernet_input+0x36>
 800a40e:	f06f 010d 	mvn.w	r1, #13
 800a412:	4620      	mov	r0, r4
 800a414:	f7fb fb50 	bl	8005ab8 <pbuf_header>
 800a418:	2800      	cmp	r0, #0
 800a41a:	d1e6      	bne.n	800a3ea <ethernet_input+0x36>
 800a41c:	4629      	mov	r1, r5
 800a41e:	4620      	mov	r0, r4
 800a420:	f7ff faba 	bl	8009998 <ip4_input>
 800a424:	2000      	movs	r0, #0
 800a426:	bd70      	pop	{r4, r5, r6, pc}
 800a428:	f895 302f 	ldrb.w	r3, [r5, #47]	; 0x2f
 800a42c:	071b      	lsls	r3, r3, #28
 800a42e:	d5dc      	bpl.n	800a3ea <ethernet_input+0x36>
 800a430:	f06f 010d 	mvn.w	r1, #13
 800a434:	4620      	mov	r0, r4
 800a436:	f7fb fb3f 	bl	8005ab8 <pbuf_header>
 800a43a:	2800      	cmp	r0, #0
 800a43c:	d1d5      	bne.n	800a3ea <ethernet_input+0x36>
 800a43e:	4629      	mov	r1, r5
 800a440:	4620      	mov	r0, r4
 800a442:	f7fe ff41 	bl	80092c8 <etharp_input>
 800a446:	e7ed      	b.n	800a424 <ethernet_input+0x70>
 800a448:	0800d13b 	.word	0x0800d13b

0800a44c <ethernet_output>:
 800a44c:	e92d 41f0 	stmdb	sp!, {r4, r5, r6, r7, r8, lr}
 800a450:	4604      	mov	r4, r0
 800a452:	f8bd 0018 	ldrh.w	r0, [sp, #24]
 800a456:	460d      	mov	r5, r1
 800a458:	4616      	mov	r6, r2
 800a45a:	461f      	mov	r7, r3
 800a45c:	f7fa ff7c 	bl	8005358 <lwip_htons>
 800a460:	210e      	movs	r1, #14
 800a462:	4680      	mov	r8, r0
 800a464:	4628      	mov	r0, r5
 800a466:	f7fb fb27 	bl	8005ab8 <pbuf_header>
 800a46a:	b9e0      	cbnz	r0, 800a4a6 <ethernet_output+0x5a>
 800a46c:	6869      	ldr	r1, [r5, #4]
 800a46e:	f8a1 800c 	strh.w	r8, [r1, #12]
 800a472:	683b      	ldr	r3, [r7, #0]
 800a474:	600b      	str	r3, [r1, #0]
 800a476:	88bb      	ldrh	r3, [r7, #4]
 800a478:	808b      	strh	r3, [r1, #4]
 800a47a:	6833      	ldr	r3, [r6, #0]
 800a47c:	f8c1 3006 	str.w	r3, [r1, #6]
 800a480:	88b3      	ldrh	r3, [r6, #4]
 800a482:	814b      	strh	r3, [r1, #10]
 800a484:	f894 3028 	ldrb.w	r3, [r4, #40]	; 0x28
 800a488:	2b06      	cmp	r3, #6
 800a48a:	d006      	beq.n	800a49a <ethernet_output+0x4e>
 800a48c:	f240 122b 	movw	r2, #299	; 0x12b
 800a490:	4b07      	ldr	r3, [pc, #28]	; (800a4b0 <ethernet_output+0x64>)
 800a492:	4908      	ldr	r1, [pc, #32]	; (800a4b4 <ethernet_output+0x68>)
 800a494:	4808      	ldr	r0, [pc, #32]	; (800a4b8 <ethernet_output+0x6c>)
 800a496:	f000 f9ef 	bl	800a878 <iprintf>
 800a49a:	4629      	mov	r1, r5
 800a49c:	4620      	mov	r0, r4
 800a49e:	69a3      	ldr	r3, [r4, #24]
 800a4a0:	e8bd 41f0 	ldmia.w	sp!, {r4, r5, r6, r7, r8, lr}
 800a4a4:	4718      	bx	r3
 800a4a6:	f06f 0001 	mvn.w	r0, #1
 800a4aa:	e8bd 81f0 	ldmia.w	sp!, {r4, r5, r6, r7, r8, pc}
 800a4ae:	bf00      	nop
 800a4b0:	0800d0d5 	.word	0x0800d0d5
 800a4b4:	0800d10a 	.word	0x0800d10a
 800a4b8:	0800bcae 	.word	0x0800bcae

0800a4bc <_ZdlPv>:
 800a4bc:	f000 b8e2 	b.w	800a684 <free>

0800a4c0 <_ZdlPvj>:
 800a4c0:	f7ff bffc 	b.w	800a4bc <_ZdlPv>

0800a4c4 <_Znwj>:
 800a4c4:	2801      	cmp	r0, #1
 800a4c6:	bf38      	it	cc
 800a4c8:	2001      	movcc	r0, #1
 800a4ca:	b510      	push	{r4, lr}
 800a4cc:	4604      	mov	r4, r0
 800a4ce:	4620      	mov	r0, r4
 800a4d0:	f000 f8d0 	bl	800a674 <malloc>
 800a4d4:	b930      	cbnz	r0, 800a4e4 <_Znwj+0x20>
 800a4d6:	f000 f899 	bl	800a60c <_ZSt15get_new_handlerv>
 800a4da:	b908      	cbnz	r0, 800a4e0 <_Znwj+0x1c>
 800a4dc:	f000 f89e 	bl	800a61c <abort>
 800a4e0:	4780      	blx	r0
 800a4e2:	e7f4      	b.n	800a4ce <_Znwj+0xa>
 800a4e4:	bd10      	pop	{r4, pc}

0800a4e6 <__cxa_pure_virtual>:
 800a4e6:	b508      	push	{r3, lr}
 800a4e8:	f000 f88a 	bl	800a600 <_ZSt9terminatev>

0800a4ec <_ZSt17__throw_bad_allocv>:
 800a4ec:	b508      	push	{r3, lr}
 800a4ee:	f000 f895 	bl	800a61c <abort>

0800a4f2 <_ZSt19__throw_logic_errorPKc>:
 800a4f2:	b508      	push	{r3, lr}
 800a4f4:	f000 f892 	bl	800a61c <abort>

0800a4f8 <_ZSt20__throw_length_errorPKc>:
 800a4f8:	b508      	push	{r3, lr}
 800a4fa:	f000 f88f 	bl	800a61c <abort>

0800a4fe <_ZNSt11char_traitsIcE4copyEPcPKcj>:
 800a4fe:	b10a      	cbz	r2, 800a504 <_ZNSt11char_traitsIcE4copyEPcPKcj+0x6>
 800a500:	f000 b8e4 	b.w	800a6cc <memcpy>
 800a504:	4770      	bx	lr
	...

0800a508 <_ZNSt7__cxx1112basic_stringIcSt11char_traitsIcESaIcEE9_M_createERjj>:
 800a508:	b508      	push	{r3, lr}
 800a50a:	680b      	ldr	r3, [r1, #0]
 800a50c:	f1b3 4f80 	cmp.w	r3, #1073741824	; 0x40000000
 800a510:	d302      	bcc.n	800a518 <_ZNSt7__cxx1112basic_stringIcSt11char_traitsIcESaIcEE9_M_createERjj+0x10>
 800a512:	480d      	ldr	r0, [pc, #52]	; (800a548 <_ZNSt7__cxx1112basic_stringIcSt11char_traitsIcESaIcEE9_M_createERjj+0x40>)
 800a514:	f7ff fff0 	bl	800a4f8 <_ZSt20__throw_length_errorPKc>
 800a518:	4293      	cmp	r3, r2
 800a51a:	d90b      	bls.n	800a534 <_ZNSt7__cxx1112basic_stringIcSt11char_traitsIcESaIcEE9_M_createERjj+0x2c>
 800a51c:	ebb3 0f42 	cmp.w	r3, r2, lsl #1
 800a520:	ea4f 0042 	mov.w	r0, r2, lsl #1
 800a524:	d206      	bcs.n	800a534 <_ZNSt7__cxx1112basic_stringIcSt11char_traitsIcESaIcEE9_M_createERjj+0x2c>
 800a526:	f1b0 4f80 	cmp.w	r0, #1073741824	; 0x40000000
 800a52a:	bf2a      	itet	cs
 800a52c:	f06f 4340 	mvncs.w	r3, #3221225472	; 0xc0000000
 800a530:	6008      	strcc	r0, [r1, #0]
 800a532:	600b      	strcs	r3, [r1, #0]
 800a534:	6808      	ldr	r0, [r1, #0]
 800a536:	3001      	adds	r0, #1
 800a538:	d501      	bpl.n	800a53e <_ZNSt7__cxx1112basic_stringIcSt11char_traitsIcESaIcEE9_M_createERjj+0x36>
 800a53a:	f7ff ffd7 	bl	800a4ec <_ZSt17__throw_bad_allocv>
 800a53e:	e8bd 4008 	ldmia.w	sp!, {r3, lr}
 800a542:	f7ff bfbf 	b.w	800a4c4 <_Znwj>
 800a546:	bf00      	nop
 800a548:	0800d147 	.word	0x0800d147

0800a54c <_ZNSt7__cxx1112basic_stringIcSt11char_traitsIcESaIcEE10_M_disposeEv>:
 800a54c:	4603      	mov	r3, r0
 800a54e:	f853 0b08 	ldr.w	r0, [r3], #8
 800a552:	4298      	cmp	r0, r3
 800a554:	d001      	beq.n	800a55a <_ZNSt7__cxx1112basic_stringIcSt11char_traitsIcESaIcEE10_M_disposeEv+0xe>
 800a556:	f7ff bfb1 	b.w	800a4bc <_ZdlPv>
 800a55a:	4770      	bx	lr

0800a55c <_ZNSt7__cxx1112basic_stringIcSt11char_traitsIcESaIcEE7_S_copyEPcPKcj>:
 800a55c:	2a01      	cmp	r2, #1
 800a55e:	b510      	push	{r4, lr}
 800a560:	d102      	bne.n	800a568 <_ZNSt7__cxx1112basic_stringIcSt11char_traitsIcESaIcEE7_S_copyEPcPKcj+0xc>
 800a562:	780a      	ldrb	r2, [r1, #0]
 800a564:	7002      	strb	r2, [r0, #0]
 800a566:	bd10      	pop	{r4, pc}
 800a568:	f7ff ffc9 	bl	800a4fe <_ZNSt11char_traitsIcE4copyEPcPKcj>
 800a56c:	e7fb      	b.n	800a566 <_ZNSt7__cxx1112basic_stringIcSt11char_traitsIcESaIcEE7_S_copyEPcPKcj+0xa>

0800a56e <_ZNSt7__cxx1112basic_stringIcSt11char_traitsIcESaIcEE13_S_copy_charsEPcS5_S5_>:
 800a56e:	b508      	push	{r3, lr}
 800a570:	1a52      	subs	r2, r2, r1
 800a572:	f7ff fff3 	bl	800a55c <_ZNSt7__cxx1112basic_stringIcSt11char_traitsIcESaIcEE7_S_copyEPcPKcj>
 800a576:	bd08      	pop	{r3, pc}

0800a578 <_ZNSt7__cxx1112basic_stringIcSt11char_traitsIcESaIcEE13_S_copy_charsEPcPKcS7_>:
 800a578:	b508      	push	{r3, lr}
 800a57a:	1a52      	subs	r2, r2, r1
 800a57c:	f7ff ffee 	bl	800a55c <_ZNSt7__cxx1112basic_stringIcSt11char_traitsIcESaIcEE7_S_copyEPcPKcj>
 800a580:	bd08      	pop	{r3, pc}
	...

0800a584 <_ZNSt7__cxx1112basic_stringIcSt11char_traitsIcESaIcEE12_M_constructIPcEEvT_S7_St20forward_iterator_tag>:
 800a584:	b573      	push	{r0, r1, r4, r5, r6, lr}
 800a586:	4604      	mov	r4, r0
 800a588:	4616      	mov	r6, r2
 800a58a:	460d      	mov	r5, r1
 800a58c:	b919      	cbnz	r1, 800a596 <_ZNSt7__cxx1112basic_stringIcSt11char_traitsIcESaIcEE12_M_constructIPcEEvT_S7_St20forward_iterator_tag+0x12>
 800a58e:	b112      	cbz	r2, 800a596 <_ZNSt7__cxx1112basic_stringIcSt11char_traitsIcESaIcEE12_M_constructIPcEEvT_S7_St20forward_iterator_tag+0x12>
 800a590:	480d      	ldr	r0, [pc, #52]	; (800a5c8 <_ZNSt7__cxx1112basic_stringIcSt11char_traitsIcESaIcEE12_M_constructIPcEEvT_S7_St20forward_iterator_tag+0x44>)
 800a592:	f7ff ffae 	bl	800a4f2 <_ZSt19__throw_logic_errorPKc>
 800a596:	1b73      	subs	r3, r6, r5
 800a598:	2b0f      	cmp	r3, #15
 800a59a:	9301      	str	r3, [sp, #4]
 800a59c:	d907      	bls.n	800a5ae <_ZNSt7__cxx1112basic_stringIcSt11char_traitsIcESaIcEE12_M_constructIPcEEvT_S7_St20forward_iterator_tag+0x2a>
 800a59e:	2200      	movs	r2, #0
 800a5a0:	4620      	mov	r0, r4
 800a5a2:	a901      	add	r1, sp, #4
 800a5a4:	f7ff ffb0 	bl	800a508 <_ZNSt7__cxx1112basic_stringIcSt11char_traitsIcESaIcEE9_M_createERjj>
 800a5a8:	9b01      	ldr	r3, [sp, #4]
 800a5aa:	6020      	str	r0, [r4, #0]
 800a5ac:	60a3      	str	r3, [r4, #8]
 800a5ae:	4632      	mov	r2, r6
 800a5b0:	4629      	mov	r1, r5
 800a5b2:	6820      	ldr	r0, [r4, #0]
 800a5b4:	f7ff ffdb 	bl	800a56e <_ZNSt7__cxx1112basic_stringIcSt11char_traitsIcESaIcEE13_S_copy_charsEPcS5_S5_>
 800a5b8:	2100      	movs	r1, #0
 800a5ba:	9b01      	ldr	r3, [sp, #4]
 800a5bc:	6822      	ldr	r2, [r4, #0]
 800a5be:	6063      	str	r3, [r4, #4]
 800a5c0:	54d1      	strb	r1, [r2, r3]
 800a5c2:	b002      	add	sp, #8
 800a5c4:	bd70      	pop	{r4, r5, r6, pc}
 800a5c6:	bf00      	nop
 800a5c8:	0800d15f 	.word	0x0800d15f

0800a5cc <_ZNSt7__cxx1112basic_stringIcSt11char_traitsIcESaIcEEC1ERKS4_>:
 800a5cc:	b510      	push	{r4, lr}
 800a5ce:	4604      	mov	r4, r0
 800a5d0:	f100 0208 	add.w	r2, r0, #8
 800a5d4:	6002      	str	r2, [r0, #0]
 800a5d6:	e9d1 1200 	ldrd	r1, r2, [r1]
 800a5da:	f04f 0300 	mov.w	r3, #0
 800a5de:	440a      	add	r2, r1
 800a5e0:	f7ff ffd0 	bl	800a584 <_ZNSt7__cxx1112basic_stringIcSt11char_traitsIcESaIcEE12_M_constructIPcEEvT_S7_St20forward_iterator_tag>
 800a5e4:	4620      	mov	r0, r4
 800a5e6:	bd10      	pop	{r4, pc}

0800a5e8 <_ZN10__cxxabiv111__terminateEPFvvE>:
 800a5e8:	b508      	push	{r3, lr}
 800a5ea:	4780      	blx	r0
 800a5ec:	f000 f816 	bl	800a61c <abort>

0800a5f0 <_ZSt13get_terminatev>:
 800a5f0:	4b02      	ldr	r3, [pc, #8]	; (800a5fc <_ZSt13get_terminatev+0xc>)
 800a5f2:	6818      	ldr	r0, [r3, #0]
 800a5f4:	f3bf 8f5b 	dmb	ish
 800a5f8:	4770      	bx	lr
 800a5fa:	bf00      	nop
 800a5fc:	20000018 	.word	0x20000018

0800a600 <_ZSt9terminatev>:
 800a600:	b508      	push	{r3, lr}
 800a602:	f7ff fff5 	bl	800a5f0 <_ZSt13get_terminatev>
 800a606:	f7ff ffef 	bl	800a5e8 <_ZN10__cxxabiv111__terminateEPFvvE>
	...

0800a60c <_ZSt15get_new_handlerv>:
 800a60c:	4b02      	ldr	r3, [pc, #8]	; (800a618 <_ZSt15get_new_handlerv+0xc>)
 800a60e:	6818      	ldr	r0, [r3, #0]
 800a610:	f3bf 8f5b 	dmb	ish
 800a614:	4770      	bx	lr
 800a616:	bf00      	nop
 800a618:	20000554 	.word	0x20000554

0800a61c <abort>:
 800a61c:	2006      	movs	r0, #6
 800a61e:	b508      	push	{r3, lr}
 800a620:	f000 f9f0 	bl	800aa04 <raise>
 800a624:	2001      	movs	r0, #1
 800a626:	f7f8 f809 	bl	800263c <_exit>
	...

0800a62c <__libc_init_array>:
 800a62c:	b570      	push	{r4, r5, r6, lr}
 800a62e:	2600      	movs	r6, #0
 800a630:	4d0c      	ldr	r5, [pc, #48]	; (800a664 <__libc_init_array+0x38>)
 800a632:	4c0d      	ldr	r4, [pc, #52]	; (800a668 <__libc_init_array+0x3c>)
 800a634:	1b64      	subs	r4, r4, r5
 800a636:	10a4      	asrs	r4, r4, #2
 800a638:	42a6      	cmp	r6, r4
 800a63a:	d109      	bne.n	800a650 <__libc_init_array+0x24>
 800a63c:	f001 f88a 	bl	800b754 <_init>
 800a640:	2600      	movs	r6, #0
 800a642:	4d0a      	ldr	r5, [pc, #40]	; (800a66c <__libc_init_array+0x40>)
 800a644:	4c0a      	ldr	r4, [pc, #40]	; (800a670 <__libc_init_array+0x44>)
 800a646:	1b64      	subs	r4, r4, r5
 800a648:	10a4      	asrs	r4, r4, #2
 800a64a:	42a6      	cmp	r6, r4
 800a64c:	d105      	bne.n	800a65a <__libc_init_array+0x2e>
 800a64e:	bd70      	pop	{r4, r5, r6, pc}
 800a650:	f855 3b04 	ldr.w	r3, [r5], #4
 800a654:	4798      	blx	r3
 800a656:	3601      	adds	r6, #1
 800a658:	e7ee      	b.n	800a638 <__libc_init_array+0xc>
 800a65a:	f855 3b04 	ldr.w	r3, [r5], #4
 800a65e:	4798      	blx	r3
 800a660:	3601      	adds	r6, #1
 800a662:	e7f2      	b.n	800a64a <__libc_init_array+0x1e>
 800a664:	0800d22c 	.word	0x0800d22c
 800a668:	0800d22c 	.word	0x0800d22c
 800a66c:	0800d22c 	.word	0x0800d22c
 800a670:	0800d230 	.word	0x0800d230

0800a674 <malloc>:
 800a674:	4b02      	ldr	r3, [pc, #8]	; (800a680 <malloc+0xc>)
 800a676:	4601      	mov	r1, r0
 800a678:	6818      	ldr	r0, [r3, #0]
 800a67a:	f000 b8a3 	b.w	800a7c4 <_malloc_r>
 800a67e:	bf00      	nop
 800a680:	2000001c 	.word	0x2000001c

0800a684 <free>:
 800a684:	4b02      	ldr	r3, [pc, #8]	; (800a690 <free+0xc>)
 800a686:	4601      	mov	r1, r0
 800a688:	6818      	ldr	r0, [r3, #0]
 800a68a:	f000 b84f 	b.w	800a72c <_free_r>
 800a68e:	bf00      	nop
 800a690:	2000001c 	.word	0x2000001c

0800a694 <memchr>:
 800a694:	4603      	mov	r3, r0
 800a696:	b510      	push	{r4, lr}
 800a698:	b2c9      	uxtb	r1, r1
 800a69a:	4402      	add	r2, r0
 800a69c:	4293      	cmp	r3, r2
 800a69e:	4618      	mov	r0, r3
 800a6a0:	d101      	bne.n	800a6a6 <memchr+0x12>
 800a6a2:	2000      	movs	r0, #0
 800a6a4:	e003      	b.n	800a6ae <memchr+0x1a>
 800a6a6:	7804      	ldrb	r4, [r0, #0]
 800a6a8:	3301      	adds	r3, #1
 800a6aa:	428c      	cmp	r4, r1
 800a6ac:	d1f6      	bne.n	800a69c <memchr+0x8>
 800a6ae:	bd10      	pop	{r4, pc}

0800a6b0 <memcmp>:
 800a6b0:	b530      	push	{r4, r5, lr}
 800a6b2:	2400      	movs	r4, #0
 800a6b4:	3901      	subs	r1, #1
 800a6b6:	42a2      	cmp	r2, r4
 800a6b8:	d101      	bne.n	800a6be <memcmp+0xe>
 800a6ba:	2000      	movs	r0, #0
 800a6bc:	e005      	b.n	800a6ca <memcmp+0x1a>
 800a6be:	5d03      	ldrb	r3, [r0, r4]
 800a6c0:	3401      	adds	r4, #1
 800a6c2:	5d0d      	ldrb	r5, [r1, r4]
 800a6c4:	42ab      	cmp	r3, r5
 800a6c6:	d0f6      	beq.n	800a6b6 <memcmp+0x6>
 800a6c8:	1b58      	subs	r0, r3, r5
 800a6ca:	bd30      	pop	{r4, r5, pc}

0800a6cc <memcpy>:
 800a6cc:	440a      	add	r2, r1
 800a6ce:	4291      	cmp	r1, r2
 800a6d0:	f100 33ff 	add.w	r3, r0, #4294967295
 800a6d4:	d100      	bne.n	800a6d8 <memcpy+0xc>
 800a6d6:	4770      	bx	lr
 800a6d8:	b510      	push	{r4, lr}
 800a6da:	f811 4b01 	ldrb.w	r4, [r1], #1
 800a6de:	4291      	cmp	r1, r2
 800a6e0:	f803 4f01 	strb.w	r4, [r3, #1]!
 800a6e4:	d1f9      	bne.n	800a6da <memcpy+0xe>
 800a6e6:	bd10      	pop	{r4, pc}

0800a6e8 <memmove>:
 800a6e8:	4288      	cmp	r0, r1
 800a6ea:	b510      	push	{r4, lr}
 800a6ec:	eb01 0402 	add.w	r4, r1, r2
 800a6f0:	d902      	bls.n	800a6f8 <memmove+0x10>
 800a6f2:	4284      	cmp	r4, r0
 800a6f4:	4623      	mov	r3, r4
 800a6f6:	d807      	bhi.n	800a708 <memmove+0x20>
 800a6f8:	1e43      	subs	r3, r0, #1
 800a6fa:	42a1      	cmp	r1, r4
 800a6fc:	d008      	beq.n	800a710 <memmove+0x28>
 800a6fe:	f811 2b01 	ldrb.w	r2, [r1], #1
 800a702:	f803 2f01 	strb.w	r2, [r3, #1]!
 800a706:	e7f8      	b.n	800a6fa <memmove+0x12>
 800a708:	4601      	mov	r1, r0
 800a70a:	4402      	add	r2, r0
 800a70c:	428a      	cmp	r2, r1
 800a70e:	d100      	bne.n	800a712 <memmove+0x2a>
 800a710:	bd10      	pop	{r4, pc}
 800a712:	f813 4d01 	ldrb.w	r4, [r3, #-1]!
 800a716:	f802 4d01 	strb.w	r4, [r2, #-1]!
 800a71a:	e7f7      	b.n	800a70c <memmove+0x24>

0800a71c <memset>:
 800a71c:	4603      	mov	r3, r0
 800a71e:	4402      	add	r2, r0
 800a720:	4293      	cmp	r3, r2
 800a722:	d100      	bne.n	800a726 <memset+0xa>
 800a724:	4770      	bx	lr
 800a726:	f803 1b01 	strb.w	r1, [r3], #1
 800a72a:	e7f9      	b.n	800a720 <memset+0x4>

0800a72c <_free_r>:
 800a72c:	b538      	push	{r3, r4, r5, lr}
 800a72e:	4605      	mov	r5, r0
 800a730:	2900      	cmp	r1, #0
 800a732:	d043      	beq.n	800a7bc <_free_r+0x90>
 800a734:	f851 3c04 	ldr.w	r3, [r1, #-4]
 800a738:	1f0c      	subs	r4, r1, #4
 800a73a:	2b00      	cmp	r3, #0
 800a73c:	bfb8      	it	lt
 800a73e:	18e4      	addlt	r4, r4, r3
 800a740:	f000 fc62 	bl	800b008 <__malloc_lock>
 800a744:	4a1e      	ldr	r2, [pc, #120]	; (800a7c0 <_free_r+0x94>)
 800a746:	6813      	ldr	r3, [r2, #0]
 800a748:	4610      	mov	r0, r2
 800a74a:	b933      	cbnz	r3, 800a75a <_free_r+0x2e>
 800a74c:	6063      	str	r3, [r4, #4]
 800a74e:	6014      	str	r4, [r2, #0]
 800a750:	4628      	mov	r0, r5
 800a752:	e8bd 4038 	ldmia.w	sp!, {r3, r4, r5, lr}
 800a756:	f000 bc5d 	b.w	800b014 <__malloc_unlock>
 800a75a:	42a3      	cmp	r3, r4
 800a75c:	d90a      	bls.n	800a774 <_free_r+0x48>
 800a75e:	6821      	ldr	r1, [r4, #0]
 800a760:	1862      	adds	r2, r4, r1
 800a762:	4293      	cmp	r3, r2
 800a764:	bf01      	itttt	eq
 800a766:	681a      	ldreq	r2, [r3, #0]
 800a768:	685b      	ldreq	r3, [r3, #4]
 800a76a:	1852      	addeq	r2, r2, r1
 800a76c:	6022      	streq	r2, [r4, #0]
 800a76e:	6063      	str	r3, [r4, #4]
 800a770:	6004      	str	r4, [r0, #0]
 800a772:	e7ed      	b.n	800a750 <_free_r+0x24>
 800a774:	461a      	mov	r2, r3
 800a776:	685b      	ldr	r3, [r3, #4]
 800a778:	b10b      	cbz	r3, 800a77e <_free_r+0x52>
 800a77a:	42a3      	cmp	r3, r4
 800a77c:	d9fa      	bls.n	800a774 <_free_r+0x48>
 800a77e:	6811      	ldr	r1, [r2, #0]
 800a780:	1850      	adds	r0, r2, r1
 800a782:	42a0      	cmp	r0, r4
 800a784:	d10b      	bne.n	800a79e <_free_r+0x72>
 800a786:	6820      	ldr	r0, [r4, #0]
 800a788:	4401      	add	r1, r0
 800a78a:	1850      	adds	r0, r2, r1
 800a78c:	4283      	cmp	r3, r0
 800a78e:	6011      	str	r1, [r2, #0]
 800a790:	d1de      	bne.n	800a750 <_free_r+0x24>
 800a792:	6818      	ldr	r0, [r3, #0]
 800a794:	685b      	ldr	r3, [r3, #4]
 800a796:	4401      	add	r1, r0
 800a798:	6011      	str	r1, [r2, #0]
 800a79a:	6053      	str	r3, [r2, #4]
 800a79c:	e7d8      	b.n	800a750 <_free_r+0x24>
 800a79e:	d902      	bls.n	800a7a6 <_free_r+0x7a>
 800a7a0:	230c      	movs	r3, #12
 800a7a2:	602b      	str	r3, [r5, #0]
 800a7a4:	e7d4      	b.n	800a750 <_free_r+0x24>
 800a7a6:	6820      	ldr	r0, [r4, #0]
 800a7a8:	1821      	adds	r1, r4, r0
 800a7aa:	428b      	cmp	r3, r1
 800a7ac:	bf01      	itttt	eq
 800a7ae:	6819      	ldreq	r1, [r3, #0]
 800a7b0:	685b      	ldreq	r3, [r3, #4]
 800a7b2:	1809      	addeq	r1, r1, r0
 800a7b4:	6021      	streq	r1, [r4, #0]
 800a7b6:	6063      	str	r3, [r4, #4]
 800a7b8:	6054      	str	r4, [r2, #4]
 800a7ba:	e7c9      	b.n	800a750 <_free_r+0x24>
 800a7bc:	bd38      	pop	{r3, r4, r5, pc}
 800a7be:	bf00      	nop
 800a7c0:	20000558 	.word	0x20000558

0800a7c4 <_malloc_r>:
 800a7c4:	b5f8      	push	{r3, r4, r5, r6, r7, lr}
 800a7c6:	1ccd      	adds	r5, r1, #3
 800a7c8:	f025 0503 	bic.w	r5, r5, #3
 800a7cc:	3508      	adds	r5, #8
 800a7ce:	2d0c      	cmp	r5, #12
 800a7d0:	bf38      	it	cc
 800a7d2:	250c      	movcc	r5, #12
 800a7d4:	2d00      	cmp	r5, #0
 800a7d6:	4606      	mov	r6, r0
 800a7d8:	db01      	blt.n	800a7de <_malloc_r+0x1a>
 800a7da:	42a9      	cmp	r1, r5
 800a7dc:	d903      	bls.n	800a7e6 <_malloc_r+0x22>
 800a7de:	230c      	movs	r3, #12
 800a7e0:	6033      	str	r3, [r6, #0]
 800a7e2:	2000      	movs	r0, #0
 800a7e4:	bdf8      	pop	{r3, r4, r5, r6, r7, pc}
 800a7e6:	f000 fc0f 	bl	800b008 <__malloc_lock>
 800a7ea:	4921      	ldr	r1, [pc, #132]	; (800a870 <_malloc_r+0xac>)
 800a7ec:	680a      	ldr	r2, [r1, #0]
 800a7ee:	4614      	mov	r4, r2
 800a7f0:	b99c      	cbnz	r4, 800a81a <_malloc_r+0x56>
 800a7f2:	4f20      	ldr	r7, [pc, #128]	; (800a874 <_malloc_r+0xb0>)
 800a7f4:	683b      	ldr	r3, [r7, #0]
 800a7f6:	b923      	cbnz	r3, 800a802 <_malloc_r+0x3e>
 800a7f8:	4621      	mov	r1, r4
 800a7fa:	4630      	mov	r0, r6
 800a7fc:	f000 f8ca 	bl	800a994 <_sbrk_r>
 800a800:	6038      	str	r0, [r7, #0]
 800a802:	4629      	mov	r1, r5
 800a804:	4630      	mov	r0, r6
 800a806:	f000 f8c5 	bl	800a994 <_sbrk_r>
 800a80a:	1c43      	adds	r3, r0, #1
 800a80c:	d123      	bne.n	800a856 <_malloc_r+0x92>
 800a80e:	230c      	movs	r3, #12
 800a810:	4630      	mov	r0, r6
 800a812:	6033      	str	r3, [r6, #0]
 800a814:	f000 fbfe 	bl	800b014 <__malloc_unlock>
 800a818:	e7e3      	b.n	800a7e2 <_malloc_r+0x1e>
 800a81a:	6823      	ldr	r3, [r4, #0]
 800a81c:	1b5b      	subs	r3, r3, r5
 800a81e:	d417      	bmi.n	800a850 <_malloc_r+0x8c>
 800a820:	2b0b      	cmp	r3, #11
 800a822:	d903      	bls.n	800a82c <_malloc_r+0x68>
 800a824:	6023      	str	r3, [r4, #0]
 800a826:	441c      	add	r4, r3
 800a828:	6025      	str	r5, [r4, #0]
 800a82a:	e004      	b.n	800a836 <_malloc_r+0x72>
 800a82c:	6863      	ldr	r3, [r4, #4]
 800a82e:	42a2      	cmp	r2, r4
 800a830:	bf0c      	ite	eq
 800a832:	600b      	streq	r3, [r1, #0]
 800a834:	6053      	strne	r3, [r2, #4]
 800a836:	4630      	mov	r0, r6
 800a838:	f000 fbec 	bl	800b014 <__malloc_unlock>
 800a83c:	f104 000b 	add.w	r0, r4, #11
 800a840:	1d23      	adds	r3, r4, #4
 800a842:	f020 0007 	bic.w	r0, r0, #7
 800a846:	1ac2      	subs	r2, r0, r3
 800a848:	d0cc      	beq.n	800a7e4 <_malloc_r+0x20>
 800a84a:	1a1b      	subs	r3, r3, r0
 800a84c:	50a3      	str	r3, [r4, r2]
 800a84e:	e7c9      	b.n	800a7e4 <_malloc_r+0x20>
 800a850:	4622      	mov	r2, r4
 800a852:	6864      	ldr	r4, [r4, #4]
 800a854:	e7cc      	b.n	800a7f0 <_malloc_r+0x2c>
 800a856:	1cc4      	adds	r4, r0, #3
 800a858:	f024 0403 	bic.w	r4, r4, #3
 800a85c:	42a0      	cmp	r0, r4
 800a85e:	d0e3      	beq.n	800a828 <_malloc_r+0x64>
 800a860:	1a21      	subs	r1, r4, r0
 800a862:	4630      	mov	r0, r6
 800a864:	f000 f896 	bl	800a994 <_sbrk_r>
 800a868:	3001      	adds	r0, #1
 800a86a:	d1dd      	bne.n	800a828 <_malloc_r+0x64>
 800a86c:	e7cf      	b.n	800a80e <_malloc_r+0x4a>
 800a86e:	bf00      	nop
 800a870:	20000558 	.word	0x20000558
 800a874:	2000055c 	.word	0x2000055c

0800a878 <iprintf>:
 800a878:	b40f      	push	{r0, r1, r2, r3}
 800a87a:	4b0a      	ldr	r3, [pc, #40]	; (800a8a4 <iprintf+0x2c>)
 800a87c:	b513      	push	{r0, r1, r4, lr}
 800a87e:	681c      	ldr	r4, [r3, #0]
 800a880:	b124      	cbz	r4, 800a88c <iprintf+0x14>
 800a882:	69a3      	ldr	r3, [r4, #24]
 800a884:	b913      	cbnz	r3, 800a88c <iprintf+0x14>
 800a886:	4620      	mov	r0, r4
 800a888:	f000 faba 	bl	800ae00 <__sinit>
 800a88c:	ab05      	add	r3, sp, #20
 800a88e:	4620      	mov	r0, r4
 800a890:	9a04      	ldr	r2, [sp, #16]
 800a892:	68a1      	ldr	r1, [r4, #8]
 800a894:	9301      	str	r3, [sp, #4]
 800a896:	f000 fbeb 	bl	800b070 <_vfiprintf_r>
 800a89a:	b002      	add	sp, #8
 800a89c:	e8bd 4010 	ldmia.w	sp!, {r4, lr}
 800a8a0:	b004      	add	sp, #16
 800a8a2:	4770      	bx	lr
 800a8a4:	2000001c 	.word	0x2000001c

0800a8a8 <_puts_r>:
 800a8a8:	b570      	push	{r4, r5, r6, lr}
 800a8aa:	460e      	mov	r6, r1
 800a8ac:	4605      	mov	r5, r0
 800a8ae:	b118      	cbz	r0, 800a8b8 <_puts_r+0x10>
 800a8b0:	6983      	ldr	r3, [r0, #24]
 800a8b2:	b90b      	cbnz	r3, 800a8b8 <_puts_r+0x10>
 800a8b4:	f000 faa4 	bl	800ae00 <__sinit>
 800a8b8:	69ab      	ldr	r3, [r5, #24]
 800a8ba:	68ac      	ldr	r4, [r5, #8]
 800a8bc:	b913      	cbnz	r3, 800a8c4 <_puts_r+0x1c>
 800a8be:	4628      	mov	r0, r5
 800a8c0:	f000 fa9e 	bl	800ae00 <__sinit>
 800a8c4:	4b2c      	ldr	r3, [pc, #176]	; (800a978 <_puts_r+0xd0>)
 800a8c6:	429c      	cmp	r4, r3
 800a8c8:	d120      	bne.n	800a90c <_puts_r+0x64>
 800a8ca:	686c      	ldr	r4, [r5, #4]
 800a8cc:	6e63      	ldr	r3, [r4, #100]	; 0x64
 800a8ce:	07db      	lsls	r3, r3, #31
 800a8d0:	d405      	bmi.n	800a8de <_puts_r+0x36>
 800a8d2:	89a3      	ldrh	r3, [r4, #12]
 800a8d4:	0598      	lsls	r0, r3, #22
 800a8d6:	d402      	bmi.n	800a8de <_puts_r+0x36>
 800a8d8:	6da0      	ldr	r0, [r4, #88]	; 0x58
 800a8da:	f000 fb2f 	bl	800af3c <__retarget_lock_acquire_recursive>
 800a8de:	89a3      	ldrh	r3, [r4, #12]
 800a8e0:	0719      	lsls	r1, r3, #28
 800a8e2:	d51d      	bpl.n	800a920 <_puts_r+0x78>
 800a8e4:	6923      	ldr	r3, [r4, #16]
 800a8e6:	b1db      	cbz	r3, 800a920 <_puts_r+0x78>
 800a8e8:	3e01      	subs	r6, #1
 800a8ea:	68a3      	ldr	r3, [r4, #8]
 800a8ec:	f816 1f01 	ldrb.w	r1, [r6, #1]!
 800a8f0:	3b01      	subs	r3, #1
 800a8f2:	60a3      	str	r3, [r4, #8]
 800a8f4:	bb39      	cbnz	r1, 800a946 <_puts_r+0x9e>
 800a8f6:	2b00      	cmp	r3, #0
 800a8f8:	da38      	bge.n	800a96c <_puts_r+0xc4>
 800a8fa:	4622      	mov	r2, r4
 800a8fc:	210a      	movs	r1, #10
 800a8fe:	4628      	mov	r0, r5
 800a900:	f000 f8a4 	bl	800aa4c <__swbuf_r>
 800a904:	3001      	adds	r0, #1
 800a906:	d011      	beq.n	800a92c <_puts_r+0x84>
 800a908:	250a      	movs	r5, #10
 800a90a:	e011      	b.n	800a930 <_puts_r+0x88>
 800a90c:	4b1b      	ldr	r3, [pc, #108]	; (800a97c <_puts_r+0xd4>)
 800a90e:	429c      	cmp	r4, r3
 800a910:	d101      	bne.n	800a916 <_puts_r+0x6e>
 800a912:	68ac      	ldr	r4, [r5, #8]
 800a914:	e7da      	b.n	800a8cc <_puts_r+0x24>
 800a916:	4b1a      	ldr	r3, [pc, #104]	; (800a980 <_puts_r+0xd8>)
 800a918:	429c      	cmp	r4, r3
 800a91a:	bf08      	it	eq
 800a91c:	68ec      	ldreq	r4, [r5, #12]
 800a91e:	e7d5      	b.n	800a8cc <_puts_r+0x24>
 800a920:	4621      	mov	r1, r4
 800a922:	4628      	mov	r0, r5
 800a924:	f000 f8e4 	bl	800aaf0 <__swsetup_r>
 800a928:	2800      	cmp	r0, #0
 800a92a:	d0dd      	beq.n	800a8e8 <_puts_r+0x40>
 800a92c:	f04f 35ff 	mov.w	r5, #4294967295
 800a930:	6e63      	ldr	r3, [r4, #100]	; 0x64
 800a932:	07da      	lsls	r2, r3, #31
 800a934:	d405      	bmi.n	800a942 <_puts_r+0x9a>
 800a936:	89a3      	ldrh	r3, [r4, #12]
 800a938:	059b      	lsls	r3, r3, #22
 800a93a:	d402      	bmi.n	800a942 <_puts_r+0x9a>
 800a93c:	6da0      	ldr	r0, [r4, #88]	; 0x58
 800a93e:	f000 fafe 	bl	800af3e <__retarget_lock_release_recursive>
 800a942:	4628      	mov	r0, r5
 800a944:	bd70      	pop	{r4, r5, r6, pc}
 800a946:	2b00      	cmp	r3, #0
 800a948:	da04      	bge.n	800a954 <_puts_r+0xac>
 800a94a:	69a2      	ldr	r2, [r4, #24]
 800a94c:	429a      	cmp	r2, r3
 800a94e:	dc06      	bgt.n	800a95e <_puts_r+0xb6>
 800a950:	290a      	cmp	r1, #10
 800a952:	d004      	beq.n	800a95e <_puts_r+0xb6>
 800a954:	6823      	ldr	r3, [r4, #0]
 800a956:	1c5a      	adds	r2, r3, #1
 800a958:	6022      	str	r2, [r4, #0]
 800a95a:	7019      	strb	r1, [r3, #0]
 800a95c:	e7c5      	b.n	800a8ea <_puts_r+0x42>
 800a95e:	4622      	mov	r2, r4
 800a960:	4628      	mov	r0, r5
 800a962:	f000 f873 	bl	800aa4c <__swbuf_r>
 800a966:	3001      	adds	r0, #1
 800a968:	d1bf      	bne.n	800a8ea <_puts_r+0x42>
 800a96a:	e7df      	b.n	800a92c <_puts_r+0x84>
 800a96c:	250a      	movs	r5, #10
 800a96e:	6823      	ldr	r3, [r4, #0]
 800a970:	1c5a      	adds	r2, r3, #1
 800a972:	6022      	str	r2, [r4, #0]
 800a974:	701d      	strb	r5, [r3, #0]
 800a976:	e7db      	b.n	800a930 <_puts_r+0x88>
 800a978:	0800d1b0 	.word	0x0800d1b0
 800a97c:	0800d1d0 	.word	0x0800d1d0
 800a980:	0800d190 	.word	0x0800d190

0800a984 <puts>:
 800a984:	4b02      	ldr	r3, [pc, #8]	; (800a990 <puts+0xc>)
 800a986:	4601      	mov	r1, r0
 800a988:	6818      	ldr	r0, [r3, #0]
 800a98a:	f7ff bf8d 	b.w	800a8a8 <_puts_r>
 800a98e:	bf00      	nop
 800a990:	2000001c 	.word	0x2000001c

0800a994 <_sbrk_r>:
 800a994:	b538      	push	{r3, r4, r5, lr}
 800a996:	2300      	movs	r3, #0
 800a998:	4d05      	ldr	r5, [pc, #20]	; (800a9b0 <_sbrk_r+0x1c>)
 800a99a:	4604      	mov	r4, r0
 800a99c:	4608      	mov	r0, r1
 800a99e:	602b      	str	r3, [r5, #0]
 800a9a0:	f7f7 fe78 	bl	8002694 <_sbrk>
 800a9a4:	1c43      	adds	r3, r0, #1
 800a9a6:	d102      	bne.n	800a9ae <_sbrk_r+0x1a>
 800a9a8:	682b      	ldr	r3, [r5, #0]
 800a9aa:	b103      	cbz	r3, 800a9ae <_sbrk_r+0x1a>
 800a9ac:	6023      	str	r3, [r4, #0]
 800a9ae:	bd38      	pop	{r3, r4, r5, pc}
 800a9b0:	20006ba8 	.word	0x20006ba8

0800a9b4 <_raise_r>:
 800a9b4:	291f      	cmp	r1, #31
 800a9b6:	b538      	push	{r3, r4, r5, lr}
 800a9b8:	4604      	mov	r4, r0
 800a9ba:	460d      	mov	r5, r1
 800a9bc:	d904      	bls.n	800a9c8 <_raise_r+0x14>
 800a9be:	2316      	movs	r3, #22
 800a9c0:	6003      	str	r3, [r0, #0]
 800a9c2:	f04f 30ff 	mov.w	r0, #4294967295
 800a9c6:	bd38      	pop	{r3, r4, r5, pc}
 800a9c8:	6c42      	ldr	r2, [r0, #68]	; 0x44
 800a9ca:	b112      	cbz	r2, 800a9d2 <_raise_r+0x1e>
 800a9cc:	f852 3021 	ldr.w	r3, [r2, r1, lsl #2]
 800a9d0:	b94b      	cbnz	r3, 800a9e6 <_raise_r+0x32>
 800a9d2:	4620      	mov	r0, r4
 800a9d4:	f000 f830 	bl	800aa38 <_getpid_r>
 800a9d8:	462a      	mov	r2, r5
 800a9da:	4601      	mov	r1, r0
 800a9dc:	4620      	mov	r0, r4
 800a9de:	e8bd 4038 	ldmia.w	sp!, {r3, r4, r5, lr}
 800a9e2:	f000 b817 	b.w	800aa14 <_kill_r>
 800a9e6:	2b01      	cmp	r3, #1
 800a9e8:	d00a      	beq.n	800aa00 <_raise_r+0x4c>
 800a9ea:	1c59      	adds	r1, r3, #1
 800a9ec:	d103      	bne.n	800a9f6 <_raise_r+0x42>
 800a9ee:	2316      	movs	r3, #22
 800a9f0:	6003      	str	r3, [r0, #0]
 800a9f2:	2001      	movs	r0, #1
 800a9f4:	e7e7      	b.n	800a9c6 <_raise_r+0x12>
 800a9f6:	2400      	movs	r4, #0
 800a9f8:	4628      	mov	r0, r5
 800a9fa:	f842 4025 	str.w	r4, [r2, r5, lsl #2]
 800a9fe:	4798      	blx	r3
 800aa00:	2000      	movs	r0, #0
 800aa02:	e7e0      	b.n	800a9c6 <_raise_r+0x12>

0800aa04 <raise>:
 800aa04:	4b02      	ldr	r3, [pc, #8]	; (800aa10 <raise+0xc>)
 800aa06:	4601      	mov	r1, r0
 800aa08:	6818      	ldr	r0, [r3, #0]
 800aa0a:	f7ff bfd3 	b.w	800a9b4 <_raise_r>
 800aa0e:	bf00      	nop
 800aa10:	2000001c 	.word	0x2000001c

0800aa14 <_kill_r>:
 800aa14:	b538      	push	{r3, r4, r5, lr}
 800aa16:	2300      	movs	r3, #0
 800aa18:	4d06      	ldr	r5, [pc, #24]	; (800aa34 <_kill_r+0x20>)
 800aa1a:	4604      	mov	r4, r0
 800aa1c:	4608      	mov	r0, r1
 800aa1e:	4611      	mov	r1, r2
 800aa20:	602b      	str	r3, [r5, #0]
 800aa22:	f7f7 fe03 	bl	800262c <_kill>
 800aa26:	1c43      	adds	r3, r0, #1
 800aa28:	d102      	bne.n	800aa30 <_kill_r+0x1c>
 800aa2a:	682b      	ldr	r3, [r5, #0]
 800aa2c:	b103      	cbz	r3, 800aa30 <_kill_r+0x1c>
 800aa2e:	6023      	str	r3, [r4, #0]
 800aa30:	bd38      	pop	{r3, r4, r5, pc}
 800aa32:	bf00      	nop
 800aa34:	20006ba8 	.word	0x20006ba8

0800aa38 <_getpid_r>:
 800aa38:	f7f7 bdf6 	b.w	8002628 <_getpid>

0800aa3c <strcpy>:
 800aa3c:	4603      	mov	r3, r0
 800aa3e:	f811 2b01 	ldrb.w	r2, [r1], #1
 800aa42:	f803 2b01 	strb.w	r2, [r3], #1
 800aa46:	2a00      	cmp	r2, #0
 800aa48:	d1f9      	bne.n	800aa3e <strcpy+0x2>
 800aa4a:	4770      	bx	lr

0800aa4c <__swbuf_r>:
 800aa4c:	b5f8      	push	{r3, r4, r5, r6, r7, lr}
 800aa4e:	460e      	mov	r6, r1
 800aa50:	4614      	mov	r4, r2
 800aa52:	4605      	mov	r5, r0
 800aa54:	b118      	cbz	r0, 800aa5e <__swbuf_r+0x12>
 800aa56:	6983      	ldr	r3, [r0, #24]
 800aa58:	b90b      	cbnz	r3, 800aa5e <__swbuf_r+0x12>
 800aa5a:	f000 f9d1 	bl	800ae00 <__sinit>
 800aa5e:	4b21      	ldr	r3, [pc, #132]	; (800aae4 <__swbuf_r+0x98>)
 800aa60:	429c      	cmp	r4, r3
 800aa62:	d12b      	bne.n	800aabc <__swbuf_r+0x70>
 800aa64:	686c      	ldr	r4, [r5, #4]
 800aa66:	69a3      	ldr	r3, [r4, #24]
 800aa68:	60a3      	str	r3, [r4, #8]
 800aa6a:	89a3      	ldrh	r3, [r4, #12]
 800aa6c:	071a      	lsls	r2, r3, #28
 800aa6e:	d52f      	bpl.n	800aad0 <__swbuf_r+0x84>
 800aa70:	6923      	ldr	r3, [r4, #16]
 800aa72:	b36b      	cbz	r3, 800aad0 <__swbuf_r+0x84>
 800aa74:	6923      	ldr	r3, [r4, #16]
 800aa76:	6820      	ldr	r0, [r4, #0]
 800aa78:	b2f6      	uxtb	r6, r6
 800aa7a:	1ac0      	subs	r0, r0, r3
 800aa7c:	6963      	ldr	r3, [r4, #20]
 800aa7e:	4637      	mov	r7, r6
 800aa80:	4283      	cmp	r3, r0
 800aa82:	dc04      	bgt.n	800aa8e <__swbuf_r+0x42>
 800aa84:	4621      	mov	r1, r4
 800aa86:	4628      	mov	r0, r5
 800aa88:	f000 f926 	bl	800acd8 <_fflush_r>
 800aa8c:	bb30      	cbnz	r0, 800aadc <__swbuf_r+0x90>
 800aa8e:	68a3      	ldr	r3, [r4, #8]
 800aa90:	3001      	adds	r0, #1
 800aa92:	3b01      	subs	r3, #1
 800aa94:	60a3      	str	r3, [r4, #8]
 800aa96:	6823      	ldr	r3, [r4, #0]
 800aa98:	1c5a      	adds	r2, r3, #1
 800aa9a:	6022      	str	r2, [r4, #0]
 800aa9c:	701e      	strb	r6, [r3, #0]
 800aa9e:	6963      	ldr	r3, [r4, #20]
 800aaa0:	4283      	cmp	r3, r0
 800aaa2:	d004      	beq.n	800aaae <__swbuf_r+0x62>
 800aaa4:	89a3      	ldrh	r3, [r4, #12]
 800aaa6:	07db      	lsls	r3, r3, #31
 800aaa8:	d506      	bpl.n	800aab8 <__swbuf_r+0x6c>
 800aaaa:	2e0a      	cmp	r6, #10
 800aaac:	d104      	bne.n	800aab8 <__swbuf_r+0x6c>
 800aaae:	4621      	mov	r1, r4
 800aab0:	4628      	mov	r0, r5
 800aab2:	f000 f911 	bl	800acd8 <_fflush_r>
 800aab6:	b988      	cbnz	r0, 800aadc <__swbuf_r+0x90>
 800aab8:	4638      	mov	r0, r7
 800aaba:	bdf8      	pop	{r3, r4, r5, r6, r7, pc}
 800aabc:	4b0a      	ldr	r3, [pc, #40]	; (800aae8 <__swbuf_r+0x9c>)
 800aabe:	429c      	cmp	r4, r3
 800aac0:	d101      	bne.n	800aac6 <__swbuf_r+0x7a>
 800aac2:	68ac      	ldr	r4, [r5, #8]
 800aac4:	e7cf      	b.n	800aa66 <__swbuf_r+0x1a>
 800aac6:	4b09      	ldr	r3, [pc, #36]	; (800aaec <__swbuf_r+0xa0>)
 800aac8:	429c      	cmp	r4, r3
 800aaca:	bf08      	it	eq
 800aacc:	68ec      	ldreq	r4, [r5, #12]
 800aace:	e7ca      	b.n	800aa66 <__swbuf_r+0x1a>
 800aad0:	4621      	mov	r1, r4
 800aad2:	4628      	mov	r0, r5
 800aad4:	f000 f80c 	bl	800aaf0 <__swsetup_r>
 800aad8:	2800      	cmp	r0, #0
 800aada:	d0cb      	beq.n	800aa74 <__swbuf_r+0x28>
 800aadc:	f04f 37ff 	mov.w	r7, #4294967295
 800aae0:	e7ea      	b.n	800aab8 <__swbuf_r+0x6c>
 800aae2:	bf00      	nop
 800aae4:	0800d1b0 	.word	0x0800d1b0
 800aae8:	0800d1d0 	.word	0x0800d1d0
 800aaec:	0800d190 	.word	0x0800d190

0800aaf0 <__swsetup_r>:
 800aaf0:	4b32      	ldr	r3, [pc, #200]	; (800abbc <__swsetup_r+0xcc>)
 800aaf2:	b570      	push	{r4, r5, r6, lr}
 800aaf4:	681d      	ldr	r5, [r3, #0]
 800aaf6:	4606      	mov	r6, r0
 800aaf8:	460c      	mov	r4, r1
 800aafa:	b125      	cbz	r5, 800ab06 <__swsetup_r+0x16>
 800aafc:	69ab      	ldr	r3, [r5, #24]
 800aafe:	b913      	cbnz	r3, 800ab06 <__swsetup_r+0x16>
 800ab00:	4628      	mov	r0, r5
 800ab02:	f000 f97d 	bl	800ae00 <__sinit>
 800ab06:	4b2e      	ldr	r3, [pc, #184]	; (800abc0 <__swsetup_r+0xd0>)
 800ab08:	429c      	cmp	r4, r3
 800ab0a:	d10f      	bne.n	800ab2c <__swsetup_r+0x3c>
 800ab0c:	686c      	ldr	r4, [r5, #4]
 800ab0e:	89a3      	ldrh	r3, [r4, #12]
 800ab10:	f9b4 200c 	ldrsh.w	r2, [r4, #12]
 800ab14:	0719      	lsls	r1, r3, #28
 800ab16:	d42c      	bmi.n	800ab72 <__swsetup_r+0x82>
 800ab18:	06dd      	lsls	r5, r3, #27
 800ab1a:	d411      	bmi.n	800ab40 <__swsetup_r+0x50>
 800ab1c:	2309      	movs	r3, #9
 800ab1e:	6033      	str	r3, [r6, #0]
 800ab20:	f042 0340 	orr.w	r3, r2, #64	; 0x40
 800ab24:	f04f 30ff 	mov.w	r0, #4294967295
 800ab28:	81a3      	strh	r3, [r4, #12]
 800ab2a:	e03e      	b.n	800abaa <__swsetup_r+0xba>
 800ab2c:	4b25      	ldr	r3, [pc, #148]	; (800abc4 <__swsetup_r+0xd4>)
 800ab2e:	429c      	cmp	r4, r3
 800ab30:	d101      	bne.n	800ab36 <__swsetup_r+0x46>
 800ab32:	68ac      	ldr	r4, [r5, #8]
 800ab34:	e7eb      	b.n	800ab0e <__swsetup_r+0x1e>
 800ab36:	4b24      	ldr	r3, [pc, #144]	; (800abc8 <__swsetup_r+0xd8>)
 800ab38:	429c      	cmp	r4, r3
 800ab3a:	bf08      	it	eq
 800ab3c:	68ec      	ldreq	r4, [r5, #12]
 800ab3e:	e7e6      	b.n	800ab0e <__swsetup_r+0x1e>
 800ab40:	0758      	lsls	r0, r3, #29
 800ab42:	d512      	bpl.n	800ab6a <__swsetup_r+0x7a>
 800ab44:	6b61      	ldr	r1, [r4, #52]	; 0x34
 800ab46:	b141      	cbz	r1, 800ab5a <__swsetup_r+0x6a>
 800ab48:	f104 0344 	add.w	r3, r4, #68	; 0x44
 800ab4c:	4299      	cmp	r1, r3
 800ab4e:	d002      	beq.n	800ab56 <__swsetup_r+0x66>
 800ab50:	4630      	mov	r0, r6
 800ab52:	f7ff fdeb 	bl	800a72c <_free_r>
 800ab56:	2300      	movs	r3, #0
 800ab58:	6363      	str	r3, [r4, #52]	; 0x34
 800ab5a:	89a3      	ldrh	r3, [r4, #12]
 800ab5c:	f023 0324 	bic.w	r3, r3, #36	; 0x24
 800ab60:	81a3      	strh	r3, [r4, #12]
 800ab62:	2300      	movs	r3, #0
 800ab64:	6063      	str	r3, [r4, #4]
 800ab66:	6923      	ldr	r3, [r4, #16]
 800ab68:	6023      	str	r3, [r4, #0]
 800ab6a:	89a3      	ldrh	r3, [r4, #12]
 800ab6c:	f043 0308 	orr.w	r3, r3, #8
 800ab70:	81a3      	strh	r3, [r4, #12]
 800ab72:	6923      	ldr	r3, [r4, #16]
 800ab74:	b94b      	cbnz	r3, 800ab8a <__swsetup_r+0x9a>
 800ab76:	89a3      	ldrh	r3, [r4, #12]
 800ab78:	f403 7320 	and.w	r3, r3, #640	; 0x280
 800ab7c:	f5b3 7f00 	cmp.w	r3, #512	; 0x200
 800ab80:	d003      	beq.n	800ab8a <__swsetup_r+0x9a>
 800ab82:	4621      	mov	r1, r4
 800ab84:	4630      	mov	r0, r6
 800ab86:	f000 f9ff 	bl	800af88 <__smakebuf_r>
 800ab8a:	89a0      	ldrh	r0, [r4, #12]
 800ab8c:	f9b4 200c 	ldrsh.w	r2, [r4, #12]
 800ab90:	f010 0301 	ands.w	r3, r0, #1
 800ab94:	d00a      	beq.n	800abac <__swsetup_r+0xbc>
 800ab96:	2300      	movs	r3, #0
 800ab98:	60a3      	str	r3, [r4, #8]
 800ab9a:	6963      	ldr	r3, [r4, #20]
 800ab9c:	425b      	negs	r3, r3
 800ab9e:	61a3      	str	r3, [r4, #24]
 800aba0:	6923      	ldr	r3, [r4, #16]
 800aba2:	b943      	cbnz	r3, 800abb6 <__swsetup_r+0xc6>
 800aba4:	f010 0080 	ands.w	r0, r0, #128	; 0x80
 800aba8:	d1ba      	bne.n	800ab20 <__swsetup_r+0x30>
 800abaa:	bd70      	pop	{r4, r5, r6, pc}
 800abac:	0781      	lsls	r1, r0, #30
 800abae:	bf58      	it	pl
 800abb0:	6963      	ldrpl	r3, [r4, #20]
 800abb2:	60a3      	str	r3, [r4, #8]
 800abb4:	e7f4      	b.n	800aba0 <__swsetup_r+0xb0>
 800abb6:	2000      	movs	r0, #0
 800abb8:	e7f7      	b.n	800abaa <__swsetup_r+0xba>
 800abba:	bf00      	nop
 800abbc:	2000001c 	.word	0x2000001c
 800abc0:	0800d1b0 	.word	0x0800d1b0
 800abc4:	0800d1d0 	.word	0x0800d1d0
 800abc8:	0800d190 	.word	0x0800d190

0800abcc <__sflush_r>:
 800abcc:	898a      	ldrh	r2, [r1, #12]
 800abce:	e92d 41f0 	stmdb	sp!, {r4, r5, r6, r7, r8, lr}
 800abd2:	4605      	mov	r5, r0
 800abd4:	0710      	lsls	r0, r2, #28
 800abd6:	460c      	mov	r4, r1
 800abd8:	d458      	bmi.n	800ac8c <__sflush_r+0xc0>
 800abda:	684b      	ldr	r3, [r1, #4]
 800abdc:	2b00      	cmp	r3, #0
 800abde:	dc05      	bgt.n	800abec <__sflush_r+0x20>
 800abe0:	6c0b      	ldr	r3, [r1, #64]	; 0x40
 800abe2:	2b00      	cmp	r3, #0
 800abe4:	dc02      	bgt.n	800abec <__sflush_r+0x20>
 800abe6:	2000      	movs	r0, #0
 800abe8:	e8bd 81f0 	ldmia.w	sp!, {r4, r5, r6, r7, r8, pc}
 800abec:	6ae6      	ldr	r6, [r4, #44]	; 0x2c
 800abee:	2e00      	cmp	r6, #0
 800abf0:	d0f9      	beq.n	800abe6 <__sflush_r+0x1a>
 800abf2:	2300      	movs	r3, #0
 800abf4:	f412 5280 	ands.w	r2, r2, #4096	; 0x1000
 800abf8:	682f      	ldr	r7, [r5, #0]
 800abfa:	602b      	str	r3, [r5, #0]
 800abfc:	d032      	beq.n	800ac64 <__sflush_r+0x98>
 800abfe:	6d60      	ldr	r0, [r4, #84]	; 0x54
 800ac00:	89a3      	ldrh	r3, [r4, #12]
 800ac02:	075a      	lsls	r2, r3, #29
 800ac04:	d505      	bpl.n	800ac12 <__sflush_r+0x46>
 800ac06:	6863      	ldr	r3, [r4, #4]
 800ac08:	1ac0      	subs	r0, r0, r3
 800ac0a:	6b63      	ldr	r3, [r4, #52]	; 0x34
 800ac0c:	b10b      	cbz	r3, 800ac12 <__sflush_r+0x46>
 800ac0e:	6c23      	ldr	r3, [r4, #64]	; 0x40
 800ac10:	1ac0      	subs	r0, r0, r3
 800ac12:	2300      	movs	r3, #0
 800ac14:	4602      	mov	r2, r0
 800ac16:	6ae6      	ldr	r6, [r4, #44]	; 0x2c
 800ac18:	4628      	mov	r0, r5
 800ac1a:	6a21      	ldr	r1, [r4, #32]
 800ac1c:	47b0      	blx	r6
 800ac1e:	1c43      	adds	r3, r0, #1
 800ac20:	89a3      	ldrh	r3, [r4, #12]
 800ac22:	d106      	bne.n	800ac32 <__sflush_r+0x66>
 800ac24:	6829      	ldr	r1, [r5, #0]
 800ac26:	291d      	cmp	r1, #29
 800ac28:	d82c      	bhi.n	800ac84 <__sflush_r+0xb8>
 800ac2a:	4a2a      	ldr	r2, [pc, #168]	; (800acd4 <__sflush_r+0x108>)
 800ac2c:	40ca      	lsrs	r2, r1
 800ac2e:	07d6      	lsls	r6, r2, #31
 800ac30:	d528      	bpl.n	800ac84 <__sflush_r+0xb8>
 800ac32:	2200      	movs	r2, #0
 800ac34:	6062      	str	r2, [r4, #4]
 800ac36:	6922      	ldr	r2, [r4, #16]
 800ac38:	04d9      	lsls	r1, r3, #19
 800ac3a:	6022      	str	r2, [r4, #0]
 800ac3c:	d504      	bpl.n	800ac48 <__sflush_r+0x7c>
 800ac3e:	1c42      	adds	r2, r0, #1
 800ac40:	d101      	bne.n	800ac46 <__sflush_r+0x7a>
 800ac42:	682b      	ldr	r3, [r5, #0]
 800ac44:	b903      	cbnz	r3, 800ac48 <__sflush_r+0x7c>
 800ac46:	6560      	str	r0, [r4, #84]	; 0x54
 800ac48:	6b61      	ldr	r1, [r4, #52]	; 0x34
 800ac4a:	602f      	str	r7, [r5, #0]
 800ac4c:	2900      	cmp	r1, #0
 800ac4e:	d0ca      	beq.n	800abe6 <__sflush_r+0x1a>
 800ac50:	f104 0344 	add.w	r3, r4, #68	; 0x44
 800ac54:	4299      	cmp	r1, r3
 800ac56:	d002      	beq.n	800ac5e <__sflush_r+0x92>
 800ac58:	4628      	mov	r0, r5
 800ac5a:	f7ff fd67 	bl	800a72c <_free_r>
 800ac5e:	2000      	movs	r0, #0
 800ac60:	6360      	str	r0, [r4, #52]	; 0x34
 800ac62:	e7c1      	b.n	800abe8 <__sflush_r+0x1c>
 800ac64:	6a21      	ldr	r1, [r4, #32]
 800ac66:	2301      	movs	r3, #1
 800ac68:	4628      	mov	r0, r5
 800ac6a:	47b0      	blx	r6
 800ac6c:	1c41      	adds	r1, r0, #1
 800ac6e:	d1c7      	bne.n	800ac00 <__sflush_r+0x34>
 800ac70:	682b      	ldr	r3, [r5, #0]
 800ac72:	2b00      	cmp	r3, #0
 800ac74:	d0c4      	beq.n	800ac00 <__sflush_r+0x34>
 800ac76:	2b1d      	cmp	r3, #29
 800ac78:	d001      	beq.n	800ac7e <__sflush_r+0xb2>
 800ac7a:	2b16      	cmp	r3, #22
 800ac7c:	d101      	bne.n	800ac82 <__sflush_r+0xb6>
 800ac7e:	602f      	str	r7, [r5, #0]
 800ac80:	e7b1      	b.n	800abe6 <__sflush_r+0x1a>
 800ac82:	89a3      	ldrh	r3, [r4, #12]
 800ac84:	f043 0340 	orr.w	r3, r3, #64	; 0x40
 800ac88:	81a3      	strh	r3, [r4, #12]
 800ac8a:	e7ad      	b.n	800abe8 <__sflush_r+0x1c>
 800ac8c:	690f      	ldr	r7, [r1, #16]
 800ac8e:	2f00      	cmp	r7, #0
 800ac90:	d0a9      	beq.n	800abe6 <__sflush_r+0x1a>
 800ac92:	0793      	lsls	r3, r2, #30
 800ac94:	bf18      	it	ne
 800ac96:	2300      	movne	r3, #0
 800ac98:	680e      	ldr	r6, [r1, #0]
 800ac9a:	bf08      	it	eq
 800ac9c:	694b      	ldreq	r3, [r1, #20]
 800ac9e:	eba6 0807 	sub.w	r8, r6, r7
 800aca2:	600f      	str	r7, [r1, #0]
 800aca4:	608b      	str	r3, [r1, #8]
 800aca6:	f1b8 0f00 	cmp.w	r8, #0
 800acaa:	dd9c      	ble.n	800abe6 <__sflush_r+0x1a>
 800acac:	4643      	mov	r3, r8
 800acae:	463a      	mov	r2, r7
 800acb0:	4628      	mov	r0, r5
 800acb2:	6a21      	ldr	r1, [r4, #32]
 800acb4:	6aa6      	ldr	r6, [r4, #40]	; 0x28
 800acb6:	47b0      	blx	r6
 800acb8:	2800      	cmp	r0, #0
 800acba:	dc06      	bgt.n	800acca <__sflush_r+0xfe>
 800acbc:	89a3      	ldrh	r3, [r4, #12]
 800acbe:	f04f 30ff 	mov.w	r0, #4294967295
 800acc2:	f043 0340 	orr.w	r3, r3, #64	; 0x40
 800acc6:	81a3      	strh	r3, [r4, #12]
 800acc8:	e78e      	b.n	800abe8 <__sflush_r+0x1c>
 800acca:	4407      	add	r7, r0
 800accc:	eba8 0800 	sub.w	r8, r8, r0
 800acd0:	e7e9      	b.n	800aca6 <__sflush_r+0xda>
 800acd2:	bf00      	nop
 800acd4:	20400001 	.word	0x20400001

0800acd8 <_fflush_r>:
 800acd8:	b538      	push	{r3, r4, r5, lr}
 800acda:	690b      	ldr	r3, [r1, #16]
 800acdc:	4605      	mov	r5, r0
 800acde:	460c      	mov	r4, r1
 800ace0:	b913      	cbnz	r3, 800ace8 <_fflush_r+0x10>
 800ace2:	2500      	movs	r5, #0
 800ace4:	4628      	mov	r0, r5
 800ace6:	bd38      	pop	{r3, r4, r5, pc}
 800ace8:	b118      	cbz	r0, 800acf2 <_fflush_r+0x1a>
 800acea:	6983      	ldr	r3, [r0, #24]
 800acec:	b90b      	cbnz	r3, 800acf2 <_fflush_r+0x1a>
 800acee:	f000 f887 	bl	800ae00 <__sinit>
 800acf2:	4b14      	ldr	r3, [pc, #80]	; (800ad44 <_fflush_r+0x6c>)
 800acf4:	429c      	cmp	r4, r3
 800acf6:	d11b      	bne.n	800ad30 <_fflush_r+0x58>
 800acf8:	686c      	ldr	r4, [r5, #4]
 800acfa:	f9b4 300c 	ldrsh.w	r3, [r4, #12]
 800acfe:	2b00      	cmp	r3, #0
 800ad00:	d0ef      	beq.n	800ace2 <_fflush_r+0xa>
 800ad02:	6e62      	ldr	r2, [r4, #100]	; 0x64
 800ad04:	07d0      	lsls	r0, r2, #31
 800ad06:	d404      	bmi.n	800ad12 <_fflush_r+0x3a>
 800ad08:	0599      	lsls	r1, r3, #22
 800ad0a:	d402      	bmi.n	800ad12 <_fflush_r+0x3a>
 800ad0c:	6da0      	ldr	r0, [r4, #88]	; 0x58
 800ad0e:	f000 f915 	bl	800af3c <__retarget_lock_acquire_recursive>
 800ad12:	4628      	mov	r0, r5
 800ad14:	4621      	mov	r1, r4
 800ad16:	f7ff ff59 	bl	800abcc <__sflush_r>
 800ad1a:	6e63      	ldr	r3, [r4, #100]	; 0x64
 800ad1c:	4605      	mov	r5, r0
 800ad1e:	07da      	lsls	r2, r3, #31
 800ad20:	d4e0      	bmi.n	800ace4 <_fflush_r+0xc>
 800ad22:	89a3      	ldrh	r3, [r4, #12]
 800ad24:	059b      	lsls	r3, r3, #22
 800ad26:	d4dd      	bmi.n	800ace4 <_fflush_r+0xc>
 800ad28:	6da0      	ldr	r0, [r4, #88]	; 0x58
 800ad2a:	f000 f908 	bl	800af3e <__retarget_lock_release_recursive>
 800ad2e:	e7d9      	b.n	800ace4 <_fflush_r+0xc>
 800ad30:	4b05      	ldr	r3, [pc, #20]	; (800ad48 <_fflush_r+0x70>)
 800ad32:	429c      	cmp	r4, r3
 800ad34:	d101      	bne.n	800ad3a <_fflush_r+0x62>
 800ad36:	68ac      	ldr	r4, [r5, #8]
 800ad38:	e7df      	b.n	800acfa <_fflush_r+0x22>
 800ad3a:	4b04      	ldr	r3, [pc, #16]	; (800ad4c <_fflush_r+0x74>)
 800ad3c:	429c      	cmp	r4, r3
 800ad3e:	bf08      	it	eq
 800ad40:	68ec      	ldreq	r4, [r5, #12]
 800ad42:	e7da      	b.n	800acfa <_fflush_r+0x22>
 800ad44:	0800d1b0 	.word	0x0800d1b0
 800ad48:	0800d1d0 	.word	0x0800d1d0
 800ad4c:	0800d190 	.word	0x0800d190

0800ad50 <std>:
 800ad50:	2300      	movs	r3, #0
 800ad52:	b510      	push	{r4, lr}
 800ad54:	4604      	mov	r4, r0
 800ad56:	e9c0 3300 	strd	r3, r3, [r0]
 800ad5a:	e9c0 3304 	strd	r3, r3, [r0, #16]
 800ad5e:	6083      	str	r3, [r0, #8]
 800ad60:	8181      	strh	r1, [r0, #12]
 800ad62:	6643      	str	r3, [r0, #100]	; 0x64
 800ad64:	81c2      	strh	r2, [r0, #14]
 800ad66:	6183      	str	r3, [r0, #24]
 800ad68:	4619      	mov	r1, r3
 800ad6a:	2208      	movs	r2, #8
 800ad6c:	305c      	adds	r0, #92	; 0x5c
 800ad6e:	f7ff fcd5 	bl	800a71c <memset>
 800ad72:	4b05      	ldr	r3, [pc, #20]	; (800ad88 <std+0x38>)
 800ad74:	6224      	str	r4, [r4, #32]
 800ad76:	6263      	str	r3, [r4, #36]	; 0x24
 800ad78:	4b04      	ldr	r3, [pc, #16]	; (800ad8c <std+0x3c>)
 800ad7a:	62a3      	str	r3, [r4, #40]	; 0x28
 800ad7c:	4b04      	ldr	r3, [pc, #16]	; (800ad90 <std+0x40>)
 800ad7e:	62e3      	str	r3, [r4, #44]	; 0x2c
 800ad80:	4b04      	ldr	r3, [pc, #16]	; (800ad94 <std+0x44>)
 800ad82:	6323      	str	r3, [r4, #48]	; 0x30
 800ad84:	bd10      	pop	{r4, pc}
 800ad86:	bf00      	nop
 800ad88:	0800b5fd 	.word	0x0800b5fd
 800ad8c:	0800b61f 	.word	0x0800b61f
 800ad90:	0800b657 	.word	0x0800b657
 800ad94:	0800b67b 	.word	0x0800b67b

0800ad98 <_cleanup_r>:
 800ad98:	4901      	ldr	r1, [pc, #4]	; (800ada0 <_cleanup_r+0x8>)
 800ad9a:	f000 b8af 	b.w	800aefc <_fwalk_reent>
 800ad9e:	bf00      	nop
 800ada0:	0800acd9 	.word	0x0800acd9

0800ada4 <__sfmoreglue>:
 800ada4:	b570      	push	{r4, r5, r6, lr}
 800ada6:	2568      	movs	r5, #104	; 0x68
 800ada8:	1e4a      	subs	r2, r1, #1
 800adaa:	4355      	muls	r5, r2
 800adac:	460e      	mov	r6, r1
 800adae:	f105 0174 	add.w	r1, r5, #116	; 0x74
 800adb2:	f7ff fd07 	bl	800a7c4 <_malloc_r>
 800adb6:	4604      	mov	r4, r0
 800adb8:	b140      	cbz	r0, 800adcc <__sfmoreglue+0x28>
 800adba:	2100      	movs	r1, #0
 800adbc:	e9c0 1600 	strd	r1, r6, [r0]
 800adc0:	300c      	adds	r0, #12
 800adc2:	60a0      	str	r0, [r4, #8]
 800adc4:	f105 0268 	add.w	r2, r5, #104	; 0x68
 800adc8:	f7ff fca8 	bl	800a71c <memset>
 800adcc:	4620      	mov	r0, r4
 800adce:	bd70      	pop	{r4, r5, r6, pc}

0800add0 <__sfp_lock_acquire>:
 800add0:	4801      	ldr	r0, [pc, #4]	; (800add8 <__sfp_lock_acquire+0x8>)
 800add2:	f000 b8b3 	b.w	800af3c <__retarget_lock_acquire_recursive>
 800add6:	bf00      	nop
 800add8:	20006bb4 	.word	0x20006bb4

0800addc <__sfp_lock_release>:
 800addc:	4801      	ldr	r0, [pc, #4]	; (800ade4 <__sfp_lock_release+0x8>)
 800adde:	f000 b8ae 	b.w	800af3e <__retarget_lock_release_recursive>
 800ade2:	bf00      	nop
 800ade4:	20006bb4 	.word	0x20006bb4

0800ade8 <__sinit_lock_acquire>:
 800ade8:	4801      	ldr	r0, [pc, #4]	; (800adf0 <__sinit_lock_acquire+0x8>)
 800adea:	f000 b8a7 	b.w	800af3c <__retarget_lock_acquire_recursive>
 800adee:	bf00      	nop
 800adf0:	20006baf 	.word	0x20006baf

0800adf4 <__sinit_lock_release>:
 800adf4:	4801      	ldr	r0, [pc, #4]	; (800adfc <__sinit_lock_release+0x8>)
 800adf6:	f000 b8a2 	b.w	800af3e <__retarget_lock_release_recursive>
 800adfa:	bf00      	nop
 800adfc:	20006baf 	.word	0x20006baf

0800ae00 <__sinit>:
 800ae00:	b510      	push	{r4, lr}
 800ae02:	4604      	mov	r4, r0
 800ae04:	f7ff fff0 	bl	800ade8 <__sinit_lock_acquire>
 800ae08:	69a3      	ldr	r3, [r4, #24]
 800ae0a:	b11b      	cbz	r3, 800ae14 <__sinit+0x14>
 800ae0c:	e8bd 4010 	ldmia.w	sp!, {r4, lr}
 800ae10:	f7ff bff0 	b.w	800adf4 <__sinit_lock_release>
 800ae14:	e9c4 3312 	strd	r3, r3, [r4, #72]	; 0x48
 800ae18:	6523      	str	r3, [r4, #80]	; 0x50
 800ae1a:	4b13      	ldr	r3, [pc, #76]	; (800ae68 <__sinit+0x68>)
 800ae1c:	4a13      	ldr	r2, [pc, #76]	; (800ae6c <__sinit+0x6c>)
 800ae1e:	681b      	ldr	r3, [r3, #0]
 800ae20:	62a2      	str	r2, [r4, #40]	; 0x28
 800ae22:	42a3      	cmp	r3, r4
 800ae24:	bf08      	it	eq
 800ae26:	2301      	moveq	r3, #1
 800ae28:	4620      	mov	r0, r4
 800ae2a:	bf08      	it	eq
 800ae2c:	61a3      	streq	r3, [r4, #24]
 800ae2e:	f000 f81f 	bl	800ae70 <__sfp>
 800ae32:	6060      	str	r0, [r4, #4]
 800ae34:	4620      	mov	r0, r4
 800ae36:	f000 f81b 	bl	800ae70 <__sfp>
 800ae3a:	60a0      	str	r0, [r4, #8]
 800ae3c:	4620      	mov	r0, r4
 800ae3e:	f000 f817 	bl	800ae70 <__sfp>
 800ae42:	2200      	movs	r2, #0
 800ae44:	2104      	movs	r1, #4
 800ae46:	60e0      	str	r0, [r4, #12]
 800ae48:	6860      	ldr	r0, [r4, #4]
 800ae4a:	f7ff ff81 	bl	800ad50 <std>
 800ae4e:	2201      	movs	r2, #1
 800ae50:	2109      	movs	r1, #9
 800ae52:	68a0      	ldr	r0, [r4, #8]
 800ae54:	f7ff ff7c 	bl	800ad50 <std>
 800ae58:	2202      	movs	r2, #2
 800ae5a:	2112      	movs	r1, #18
 800ae5c:	68e0      	ldr	r0, [r4, #12]
 800ae5e:	f7ff ff77 	bl	800ad50 <std>
 800ae62:	2301      	movs	r3, #1
 800ae64:	61a3      	str	r3, [r4, #24]
 800ae66:	e7d1      	b.n	800ae0c <__sinit+0xc>
 800ae68:	0800d18c 	.word	0x0800d18c
 800ae6c:	0800ad99 	.word	0x0800ad99

0800ae70 <__sfp>:
 800ae70:	b5f8      	push	{r3, r4, r5, r6, r7, lr}
 800ae72:	4607      	mov	r7, r0
 800ae74:	f7ff ffac 	bl	800add0 <__sfp_lock_acquire>
 800ae78:	4b1e      	ldr	r3, [pc, #120]	; (800aef4 <__sfp+0x84>)
 800ae7a:	681e      	ldr	r6, [r3, #0]
 800ae7c:	69b3      	ldr	r3, [r6, #24]
 800ae7e:	b913      	cbnz	r3, 800ae86 <__sfp+0x16>
 800ae80:	4630      	mov	r0, r6
 800ae82:	f7ff ffbd 	bl	800ae00 <__sinit>
 800ae86:	3648      	adds	r6, #72	; 0x48
 800ae88:	e9d6 3401 	ldrd	r3, r4, [r6, #4]
 800ae8c:	3b01      	subs	r3, #1
 800ae8e:	d503      	bpl.n	800ae98 <__sfp+0x28>
 800ae90:	6833      	ldr	r3, [r6, #0]
 800ae92:	b30b      	cbz	r3, 800aed8 <__sfp+0x68>
 800ae94:	6836      	ldr	r6, [r6, #0]
 800ae96:	e7f7      	b.n	800ae88 <__sfp+0x18>
 800ae98:	f9b4 500c 	ldrsh.w	r5, [r4, #12]
 800ae9c:	b9d5      	cbnz	r5, 800aed4 <__sfp+0x64>
 800ae9e:	4b16      	ldr	r3, [pc, #88]	; (800aef8 <__sfp+0x88>)
 800aea0:	f104 0058 	add.w	r0, r4, #88	; 0x58
 800aea4:	60e3      	str	r3, [r4, #12]
 800aea6:	6665      	str	r5, [r4, #100]	; 0x64
 800aea8:	f000 f847 	bl	800af3a <__retarget_lock_init_recursive>
 800aeac:	f7ff ff96 	bl	800addc <__sfp_lock_release>
 800aeb0:	2208      	movs	r2, #8
 800aeb2:	4629      	mov	r1, r5
 800aeb4:	e9c4 5501 	strd	r5, r5, [r4, #4]
 800aeb8:	e9c4 5504 	strd	r5, r5, [r4, #16]
 800aebc:	6025      	str	r5, [r4, #0]
 800aebe:	61a5      	str	r5, [r4, #24]
 800aec0:	f104 005c 	add.w	r0, r4, #92	; 0x5c
 800aec4:	f7ff fc2a 	bl	800a71c <memset>
 800aec8:	e9c4 550d 	strd	r5, r5, [r4, #52]	; 0x34
 800aecc:	e9c4 5512 	strd	r5, r5, [r4, #72]	; 0x48
 800aed0:	4620      	mov	r0, r4
 800aed2:	bdf8      	pop	{r3, r4, r5, r6, r7, pc}
 800aed4:	3468      	adds	r4, #104	; 0x68
 800aed6:	e7d9      	b.n	800ae8c <__sfp+0x1c>
 800aed8:	2104      	movs	r1, #4
 800aeda:	4638      	mov	r0, r7
 800aedc:	f7ff ff62 	bl	800ada4 <__sfmoreglue>
 800aee0:	4604      	mov	r4, r0
 800aee2:	6030      	str	r0, [r6, #0]
 800aee4:	2800      	cmp	r0, #0
 800aee6:	d1d5      	bne.n	800ae94 <__sfp+0x24>
 800aee8:	f7ff ff78 	bl	800addc <__sfp_lock_release>
 800aeec:	230c      	movs	r3, #12
 800aeee:	603b      	str	r3, [r7, #0]
 800aef0:	e7ee      	b.n	800aed0 <__sfp+0x60>
 800aef2:	bf00      	nop
 800aef4:	0800d18c 	.word	0x0800d18c
 800aef8:	ffff0001 	.word	0xffff0001

0800aefc <_fwalk_reent>:
 800aefc:	e92d 43f8 	stmdb	sp!, {r3, r4, r5, r6, r7, r8, r9, lr}
 800af00:	4606      	mov	r6, r0
 800af02:	4688      	mov	r8, r1
 800af04:	2700      	movs	r7, #0
 800af06:	f100 0448 	add.w	r4, r0, #72	; 0x48
 800af0a:	e9d4 9501 	ldrd	r9, r5, [r4, #4]
 800af0e:	f1b9 0901 	subs.w	r9, r9, #1
 800af12:	d505      	bpl.n	800af20 <_fwalk_reent+0x24>
 800af14:	6824      	ldr	r4, [r4, #0]
 800af16:	2c00      	cmp	r4, #0
 800af18:	d1f7      	bne.n	800af0a <_fwalk_reent+0xe>
 800af1a:	4638      	mov	r0, r7
 800af1c:	e8bd 83f8 	ldmia.w	sp!, {r3, r4, r5, r6, r7, r8, r9, pc}
 800af20:	89ab      	ldrh	r3, [r5, #12]
 800af22:	2b01      	cmp	r3, #1
 800af24:	d907      	bls.n	800af36 <_fwalk_reent+0x3a>
 800af26:	f9b5 300e 	ldrsh.w	r3, [r5, #14]
 800af2a:	3301      	adds	r3, #1
 800af2c:	d003      	beq.n	800af36 <_fwalk_reent+0x3a>
 800af2e:	4629      	mov	r1, r5
 800af30:	4630      	mov	r0, r6
 800af32:	47c0      	blx	r8
 800af34:	4307      	orrs	r7, r0
 800af36:	3568      	adds	r5, #104	; 0x68
 800af38:	e7e9      	b.n	800af0e <_fwalk_reent+0x12>

0800af3a <__retarget_lock_init_recursive>:
 800af3a:	4770      	bx	lr

0800af3c <__retarget_lock_acquire_recursive>:
 800af3c:	4770      	bx	lr

0800af3e <__retarget_lock_release_recursive>:
 800af3e:	4770      	bx	lr

0800af40 <__swhatbuf_r>:
 800af40:	b570      	push	{r4, r5, r6, lr}
 800af42:	460e      	mov	r6, r1
 800af44:	f9b1 100e 	ldrsh.w	r1, [r1, #14]
 800af48:	4614      	mov	r4, r2
 800af4a:	2900      	cmp	r1, #0
 800af4c:	461d      	mov	r5, r3
 800af4e:	b096      	sub	sp, #88	; 0x58
 800af50:	da07      	bge.n	800af62 <__swhatbuf_r+0x22>
 800af52:	2300      	movs	r3, #0
 800af54:	602b      	str	r3, [r5, #0]
 800af56:	89b3      	ldrh	r3, [r6, #12]
 800af58:	061a      	lsls	r2, r3, #24
 800af5a:	d410      	bmi.n	800af7e <__swhatbuf_r+0x3e>
 800af5c:	f44f 6380 	mov.w	r3, #1024	; 0x400
 800af60:	e00e      	b.n	800af80 <__swhatbuf_r+0x40>
 800af62:	466a      	mov	r2, sp
 800af64:	f000 fbb0 	bl	800b6c8 <_fstat_r>
 800af68:	2800      	cmp	r0, #0
 800af6a:	dbf2      	blt.n	800af52 <__swhatbuf_r+0x12>
 800af6c:	9a01      	ldr	r2, [sp, #4]
 800af6e:	f402 4270 	and.w	r2, r2, #61440	; 0xf000
 800af72:	f5a2 5300 	sub.w	r3, r2, #8192	; 0x2000
 800af76:	425a      	negs	r2, r3
 800af78:	415a      	adcs	r2, r3
 800af7a:	602a      	str	r2, [r5, #0]
 800af7c:	e7ee      	b.n	800af5c <__swhatbuf_r+0x1c>
 800af7e:	2340      	movs	r3, #64	; 0x40
 800af80:	2000      	movs	r0, #0
 800af82:	6023      	str	r3, [r4, #0]
 800af84:	b016      	add	sp, #88	; 0x58
 800af86:	bd70      	pop	{r4, r5, r6, pc}

0800af88 <__smakebuf_r>:
 800af88:	898b      	ldrh	r3, [r1, #12]
 800af8a:	b573      	push	{r0, r1, r4, r5, r6, lr}
 800af8c:	079d      	lsls	r5, r3, #30
 800af8e:	4606      	mov	r6, r0
 800af90:	460c      	mov	r4, r1
 800af92:	d507      	bpl.n	800afa4 <__smakebuf_r+0x1c>
 800af94:	f104 0347 	add.w	r3, r4, #71	; 0x47
 800af98:	6023      	str	r3, [r4, #0]
 800af9a:	6123      	str	r3, [r4, #16]
 800af9c:	2301      	movs	r3, #1
 800af9e:	6163      	str	r3, [r4, #20]
 800afa0:	b002      	add	sp, #8
 800afa2:	bd70      	pop	{r4, r5, r6, pc}
 800afa4:	466a      	mov	r2, sp
 800afa6:	ab01      	add	r3, sp, #4
 800afa8:	f7ff ffca 	bl	800af40 <__swhatbuf_r>
 800afac:	9900      	ldr	r1, [sp, #0]
 800afae:	4605      	mov	r5, r0
 800afb0:	4630      	mov	r0, r6
 800afb2:	f7ff fc07 	bl	800a7c4 <_malloc_r>
 800afb6:	b948      	cbnz	r0, 800afcc <__smakebuf_r+0x44>
 800afb8:	f9b4 300c 	ldrsh.w	r3, [r4, #12]
 800afbc:	059a      	lsls	r2, r3, #22
 800afbe:	d4ef      	bmi.n	800afa0 <__smakebuf_r+0x18>
 800afc0:	f023 0303 	bic.w	r3, r3, #3
 800afc4:	f043 0302 	orr.w	r3, r3, #2
 800afc8:	81a3      	strh	r3, [r4, #12]
 800afca:	e7e3      	b.n	800af94 <__smakebuf_r+0xc>
 800afcc:	4b0d      	ldr	r3, [pc, #52]	; (800b004 <__smakebuf_r+0x7c>)
 800afce:	62b3      	str	r3, [r6, #40]	; 0x28
 800afd0:	89a3      	ldrh	r3, [r4, #12]
 800afd2:	6020      	str	r0, [r4, #0]
 800afd4:	f043 0380 	orr.w	r3, r3, #128	; 0x80
 800afd8:	81a3      	strh	r3, [r4, #12]
 800afda:	9b00      	ldr	r3, [sp, #0]
 800afdc:	6120      	str	r0, [r4, #16]
 800afde:	6163      	str	r3, [r4, #20]
 800afe0:	9b01      	ldr	r3, [sp, #4]
 800afe2:	b15b      	cbz	r3, 800affc <__smakebuf_r+0x74>
 800afe4:	4630      	mov	r0, r6
 800afe6:	f9b4 100e 	ldrsh.w	r1, [r4, #14]
 800afea:	f000 fb7f 	bl	800b6ec <_isatty_r>
 800afee:	b128      	cbz	r0, 800affc <__smakebuf_r+0x74>
 800aff0:	89a3      	ldrh	r3, [r4, #12]
 800aff2:	f023 0303 	bic.w	r3, r3, #3
 800aff6:	f043 0301 	orr.w	r3, r3, #1
 800affa:	81a3      	strh	r3, [r4, #12]
 800affc:	89a0      	ldrh	r0, [r4, #12]
 800affe:	4305      	orrs	r5, r0
 800b000:	81a5      	strh	r5, [r4, #12]
 800b002:	e7cd      	b.n	800afa0 <__smakebuf_r+0x18>
 800b004:	0800ad99 	.word	0x0800ad99

0800b008 <__malloc_lock>:
 800b008:	4801      	ldr	r0, [pc, #4]	; (800b010 <__malloc_lock+0x8>)
 800b00a:	f7ff bf97 	b.w	800af3c <__retarget_lock_acquire_recursive>
 800b00e:	bf00      	nop
 800b010:	20006bb0 	.word	0x20006bb0

0800b014 <__malloc_unlock>:
 800b014:	4801      	ldr	r0, [pc, #4]	; (800b01c <__malloc_unlock+0x8>)
 800b016:	f7ff bf92 	b.w	800af3e <__retarget_lock_release_recursive>
 800b01a:	bf00      	nop
 800b01c:	20006bb0 	.word	0x20006bb0

0800b020 <__sfputc_r>:
 800b020:	6893      	ldr	r3, [r2, #8]
 800b022:	b410      	push	{r4}
 800b024:	3b01      	subs	r3, #1
 800b026:	2b00      	cmp	r3, #0
 800b028:	6093      	str	r3, [r2, #8]
 800b02a:	da07      	bge.n	800b03c <__sfputc_r+0x1c>
 800b02c:	6994      	ldr	r4, [r2, #24]
 800b02e:	42a3      	cmp	r3, r4
 800b030:	db01      	blt.n	800b036 <__sfputc_r+0x16>
 800b032:	290a      	cmp	r1, #10
 800b034:	d102      	bne.n	800b03c <__sfputc_r+0x1c>
 800b036:	bc10      	pop	{r4}
 800b038:	f7ff bd08 	b.w	800aa4c <__swbuf_r>
 800b03c:	6813      	ldr	r3, [r2, #0]
 800b03e:	1c58      	adds	r0, r3, #1
 800b040:	6010      	str	r0, [r2, #0]
 800b042:	7019      	strb	r1, [r3, #0]
 800b044:	4608      	mov	r0, r1
 800b046:	bc10      	pop	{r4}
 800b048:	4770      	bx	lr

0800b04a <__sfputs_r>:
 800b04a:	b5f8      	push	{r3, r4, r5, r6, r7, lr}
 800b04c:	4606      	mov	r6, r0
 800b04e:	460f      	mov	r7, r1
 800b050:	4614      	mov	r4, r2
 800b052:	18d5      	adds	r5, r2, r3
 800b054:	42ac      	cmp	r4, r5
 800b056:	d101      	bne.n	800b05c <__sfputs_r+0x12>
 800b058:	2000      	movs	r0, #0
 800b05a:	e007      	b.n	800b06c <__sfputs_r+0x22>
 800b05c:	463a      	mov	r2, r7
 800b05e:	4630      	mov	r0, r6
 800b060:	f814 1b01 	ldrb.w	r1, [r4], #1
 800b064:	f7ff ffdc 	bl	800b020 <__sfputc_r>
 800b068:	1c43      	adds	r3, r0, #1
 800b06a:	d1f3      	bne.n	800b054 <__sfputs_r+0xa>
 800b06c:	bdf8      	pop	{r3, r4, r5, r6, r7, pc}
	...

0800b070 <_vfiprintf_r>:
 800b070:	e92d 4ff0 	stmdb	sp!, {r4, r5, r6, r7, r8, r9, sl, fp, lr}
 800b074:	460d      	mov	r5, r1
 800b076:	4614      	mov	r4, r2
 800b078:	4698      	mov	r8, r3
 800b07a:	4606      	mov	r6, r0
 800b07c:	b09d      	sub	sp, #116	; 0x74
 800b07e:	b118      	cbz	r0, 800b088 <_vfiprintf_r+0x18>
 800b080:	6983      	ldr	r3, [r0, #24]
 800b082:	b90b      	cbnz	r3, 800b088 <_vfiprintf_r+0x18>
 800b084:	f7ff febc 	bl	800ae00 <__sinit>
 800b088:	4b89      	ldr	r3, [pc, #548]	; (800b2b0 <_vfiprintf_r+0x240>)
 800b08a:	429d      	cmp	r5, r3
 800b08c:	d11b      	bne.n	800b0c6 <_vfiprintf_r+0x56>
 800b08e:	6875      	ldr	r5, [r6, #4]
 800b090:	6e6b      	ldr	r3, [r5, #100]	; 0x64
 800b092:	07d9      	lsls	r1, r3, #31
 800b094:	d405      	bmi.n	800b0a2 <_vfiprintf_r+0x32>
 800b096:	89ab      	ldrh	r3, [r5, #12]
 800b098:	059a      	lsls	r2, r3, #22
 800b09a:	d402      	bmi.n	800b0a2 <_vfiprintf_r+0x32>
 800b09c:	6da8      	ldr	r0, [r5, #88]	; 0x58
 800b09e:	f7ff ff4d 	bl	800af3c <__retarget_lock_acquire_recursive>
 800b0a2:	89ab      	ldrh	r3, [r5, #12]
 800b0a4:	071b      	lsls	r3, r3, #28
 800b0a6:	d501      	bpl.n	800b0ac <_vfiprintf_r+0x3c>
 800b0a8:	692b      	ldr	r3, [r5, #16]
 800b0aa:	b9eb      	cbnz	r3, 800b0e8 <_vfiprintf_r+0x78>
 800b0ac:	4629      	mov	r1, r5
 800b0ae:	4630      	mov	r0, r6
 800b0b0:	f7ff fd1e 	bl	800aaf0 <__swsetup_r>
 800b0b4:	b1c0      	cbz	r0, 800b0e8 <_vfiprintf_r+0x78>
 800b0b6:	6e6b      	ldr	r3, [r5, #100]	; 0x64
 800b0b8:	07dc      	lsls	r4, r3, #31
 800b0ba:	d50e      	bpl.n	800b0da <_vfiprintf_r+0x6a>
 800b0bc:	f04f 30ff 	mov.w	r0, #4294967295
 800b0c0:	b01d      	add	sp, #116	; 0x74
 800b0c2:	e8bd 8ff0 	ldmia.w	sp!, {r4, r5, r6, r7, r8, r9, sl, fp, pc}
 800b0c6:	4b7b      	ldr	r3, [pc, #492]	; (800b2b4 <_vfiprintf_r+0x244>)
 800b0c8:	429d      	cmp	r5, r3
 800b0ca:	d101      	bne.n	800b0d0 <_vfiprintf_r+0x60>
 800b0cc:	68b5      	ldr	r5, [r6, #8]
 800b0ce:	e7df      	b.n	800b090 <_vfiprintf_r+0x20>
 800b0d0:	4b79      	ldr	r3, [pc, #484]	; (800b2b8 <_vfiprintf_r+0x248>)
 800b0d2:	429d      	cmp	r5, r3
 800b0d4:	bf08      	it	eq
 800b0d6:	68f5      	ldreq	r5, [r6, #12]
 800b0d8:	e7da      	b.n	800b090 <_vfiprintf_r+0x20>
 800b0da:	89ab      	ldrh	r3, [r5, #12]
 800b0dc:	0598      	lsls	r0, r3, #22
 800b0de:	d4ed      	bmi.n	800b0bc <_vfiprintf_r+0x4c>
 800b0e0:	6da8      	ldr	r0, [r5, #88]	; 0x58
 800b0e2:	f7ff ff2c 	bl	800af3e <__retarget_lock_release_recursive>
 800b0e6:	e7e9      	b.n	800b0bc <_vfiprintf_r+0x4c>
 800b0e8:	2300      	movs	r3, #0
 800b0ea:	9309      	str	r3, [sp, #36]	; 0x24
 800b0ec:	2320      	movs	r3, #32
 800b0ee:	f88d 3029 	strb.w	r3, [sp, #41]	; 0x29
 800b0f2:	2330      	movs	r3, #48	; 0x30
 800b0f4:	f04f 0901 	mov.w	r9, #1
 800b0f8:	f8cd 800c 	str.w	r8, [sp, #12]
 800b0fc:	f8df 81bc 	ldr.w	r8, [pc, #444]	; 800b2bc <_vfiprintf_r+0x24c>
 800b100:	f88d 302a 	strb.w	r3, [sp, #42]	; 0x2a
 800b104:	4623      	mov	r3, r4
 800b106:	469a      	mov	sl, r3
 800b108:	f813 2b01 	ldrb.w	r2, [r3], #1
 800b10c:	b10a      	cbz	r2, 800b112 <_vfiprintf_r+0xa2>
 800b10e:	2a25      	cmp	r2, #37	; 0x25
 800b110:	d1f9      	bne.n	800b106 <_vfiprintf_r+0x96>
 800b112:	ebba 0b04 	subs.w	fp, sl, r4
 800b116:	d00b      	beq.n	800b130 <_vfiprintf_r+0xc0>
 800b118:	465b      	mov	r3, fp
 800b11a:	4622      	mov	r2, r4
 800b11c:	4629      	mov	r1, r5
 800b11e:	4630      	mov	r0, r6
 800b120:	f7ff ff93 	bl	800b04a <__sfputs_r>
 800b124:	3001      	adds	r0, #1
 800b126:	f000 80aa 	beq.w	800b27e <_vfiprintf_r+0x20e>
 800b12a:	9a09      	ldr	r2, [sp, #36]	; 0x24
 800b12c:	445a      	add	r2, fp
 800b12e:	9209      	str	r2, [sp, #36]	; 0x24
 800b130:	f89a 3000 	ldrb.w	r3, [sl]
 800b134:	2b00      	cmp	r3, #0
 800b136:	f000 80a2 	beq.w	800b27e <_vfiprintf_r+0x20e>
 800b13a:	2300      	movs	r3, #0
 800b13c:	f04f 32ff 	mov.w	r2, #4294967295
 800b140:	e9cd 2305 	strd	r2, r3, [sp, #20]
 800b144:	f10a 0a01 	add.w	sl, sl, #1
 800b148:	9304      	str	r3, [sp, #16]
 800b14a:	9307      	str	r3, [sp, #28]
 800b14c:	f88d 3053 	strb.w	r3, [sp, #83]	; 0x53
 800b150:	931a      	str	r3, [sp, #104]	; 0x68
 800b152:	4654      	mov	r4, sl
 800b154:	2205      	movs	r2, #5
 800b156:	f814 1b01 	ldrb.w	r1, [r4], #1
 800b15a:	4858      	ldr	r0, [pc, #352]	; (800b2bc <_vfiprintf_r+0x24c>)
 800b15c:	f7ff fa9a 	bl	800a694 <memchr>
 800b160:	9a04      	ldr	r2, [sp, #16]
 800b162:	b9d8      	cbnz	r0, 800b19c <_vfiprintf_r+0x12c>
 800b164:	06d1      	lsls	r1, r2, #27
 800b166:	bf44      	itt	mi
 800b168:	2320      	movmi	r3, #32
 800b16a:	f88d 3053 	strbmi.w	r3, [sp, #83]	; 0x53
 800b16e:	0713      	lsls	r3, r2, #28
 800b170:	bf44      	itt	mi
 800b172:	232b      	movmi	r3, #43	; 0x2b
 800b174:	f88d 3053 	strbmi.w	r3, [sp, #83]	; 0x53
 800b178:	f89a 3000 	ldrb.w	r3, [sl]
 800b17c:	2b2a      	cmp	r3, #42	; 0x2a
 800b17e:	d015      	beq.n	800b1ac <_vfiprintf_r+0x13c>
 800b180:	4654      	mov	r4, sl
 800b182:	2000      	movs	r0, #0
 800b184:	f04f 0c0a 	mov.w	ip, #10
 800b188:	9a07      	ldr	r2, [sp, #28]
 800b18a:	4621      	mov	r1, r4
 800b18c:	f811 3b01 	ldrb.w	r3, [r1], #1
 800b190:	3b30      	subs	r3, #48	; 0x30
 800b192:	2b09      	cmp	r3, #9
 800b194:	d94e      	bls.n	800b234 <_vfiprintf_r+0x1c4>
 800b196:	b1b0      	cbz	r0, 800b1c6 <_vfiprintf_r+0x156>
 800b198:	9207      	str	r2, [sp, #28]
 800b19a:	e014      	b.n	800b1c6 <_vfiprintf_r+0x156>
 800b19c:	eba0 0308 	sub.w	r3, r0, r8
 800b1a0:	fa09 f303 	lsl.w	r3, r9, r3
 800b1a4:	4313      	orrs	r3, r2
 800b1a6:	46a2      	mov	sl, r4
 800b1a8:	9304      	str	r3, [sp, #16]
 800b1aa:	e7d2      	b.n	800b152 <_vfiprintf_r+0xe2>
 800b1ac:	9b03      	ldr	r3, [sp, #12]
 800b1ae:	1d19      	adds	r1, r3, #4
 800b1b0:	681b      	ldr	r3, [r3, #0]
 800b1b2:	9103      	str	r1, [sp, #12]
 800b1b4:	2b00      	cmp	r3, #0
 800b1b6:	bfbb      	ittet	lt
 800b1b8:	425b      	neglt	r3, r3
 800b1ba:	f042 0202 	orrlt.w	r2, r2, #2
 800b1be:	9307      	strge	r3, [sp, #28]
 800b1c0:	9307      	strlt	r3, [sp, #28]
 800b1c2:	bfb8      	it	lt
 800b1c4:	9204      	strlt	r2, [sp, #16]
 800b1c6:	7823      	ldrb	r3, [r4, #0]
 800b1c8:	2b2e      	cmp	r3, #46	; 0x2e
 800b1ca:	d10c      	bne.n	800b1e6 <_vfiprintf_r+0x176>
 800b1cc:	7863      	ldrb	r3, [r4, #1]
 800b1ce:	2b2a      	cmp	r3, #42	; 0x2a
 800b1d0:	d135      	bne.n	800b23e <_vfiprintf_r+0x1ce>
 800b1d2:	9b03      	ldr	r3, [sp, #12]
 800b1d4:	3402      	adds	r4, #2
 800b1d6:	1d1a      	adds	r2, r3, #4
 800b1d8:	681b      	ldr	r3, [r3, #0]
 800b1da:	9203      	str	r2, [sp, #12]
 800b1dc:	2b00      	cmp	r3, #0
 800b1de:	bfb8      	it	lt
 800b1e0:	f04f 33ff 	movlt.w	r3, #4294967295
 800b1e4:	9305      	str	r3, [sp, #20]
 800b1e6:	f8df a0e4 	ldr.w	sl, [pc, #228]	; 800b2cc <_vfiprintf_r+0x25c>
 800b1ea:	2203      	movs	r2, #3
 800b1ec:	4650      	mov	r0, sl
 800b1ee:	7821      	ldrb	r1, [r4, #0]
 800b1f0:	f7ff fa50 	bl	800a694 <memchr>
 800b1f4:	b140      	cbz	r0, 800b208 <_vfiprintf_r+0x198>
 800b1f6:	2340      	movs	r3, #64	; 0x40
 800b1f8:	eba0 000a 	sub.w	r0, r0, sl
 800b1fc:	fa03 f000 	lsl.w	r0, r3, r0
 800b200:	9b04      	ldr	r3, [sp, #16]
 800b202:	3401      	adds	r4, #1
 800b204:	4303      	orrs	r3, r0
 800b206:	9304      	str	r3, [sp, #16]
 800b208:	f814 1b01 	ldrb.w	r1, [r4], #1
 800b20c:	2206      	movs	r2, #6
 800b20e:	482c      	ldr	r0, [pc, #176]	; (800b2c0 <_vfiprintf_r+0x250>)
 800b210:	f88d 1028 	strb.w	r1, [sp, #40]	; 0x28
 800b214:	f7ff fa3e 	bl	800a694 <memchr>
 800b218:	2800      	cmp	r0, #0
 800b21a:	d03f      	beq.n	800b29c <_vfiprintf_r+0x22c>
 800b21c:	4b29      	ldr	r3, [pc, #164]	; (800b2c4 <_vfiprintf_r+0x254>)
 800b21e:	bb1b      	cbnz	r3, 800b268 <_vfiprintf_r+0x1f8>
 800b220:	9b03      	ldr	r3, [sp, #12]
 800b222:	3307      	adds	r3, #7
 800b224:	f023 0307 	bic.w	r3, r3, #7
 800b228:	3308      	adds	r3, #8
 800b22a:	9303      	str	r3, [sp, #12]
 800b22c:	9b09      	ldr	r3, [sp, #36]	; 0x24
 800b22e:	443b      	add	r3, r7
 800b230:	9309      	str	r3, [sp, #36]	; 0x24
 800b232:	e767      	b.n	800b104 <_vfiprintf_r+0x94>
 800b234:	460c      	mov	r4, r1
 800b236:	2001      	movs	r0, #1
 800b238:	fb0c 3202 	mla	r2, ip, r2, r3
 800b23c:	e7a5      	b.n	800b18a <_vfiprintf_r+0x11a>
 800b23e:	2300      	movs	r3, #0
 800b240:	f04f 0c0a 	mov.w	ip, #10
 800b244:	4619      	mov	r1, r3
 800b246:	3401      	adds	r4, #1
 800b248:	9305      	str	r3, [sp, #20]
 800b24a:	4620      	mov	r0, r4
 800b24c:	f810 2b01 	ldrb.w	r2, [r0], #1
 800b250:	3a30      	subs	r2, #48	; 0x30
 800b252:	2a09      	cmp	r2, #9
 800b254:	d903      	bls.n	800b25e <_vfiprintf_r+0x1ee>
 800b256:	2b00      	cmp	r3, #0
 800b258:	d0c5      	beq.n	800b1e6 <_vfiprintf_r+0x176>
 800b25a:	9105      	str	r1, [sp, #20]
 800b25c:	e7c3      	b.n	800b1e6 <_vfiprintf_r+0x176>
 800b25e:	4604      	mov	r4, r0
 800b260:	2301      	movs	r3, #1
 800b262:	fb0c 2101 	mla	r1, ip, r1, r2
 800b266:	e7f0      	b.n	800b24a <_vfiprintf_r+0x1da>
 800b268:	ab03      	add	r3, sp, #12
 800b26a:	9300      	str	r3, [sp, #0]
 800b26c:	462a      	mov	r2, r5
 800b26e:	4630      	mov	r0, r6
 800b270:	4b15      	ldr	r3, [pc, #84]	; (800b2c8 <_vfiprintf_r+0x258>)
 800b272:	a904      	add	r1, sp, #16
 800b274:	f3af 8000 	nop.w
 800b278:	4607      	mov	r7, r0
 800b27a:	1c78      	adds	r0, r7, #1
 800b27c:	d1d6      	bne.n	800b22c <_vfiprintf_r+0x1bc>
 800b27e:	6e6b      	ldr	r3, [r5, #100]	; 0x64
 800b280:	07d9      	lsls	r1, r3, #31
 800b282:	d405      	bmi.n	800b290 <_vfiprintf_r+0x220>
 800b284:	89ab      	ldrh	r3, [r5, #12]
 800b286:	059a      	lsls	r2, r3, #22
 800b288:	d402      	bmi.n	800b290 <_vfiprintf_r+0x220>
 800b28a:	6da8      	ldr	r0, [r5, #88]	; 0x58
 800b28c:	f7ff fe57 	bl	800af3e <__retarget_lock_release_recursive>
 800b290:	89ab      	ldrh	r3, [r5, #12]
 800b292:	065b      	lsls	r3, r3, #25
 800b294:	f53f af12 	bmi.w	800b0bc <_vfiprintf_r+0x4c>
 800b298:	9809      	ldr	r0, [sp, #36]	; 0x24
 800b29a:	e711      	b.n	800b0c0 <_vfiprintf_r+0x50>
 800b29c:	ab03      	add	r3, sp, #12
 800b29e:	9300      	str	r3, [sp, #0]
 800b2a0:	462a      	mov	r2, r5
 800b2a2:	4630      	mov	r0, r6
 800b2a4:	4b08      	ldr	r3, [pc, #32]	; (800b2c8 <_vfiprintf_r+0x258>)
 800b2a6:	a904      	add	r1, sp, #16
 800b2a8:	f000 f882 	bl	800b3b0 <_printf_i>
 800b2ac:	e7e4      	b.n	800b278 <_vfiprintf_r+0x208>
 800b2ae:	bf00      	nop
 800b2b0:	0800d1b0 	.word	0x0800d1b0
 800b2b4:	0800d1d0 	.word	0x0800d1d0
 800b2b8:	0800d190 	.word	0x0800d190
 800b2bc:	0800d1f0 	.word	0x0800d1f0
 800b2c0:	0800d1fa 	.word	0x0800d1fa
 800b2c4:	00000000 	.word	0x00000000
 800b2c8:	0800b04b 	.word	0x0800b04b
 800b2cc:	0800d1f6 	.word	0x0800d1f6

0800b2d0 <_printf_common>:
 800b2d0:	e92d 47f0 	stmdb	sp!, {r4, r5, r6, r7, r8, r9, sl, lr}
 800b2d4:	4616      	mov	r6, r2
 800b2d6:	4699      	mov	r9, r3
 800b2d8:	688a      	ldr	r2, [r1, #8]
 800b2da:	690b      	ldr	r3, [r1, #16]
 800b2dc:	4607      	mov	r7, r0
 800b2de:	4293      	cmp	r3, r2
 800b2e0:	bfb8      	it	lt
 800b2e2:	4613      	movlt	r3, r2
 800b2e4:	6033      	str	r3, [r6, #0]
 800b2e6:	f891 2043 	ldrb.w	r2, [r1, #67]	; 0x43
 800b2ea:	460c      	mov	r4, r1
 800b2ec:	f8dd 8020 	ldr.w	r8, [sp, #32]
 800b2f0:	b10a      	cbz	r2, 800b2f6 <_printf_common+0x26>
 800b2f2:	3301      	adds	r3, #1
 800b2f4:	6033      	str	r3, [r6, #0]
 800b2f6:	6823      	ldr	r3, [r4, #0]
 800b2f8:	0699      	lsls	r1, r3, #26
 800b2fa:	bf42      	ittt	mi
 800b2fc:	6833      	ldrmi	r3, [r6, #0]
 800b2fe:	3302      	addmi	r3, #2
 800b300:	6033      	strmi	r3, [r6, #0]
 800b302:	6825      	ldr	r5, [r4, #0]
 800b304:	f015 0506 	ands.w	r5, r5, #6
 800b308:	d106      	bne.n	800b318 <_printf_common+0x48>
 800b30a:	f104 0a19 	add.w	sl, r4, #25
 800b30e:	68e3      	ldr	r3, [r4, #12]
 800b310:	6832      	ldr	r2, [r6, #0]
 800b312:	1a9b      	subs	r3, r3, r2
 800b314:	42ab      	cmp	r3, r5
 800b316:	dc28      	bgt.n	800b36a <_printf_common+0x9a>
 800b318:	f894 2043 	ldrb.w	r2, [r4, #67]	; 0x43
 800b31c:	1e13      	subs	r3, r2, #0
 800b31e:	6822      	ldr	r2, [r4, #0]
 800b320:	bf18      	it	ne
 800b322:	2301      	movne	r3, #1
 800b324:	0692      	lsls	r2, r2, #26
 800b326:	d42d      	bmi.n	800b384 <_printf_common+0xb4>
 800b328:	4649      	mov	r1, r9
 800b32a:	4638      	mov	r0, r7
 800b32c:	f104 0243 	add.w	r2, r4, #67	; 0x43
 800b330:	47c0      	blx	r8
 800b332:	3001      	adds	r0, #1
 800b334:	d020      	beq.n	800b378 <_printf_common+0xa8>
 800b336:	6823      	ldr	r3, [r4, #0]
 800b338:	68e5      	ldr	r5, [r4, #12]
 800b33a:	f003 0306 	and.w	r3, r3, #6
 800b33e:	2b04      	cmp	r3, #4
 800b340:	bf18      	it	ne
 800b342:	2500      	movne	r5, #0
 800b344:	6832      	ldr	r2, [r6, #0]
 800b346:	f04f 0600 	mov.w	r6, #0
 800b34a:	68a3      	ldr	r3, [r4, #8]
 800b34c:	bf08      	it	eq
 800b34e:	1aad      	subeq	r5, r5, r2
 800b350:	6922      	ldr	r2, [r4, #16]
 800b352:	bf08      	it	eq
 800b354:	ea25 75e5 	biceq.w	r5, r5, r5, asr #31
 800b358:	4293      	cmp	r3, r2
 800b35a:	bfc4      	itt	gt
 800b35c:	1a9b      	subgt	r3, r3, r2
 800b35e:	18ed      	addgt	r5, r5, r3
 800b360:	341a      	adds	r4, #26
 800b362:	42b5      	cmp	r5, r6
 800b364:	d11a      	bne.n	800b39c <_printf_common+0xcc>
 800b366:	2000      	movs	r0, #0
 800b368:	e008      	b.n	800b37c <_printf_common+0xac>
 800b36a:	2301      	movs	r3, #1
 800b36c:	4652      	mov	r2, sl
 800b36e:	4649      	mov	r1, r9
 800b370:	4638      	mov	r0, r7
 800b372:	47c0      	blx	r8
 800b374:	3001      	adds	r0, #1
 800b376:	d103      	bne.n	800b380 <_printf_common+0xb0>
 800b378:	f04f 30ff 	mov.w	r0, #4294967295
 800b37c:	e8bd 87f0 	ldmia.w	sp!, {r4, r5, r6, r7, r8, r9, sl, pc}
 800b380:	3501      	adds	r5, #1
 800b382:	e7c4      	b.n	800b30e <_printf_common+0x3e>
 800b384:	2030      	movs	r0, #48	; 0x30
 800b386:	18e1      	adds	r1, r4, r3
 800b388:	f881 0043 	strb.w	r0, [r1, #67]	; 0x43
 800b38c:	1c5a      	adds	r2, r3, #1
 800b38e:	f894 1045 	ldrb.w	r1, [r4, #69]	; 0x45
 800b392:	4422      	add	r2, r4
 800b394:	3302      	adds	r3, #2
 800b396:	f882 1043 	strb.w	r1, [r2, #67]	; 0x43
 800b39a:	e7c5      	b.n	800b328 <_printf_common+0x58>
 800b39c:	2301      	movs	r3, #1
 800b39e:	4622      	mov	r2, r4
 800b3a0:	4649      	mov	r1, r9
 800b3a2:	4638      	mov	r0, r7
 800b3a4:	47c0      	blx	r8
 800b3a6:	3001      	adds	r0, #1
 800b3a8:	d0e6      	beq.n	800b378 <_printf_common+0xa8>
 800b3aa:	3601      	adds	r6, #1
 800b3ac:	e7d9      	b.n	800b362 <_printf_common+0x92>
	...

0800b3b0 <_printf_i>:
 800b3b0:	e92d 47ff 	stmdb	sp!, {r0, r1, r2, r3, r4, r5, r6, r7, r8, r9, sl, lr}
 800b3b4:	460c      	mov	r4, r1
 800b3b6:	7e27      	ldrb	r7, [r4, #24]
 800b3b8:	4691      	mov	r9, r2
 800b3ba:	2f78      	cmp	r7, #120	; 0x78
 800b3bc:	4680      	mov	r8, r0
 800b3be:	469a      	mov	sl, r3
 800b3c0:	990c      	ldr	r1, [sp, #48]	; 0x30
 800b3c2:	f104 0243 	add.w	r2, r4, #67	; 0x43
 800b3c6:	d807      	bhi.n	800b3d8 <_printf_i+0x28>
 800b3c8:	2f62      	cmp	r7, #98	; 0x62
 800b3ca:	d80a      	bhi.n	800b3e2 <_printf_i+0x32>
 800b3cc:	2f00      	cmp	r7, #0
 800b3ce:	f000 80d9 	beq.w	800b584 <_printf_i+0x1d4>
 800b3d2:	2f58      	cmp	r7, #88	; 0x58
 800b3d4:	f000 80a4 	beq.w	800b520 <_printf_i+0x170>
 800b3d8:	f104 0642 	add.w	r6, r4, #66	; 0x42
 800b3dc:	f884 7042 	strb.w	r7, [r4, #66]	; 0x42
 800b3e0:	e03a      	b.n	800b458 <_printf_i+0xa8>
 800b3e2:	f1a7 0363 	sub.w	r3, r7, #99	; 0x63
 800b3e6:	2b15      	cmp	r3, #21
 800b3e8:	d8f6      	bhi.n	800b3d8 <_printf_i+0x28>
 800b3ea:	a001      	add	r0, pc, #4	; (adr r0, 800b3f0 <_printf_i+0x40>)
 800b3ec:	f850 f023 	ldr.w	pc, [r0, r3, lsl #2]
 800b3f0:	0800b449 	.word	0x0800b449
 800b3f4:	0800b45d 	.word	0x0800b45d
 800b3f8:	0800b3d9 	.word	0x0800b3d9
 800b3fc:	0800b3d9 	.word	0x0800b3d9
 800b400:	0800b3d9 	.word	0x0800b3d9
 800b404:	0800b3d9 	.word	0x0800b3d9
 800b408:	0800b45d 	.word	0x0800b45d
 800b40c:	0800b3d9 	.word	0x0800b3d9
 800b410:	0800b3d9 	.word	0x0800b3d9
 800b414:	0800b3d9 	.word	0x0800b3d9
 800b418:	0800b3d9 	.word	0x0800b3d9
 800b41c:	0800b56b 	.word	0x0800b56b
 800b420:	0800b48d 	.word	0x0800b48d
 800b424:	0800b54d 	.word	0x0800b54d
 800b428:	0800b3d9 	.word	0x0800b3d9
 800b42c:	0800b3d9 	.word	0x0800b3d9
 800b430:	0800b58d 	.word	0x0800b58d
 800b434:	0800b3d9 	.word	0x0800b3d9
 800b438:	0800b48d 	.word	0x0800b48d
 800b43c:	0800b3d9 	.word	0x0800b3d9
 800b440:	0800b3d9 	.word	0x0800b3d9
 800b444:	0800b555 	.word	0x0800b555
 800b448:	680b      	ldr	r3, [r1, #0]
 800b44a:	f104 0642 	add.w	r6, r4, #66	; 0x42
 800b44e:	1d1a      	adds	r2, r3, #4
 800b450:	681b      	ldr	r3, [r3, #0]
 800b452:	600a      	str	r2, [r1, #0]
 800b454:	f884 3042 	strb.w	r3, [r4, #66]	; 0x42
 800b458:	2301      	movs	r3, #1
 800b45a:	e0a4      	b.n	800b5a6 <_printf_i+0x1f6>
 800b45c:	6825      	ldr	r5, [r4, #0]
 800b45e:	6808      	ldr	r0, [r1, #0]
 800b460:	062e      	lsls	r6, r5, #24
 800b462:	f100 0304 	add.w	r3, r0, #4
 800b466:	d50a      	bpl.n	800b47e <_printf_i+0xce>
 800b468:	6805      	ldr	r5, [r0, #0]
 800b46a:	600b      	str	r3, [r1, #0]
 800b46c:	2d00      	cmp	r5, #0
 800b46e:	da03      	bge.n	800b478 <_printf_i+0xc8>
 800b470:	232d      	movs	r3, #45	; 0x2d
 800b472:	426d      	negs	r5, r5
 800b474:	f884 3043 	strb.w	r3, [r4, #67]	; 0x43
 800b478:	230a      	movs	r3, #10
 800b47a:	485e      	ldr	r0, [pc, #376]	; (800b5f4 <_printf_i+0x244>)
 800b47c:	e019      	b.n	800b4b2 <_printf_i+0x102>
 800b47e:	f015 0f40 	tst.w	r5, #64	; 0x40
 800b482:	6805      	ldr	r5, [r0, #0]
 800b484:	600b      	str	r3, [r1, #0]
 800b486:	bf18      	it	ne
 800b488:	b22d      	sxthne	r5, r5
 800b48a:	e7ef      	b.n	800b46c <_printf_i+0xbc>
 800b48c:	680b      	ldr	r3, [r1, #0]
 800b48e:	6825      	ldr	r5, [r4, #0]
 800b490:	1d18      	adds	r0, r3, #4
 800b492:	6008      	str	r0, [r1, #0]
 800b494:	0628      	lsls	r0, r5, #24
 800b496:	d501      	bpl.n	800b49c <_printf_i+0xec>
 800b498:	681d      	ldr	r5, [r3, #0]
 800b49a:	e002      	b.n	800b4a2 <_printf_i+0xf2>
 800b49c:	0669      	lsls	r1, r5, #25
 800b49e:	d5fb      	bpl.n	800b498 <_printf_i+0xe8>
 800b4a0:	881d      	ldrh	r5, [r3, #0]
 800b4a2:	2f6f      	cmp	r7, #111	; 0x6f
 800b4a4:	bf0c      	ite	eq
 800b4a6:	2308      	moveq	r3, #8
 800b4a8:	230a      	movne	r3, #10
 800b4aa:	4852      	ldr	r0, [pc, #328]	; (800b5f4 <_printf_i+0x244>)
 800b4ac:	2100      	movs	r1, #0
 800b4ae:	f884 1043 	strb.w	r1, [r4, #67]	; 0x43
 800b4b2:	6866      	ldr	r6, [r4, #4]
 800b4b4:	2e00      	cmp	r6, #0
 800b4b6:	bfa8      	it	ge
 800b4b8:	6821      	ldrge	r1, [r4, #0]
 800b4ba:	60a6      	str	r6, [r4, #8]
 800b4bc:	bfa4      	itt	ge
 800b4be:	f021 0104 	bicge.w	r1, r1, #4
 800b4c2:	6021      	strge	r1, [r4, #0]
 800b4c4:	b90d      	cbnz	r5, 800b4ca <_printf_i+0x11a>
 800b4c6:	2e00      	cmp	r6, #0
 800b4c8:	d04d      	beq.n	800b566 <_printf_i+0x1b6>
 800b4ca:	4616      	mov	r6, r2
 800b4cc:	fbb5 f1f3 	udiv	r1, r5, r3
 800b4d0:	fb03 5711 	mls	r7, r3, r1, r5
 800b4d4:	5dc7      	ldrb	r7, [r0, r7]
 800b4d6:	f806 7d01 	strb.w	r7, [r6, #-1]!
 800b4da:	462f      	mov	r7, r5
 800b4dc:	42bb      	cmp	r3, r7
 800b4de:	460d      	mov	r5, r1
 800b4e0:	d9f4      	bls.n	800b4cc <_printf_i+0x11c>
 800b4e2:	2b08      	cmp	r3, #8
 800b4e4:	d10b      	bne.n	800b4fe <_printf_i+0x14e>
 800b4e6:	6823      	ldr	r3, [r4, #0]
 800b4e8:	07df      	lsls	r7, r3, #31
 800b4ea:	d508      	bpl.n	800b4fe <_printf_i+0x14e>
 800b4ec:	6923      	ldr	r3, [r4, #16]
 800b4ee:	6861      	ldr	r1, [r4, #4]
 800b4f0:	4299      	cmp	r1, r3
 800b4f2:	bfde      	ittt	le
 800b4f4:	2330      	movle	r3, #48	; 0x30
 800b4f6:	f806 3c01 	strble.w	r3, [r6, #-1]
 800b4fa:	f106 36ff 	addle.w	r6, r6, #4294967295
 800b4fe:	1b92      	subs	r2, r2, r6
 800b500:	6122      	str	r2, [r4, #16]
 800b502:	464b      	mov	r3, r9
 800b504:	4621      	mov	r1, r4
 800b506:	4640      	mov	r0, r8
 800b508:	f8cd a000 	str.w	sl, [sp]
 800b50c:	aa03      	add	r2, sp, #12
 800b50e:	f7ff fedf 	bl	800b2d0 <_printf_common>
 800b512:	3001      	adds	r0, #1
 800b514:	d14c      	bne.n	800b5b0 <_printf_i+0x200>
 800b516:	f04f 30ff 	mov.w	r0, #4294967295
 800b51a:	b004      	add	sp, #16
 800b51c:	e8bd 87f0 	ldmia.w	sp!, {r4, r5, r6, r7, r8, r9, sl, pc}
 800b520:	4834      	ldr	r0, [pc, #208]	; (800b5f4 <_printf_i+0x244>)
 800b522:	f884 7045 	strb.w	r7, [r4, #69]	; 0x45
 800b526:	680e      	ldr	r6, [r1, #0]
 800b528:	6823      	ldr	r3, [r4, #0]
 800b52a:	f856 5b04 	ldr.w	r5, [r6], #4
 800b52e:	061f      	lsls	r7, r3, #24
 800b530:	600e      	str	r6, [r1, #0]
 800b532:	d514      	bpl.n	800b55e <_printf_i+0x1ae>
 800b534:	07d9      	lsls	r1, r3, #31
 800b536:	bf44      	itt	mi
 800b538:	f043 0320 	orrmi.w	r3, r3, #32
 800b53c:	6023      	strmi	r3, [r4, #0]
 800b53e:	b91d      	cbnz	r5, 800b548 <_printf_i+0x198>
 800b540:	6823      	ldr	r3, [r4, #0]
 800b542:	f023 0320 	bic.w	r3, r3, #32
 800b546:	6023      	str	r3, [r4, #0]
 800b548:	2310      	movs	r3, #16
 800b54a:	e7af      	b.n	800b4ac <_printf_i+0xfc>
 800b54c:	6823      	ldr	r3, [r4, #0]
 800b54e:	f043 0320 	orr.w	r3, r3, #32
 800b552:	6023      	str	r3, [r4, #0]
 800b554:	2378      	movs	r3, #120	; 0x78
 800b556:	4828      	ldr	r0, [pc, #160]	; (800b5f8 <_printf_i+0x248>)
 800b558:	f884 3045 	strb.w	r3, [r4, #69]	; 0x45
 800b55c:	e7e3      	b.n	800b526 <_printf_i+0x176>
 800b55e:	065e      	lsls	r6, r3, #25
 800b560:	bf48      	it	mi
 800b562:	b2ad      	uxthmi	r5, r5
 800b564:	e7e6      	b.n	800b534 <_printf_i+0x184>
 800b566:	4616      	mov	r6, r2
 800b568:	e7bb      	b.n	800b4e2 <_printf_i+0x132>
 800b56a:	680b      	ldr	r3, [r1, #0]
 800b56c:	6826      	ldr	r6, [r4, #0]
 800b56e:	1d1d      	adds	r5, r3, #4
 800b570:	6960      	ldr	r0, [r4, #20]
 800b572:	600d      	str	r5, [r1, #0]
 800b574:	0635      	lsls	r5, r6, #24
 800b576:	681b      	ldr	r3, [r3, #0]
 800b578:	d501      	bpl.n	800b57e <_printf_i+0x1ce>
 800b57a:	6018      	str	r0, [r3, #0]
 800b57c:	e002      	b.n	800b584 <_printf_i+0x1d4>
 800b57e:	0671      	lsls	r1, r6, #25
 800b580:	d5fb      	bpl.n	800b57a <_printf_i+0x1ca>
 800b582:	8018      	strh	r0, [r3, #0]
 800b584:	2300      	movs	r3, #0
 800b586:	4616      	mov	r6, r2
 800b588:	6123      	str	r3, [r4, #16]
 800b58a:	e7ba      	b.n	800b502 <_printf_i+0x152>
 800b58c:	680b      	ldr	r3, [r1, #0]
 800b58e:	1d1a      	adds	r2, r3, #4
 800b590:	600a      	str	r2, [r1, #0]
 800b592:	681e      	ldr	r6, [r3, #0]
 800b594:	2100      	movs	r1, #0
 800b596:	4630      	mov	r0, r6
 800b598:	6862      	ldr	r2, [r4, #4]
 800b59a:	f7ff f87b 	bl	800a694 <memchr>
 800b59e:	b108      	cbz	r0, 800b5a4 <_printf_i+0x1f4>
 800b5a0:	1b80      	subs	r0, r0, r6
 800b5a2:	6060      	str	r0, [r4, #4]
 800b5a4:	6863      	ldr	r3, [r4, #4]
 800b5a6:	6123      	str	r3, [r4, #16]
 800b5a8:	2300      	movs	r3, #0
 800b5aa:	f884 3043 	strb.w	r3, [r4, #67]	; 0x43
 800b5ae:	e7a8      	b.n	800b502 <_printf_i+0x152>
 800b5b0:	4632      	mov	r2, r6
 800b5b2:	4649      	mov	r1, r9
 800b5b4:	4640      	mov	r0, r8
 800b5b6:	6923      	ldr	r3, [r4, #16]
 800b5b8:	47d0      	blx	sl
 800b5ba:	3001      	adds	r0, #1
 800b5bc:	d0ab      	beq.n	800b516 <_printf_i+0x166>
 800b5be:	6823      	ldr	r3, [r4, #0]
 800b5c0:	079b      	lsls	r3, r3, #30
 800b5c2:	d413      	bmi.n	800b5ec <_printf_i+0x23c>
 800b5c4:	68e0      	ldr	r0, [r4, #12]
 800b5c6:	9b03      	ldr	r3, [sp, #12]
 800b5c8:	4298      	cmp	r0, r3
 800b5ca:	bfb8      	it	lt
 800b5cc:	4618      	movlt	r0, r3
 800b5ce:	e7a4      	b.n	800b51a <_printf_i+0x16a>
 800b5d0:	2301      	movs	r3, #1
 800b5d2:	4632      	mov	r2, r6
 800b5d4:	4649      	mov	r1, r9
 800b5d6:	4640      	mov	r0, r8
 800b5d8:	47d0      	blx	sl
 800b5da:	3001      	adds	r0, #1
 800b5dc:	d09b      	beq.n	800b516 <_printf_i+0x166>
 800b5de:	3501      	adds	r5, #1
 800b5e0:	68e3      	ldr	r3, [r4, #12]
 800b5e2:	9903      	ldr	r1, [sp, #12]
 800b5e4:	1a5b      	subs	r3, r3, r1
 800b5e6:	42ab      	cmp	r3, r5
 800b5e8:	dcf2      	bgt.n	800b5d0 <_printf_i+0x220>
 800b5ea:	e7eb      	b.n	800b5c4 <_printf_i+0x214>
 800b5ec:	2500      	movs	r5, #0
 800b5ee:	f104 0619 	add.w	r6, r4, #25
 800b5f2:	e7f5      	b.n	800b5e0 <_printf_i+0x230>
 800b5f4:	0800d201 	.word	0x0800d201
 800b5f8:	0800d212 	.word	0x0800d212

0800b5fc <__sread>:
 800b5fc:	b510      	push	{r4, lr}
 800b5fe:	460c      	mov	r4, r1
 800b600:	f9b1 100e 	ldrsh.w	r1, [r1, #14]
 800b604:	f000 f894 	bl	800b730 <_read_r>
 800b608:	2800      	cmp	r0, #0
 800b60a:	bfab      	itete	ge
 800b60c:	6d63      	ldrge	r3, [r4, #84]	; 0x54
 800b60e:	89a3      	ldrhlt	r3, [r4, #12]
 800b610:	181b      	addge	r3, r3, r0
 800b612:	f423 5380 	biclt.w	r3, r3, #4096	; 0x1000
 800b616:	bfac      	ite	ge
 800b618:	6563      	strge	r3, [r4, #84]	; 0x54
 800b61a:	81a3      	strhlt	r3, [r4, #12]
 800b61c:	bd10      	pop	{r4, pc}

0800b61e <__swrite>:
 800b61e:	e92d 41f0 	stmdb	sp!, {r4, r5, r6, r7, r8, lr}
 800b622:	461f      	mov	r7, r3
 800b624:	898b      	ldrh	r3, [r1, #12]
 800b626:	4605      	mov	r5, r0
 800b628:	05db      	lsls	r3, r3, #23
 800b62a:	460c      	mov	r4, r1
 800b62c:	4616      	mov	r6, r2
 800b62e:	d505      	bpl.n	800b63c <__swrite+0x1e>
 800b630:	2302      	movs	r3, #2
 800b632:	2200      	movs	r2, #0
 800b634:	f9b1 100e 	ldrsh.w	r1, [r1, #14]
 800b638:	f000 f868 	bl	800b70c <_lseek_r>
 800b63c:	89a3      	ldrh	r3, [r4, #12]
 800b63e:	4632      	mov	r2, r6
 800b640:	f423 5380 	bic.w	r3, r3, #4096	; 0x1000
 800b644:	81a3      	strh	r3, [r4, #12]
 800b646:	4628      	mov	r0, r5
 800b648:	463b      	mov	r3, r7
 800b64a:	f9b4 100e 	ldrsh.w	r1, [r4, #14]
 800b64e:	e8bd 41f0 	ldmia.w	sp!, {r4, r5, r6, r7, r8, lr}
 800b652:	f000 b817 	b.w	800b684 <_write_r>

0800b656 <__sseek>:
 800b656:	b510      	push	{r4, lr}
 800b658:	460c      	mov	r4, r1
 800b65a:	f9b1 100e 	ldrsh.w	r1, [r1, #14]
 800b65e:	f000 f855 	bl	800b70c <_lseek_r>
 800b662:	1c43      	adds	r3, r0, #1
 800b664:	89a3      	ldrh	r3, [r4, #12]
 800b666:	bf15      	itete	ne
 800b668:	6560      	strne	r0, [r4, #84]	; 0x54
 800b66a:	f423 5380 	biceq.w	r3, r3, #4096	; 0x1000
 800b66e:	f443 5380 	orrne.w	r3, r3, #4096	; 0x1000
 800b672:	81a3      	strheq	r3, [r4, #12]
 800b674:	bf18      	it	ne
 800b676:	81a3      	strhne	r3, [r4, #12]
 800b678:	bd10      	pop	{r4, pc}

0800b67a <__sclose>:
 800b67a:	f9b1 100e 	ldrsh.w	r1, [r1, #14]
 800b67e:	f000 b813 	b.w	800b6a8 <_close_r>
	...

0800b684 <_write_r>:
 800b684:	b538      	push	{r3, r4, r5, lr}
 800b686:	4604      	mov	r4, r0
 800b688:	4608      	mov	r0, r1
 800b68a:	4611      	mov	r1, r2
 800b68c:	2200      	movs	r2, #0
 800b68e:	4d05      	ldr	r5, [pc, #20]	; (800b6a4 <_write_r+0x20>)
 800b690:	602a      	str	r2, [r5, #0]
 800b692:	461a      	mov	r2, r3
 800b694:	f7f6 ffe5 	bl	8002662 <_write>
 800b698:	1c43      	adds	r3, r0, #1
 800b69a:	d102      	bne.n	800b6a2 <_write_r+0x1e>
 800b69c:	682b      	ldr	r3, [r5, #0]
 800b69e:	b103      	cbz	r3, 800b6a2 <_write_r+0x1e>
 800b6a0:	6023      	str	r3, [r4, #0]
 800b6a2:	bd38      	pop	{r3, r4, r5, pc}
 800b6a4:	20006ba8 	.word	0x20006ba8

0800b6a8 <_close_r>:
 800b6a8:	b538      	push	{r3, r4, r5, lr}
 800b6aa:	2300      	movs	r3, #0
 800b6ac:	4d05      	ldr	r5, [pc, #20]	; (800b6c4 <_close_r+0x1c>)
 800b6ae:	4604      	mov	r4, r0
 800b6b0:	4608      	mov	r0, r1
 800b6b2:	602b      	str	r3, [r5, #0]
 800b6b4:	f7f6 ffe2 	bl	800267c <_close>
 800b6b8:	1c43      	adds	r3, r0, #1
 800b6ba:	d102      	bne.n	800b6c2 <_close_r+0x1a>
 800b6bc:	682b      	ldr	r3, [r5, #0]
 800b6be:	b103      	cbz	r3, 800b6c2 <_close_r+0x1a>
 800b6c0:	6023      	str	r3, [r4, #0]
 800b6c2:	bd38      	pop	{r3, r4, r5, pc}
 800b6c4:	20006ba8 	.word	0x20006ba8

0800b6c8 <_fstat_r>:
 800b6c8:	b538      	push	{r3, r4, r5, lr}
 800b6ca:	2300      	movs	r3, #0
 800b6cc:	4d06      	ldr	r5, [pc, #24]	; (800b6e8 <_fstat_r+0x20>)
 800b6ce:	4604      	mov	r4, r0
 800b6d0:	4608      	mov	r0, r1
 800b6d2:	4611      	mov	r1, r2
 800b6d4:	602b      	str	r3, [r5, #0]
 800b6d6:	f7f6 ffd4 	bl	8002682 <_fstat>
 800b6da:	1c43      	adds	r3, r0, #1
 800b6dc:	d102      	bne.n	800b6e4 <_fstat_r+0x1c>
 800b6de:	682b      	ldr	r3, [r5, #0]
 800b6e0:	b103      	cbz	r3, 800b6e4 <_fstat_r+0x1c>
 800b6e2:	6023      	str	r3, [r4, #0]
 800b6e4:	bd38      	pop	{r3, r4, r5, pc}
 800b6e6:	bf00      	nop
 800b6e8:	20006ba8 	.word	0x20006ba8

0800b6ec <_isatty_r>:
 800b6ec:	b538      	push	{r3, r4, r5, lr}
 800b6ee:	2300      	movs	r3, #0
 800b6f0:	4d05      	ldr	r5, [pc, #20]	; (800b708 <_isatty_r+0x1c>)
 800b6f2:	4604      	mov	r4, r0
 800b6f4:	4608      	mov	r0, r1
 800b6f6:	602b      	str	r3, [r5, #0]
 800b6f8:	f7f6 ffc8 	bl	800268c <_isatty>
 800b6fc:	1c43      	adds	r3, r0, #1
 800b6fe:	d102      	bne.n	800b706 <_isatty_r+0x1a>
 800b700:	682b      	ldr	r3, [r5, #0]
 800b702:	b103      	cbz	r3, 800b706 <_isatty_r+0x1a>
 800b704:	6023      	str	r3, [r4, #0]
 800b706:	bd38      	pop	{r3, r4, r5, pc}
 800b708:	20006ba8 	.word	0x20006ba8

0800b70c <_lseek_r>:
 800b70c:	b538      	push	{r3, r4, r5, lr}
 800b70e:	4604      	mov	r4, r0
 800b710:	4608      	mov	r0, r1
 800b712:	4611      	mov	r1, r2
 800b714:	2200      	movs	r2, #0
 800b716:	4d05      	ldr	r5, [pc, #20]	; (800b72c <_lseek_r+0x20>)
 800b718:	602a      	str	r2, [r5, #0]
 800b71a:	461a      	mov	r2, r3
 800b71c:	f7f6 ffb8 	bl	8002690 <_lseek>
 800b720:	1c43      	adds	r3, r0, #1
 800b722:	d102      	bne.n	800b72a <_lseek_r+0x1e>
 800b724:	682b      	ldr	r3, [r5, #0]
 800b726:	b103      	cbz	r3, 800b72a <_lseek_r+0x1e>
 800b728:	6023      	str	r3, [r4, #0]
 800b72a:	bd38      	pop	{r3, r4, r5, pc}
 800b72c:	20006ba8 	.word	0x20006ba8

0800b730 <_read_r>:
 800b730:	b538      	push	{r3, r4, r5, lr}
 800b732:	4604      	mov	r4, r0
 800b734:	4608      	mov	r0, r1
 800b736:	4611      	mov	r1, r2
 800b738:	2200      	movs	r2, #0
 800b73a:	4d05      	ldr	r5, [pc, #20]	; (800b750 <_read_r+0x20>)
 800b73c:	602a      	str	r2, [r5, #0]
 800b73e:	461a      	mov	r2, r3
 800b740:	f7f6 ff82 	bl	8002648 <_read>
 800b744:	1c43      	adds	r3, r0, #1
 800b746:	d102      	bne.n	800b74e <_read_r+0x1e>
 800b748:	682b      	ldr	r3, [r5, #0]
 800b74a:	b103      	cbz	r3, 800b74e <_read_r+0x1e>
 800b74c:	6023      	str	r3, [r4, #0]
 800b74e:	bd38      	pop	{r3, r4, r5, pc}
 800b750:	20006ba8 	.word	0x20006ba8

0800b754 <_init>:
 800b754:	b5f8      	push	{r3, r4, r5, r6, r7, lr}
 800b756:	bf00      	nop
 800b758:	bcf8      	pop	{r3, r4, r5, r6, r7}
 800b75a:	bc08      	pop	{r3}
 800b75c:	469e      	mov	lr, r3
 800b75e:	4770      	bx	lr

0800b760 <_fini>:
 800b760:	b5f8      	push	{r3, r4, r5, r6, r7, lr}
 800b762:	bf00      	nop
 800b764:	bcf8      	pop	{r3, r4, r5, r6, r7}
 800b766:	bc08      	pop	{r3}
 800b768:	469e      	mov	lr, r3
 800b76a:	4770      	bx	lr
